ARM GAS  C:\Users\ben\AppData\Local\Temp\cc4JC7lV.s 			page 1


   1              		.syntax unified
   2              		.cpu cortex-m3
   3              		.fpu softvfp
   4              		.eabi_attribute 20, 1
   5              		.eabi_attribute 21, 1
   6              		.eabi_attribute 23, 3
   7              		.eabi_attribute 24, 1
   8              		.eabi_attribute 25, 1
   9              		.eabi_attribute 26, 1
  10              		.eabi_attribute 30, 6
  11              		.eabi_attribute 34, 1
  12              		.eabi_attribute 18, 4
  13              		.thumb
  14              		.file	"ADC_SAR_1.c"
  15              		.text
  16              	.Ltext0:
  17              		.cfi_sections	.debug_frame
  18              		.global	ADC_SAR_1_initVar
  19              		.bss
  20              		.type	ADC_SAR_1_initVar, %object
  21              		.size	ADC_SAR_1_initVar, 1
  22              	ADC_SAR_1_initVar:
  23 0000 00       		.space	1
  24              		.comm	ADC_SAR_1_offset,2,2
  25              		.comm	ADC_SAR_1_countsPerVolt,2,2
  26              		.comm	ADC_SAR_1_countsPer10Volt,4,4
  27              		.comm	ADC_SAR_1_shift,2,2
  28              		.section	.text.ADC_SAR_1_Start,"ax",%progbits
  29              		.align	2
  30              		.global	ADC_SAR_1_Start
  31              		.thumb
  32              		.thumb_func
  33              		.type	ADC_SAR_1_Start, %function
  34              	ADC_SAR_1_Start:
  35              	.LFB0:
  36              		.file 1 "Generated_Source\\PSoC5\\ADC_SAR_1.c"
   1:Generated_Source\PSoC5/ADC_SAR_1.c **** /*******************************************************************************
   2:Generated_Source\PSoC5/ADC_SAR_1.c **** * File Name: ADC_SAR_1.c
   3:Generated_Source\PSoC5/ADC_SAR_1.c **** * Version 3.0
   4:Generated_Source\PSoC5/ADC_SAR_1.c **** *
   5:Generated_Source\PSoC5/ADC_SAR_1.c **** * Description:
   6:Generated_Source\PSoC5/ADC_SAR_1.c **** *  This file provides the source code to the API for the Successive
   7:Generated_Source\PSoC5/ADC_SAR_1.c **** *  approximation ADC Component.
   8:Generated_Source\PSoC5/ADC_SAR_1.c **** *
   9:Generated_Source\PSoC5/ADC_SAR_1.c **** * Note:
  10:Generated_Source\PSoC5/ADC_SAR_1.c **** *
  11:Generated_Source\PSoC5/ADC_SAR_1.c **** ********************************************************************************
  12:Generated_Source\PSoC5/ADC_SAR_1.c **** * Copyright 2008-2015, Cypress Semiconductor Corporation.  All rights reserved.
  13:Generated_Source\PSoC5/ADC_SAR_1.c **** * You may use this file only in accordance with the license, terms, conditions,
  14:Generated_Source\PSoC5/ADC_SAR_1.c **** * disclaimers, and limitations in the end user license agreement accompanying
  15:Generated_Source\PSoC5/ADC_SAR_1.c **** * the software package with which this file was provided.
  16:Generated_Source\PSoC5/ADC_SAR_1.c **** *******************************************************************************/
  17:Generated_Source\PSoC5/ADC_SAR_1.c **** 
  18:Generated_Source\PSoC5/ADC_SAR_1.c **** #include "CyLib.h"
  19:Generated_Source\PSoC5/ADC_SAR_1.c **** #include "ADC_SAR_1.h"
  20:Generated_Source\PSoC5/ADC_SAR_1.c **** 
  21:Generated_Source\PSoC5/ADC_SAR_1.c **** #if(ADC_SAR_1_DEFAULT_INTERNAL_CLK)
ARM GAS  C:\Users\ben\AppData\Local\Temp\cc4JC7lV.s 			page 2


  22:Generated_Source\PSoC5/ADC_SAR_1.c ****     #include "ADC_SAR_1_theACLK.h"
  23:Generated_Source\PSoC5/ADC_SAR_1.c **** #endif /* End ADC_SAR_1_DEFAULT_INTERNAL_CLK */
  24:Generated_Source\PSoC5/ADC_SAR_1.c **** 
  25:Generated_Source\PSoC5/ADC_SAR_1.c **** 
  26:Generated_Source\PSoC5/ADC_SAR_1.c **** /***************************************
  27:Generated_Source\PSoC5/ADC_SAR_1.c **** * Forward function references
  28:Generated_Source\PSoC5/ADC_SAR_1.c **** ***************************************/
  29:Generated_Source\PSoC5/ADC_SAR_1.c **** static void ADC_SAR_1_CalcGain(uint8 resolution);
  30:Generated_Source\PSoC5/ADC_SAR_1.c **** 
  31:Generated_Source\PSoC5/ADC_SAR_1.c **** 
  32:Generated_Source\PSoC5/ADC_SAR_1.c **** /***************************************
  33:Generated_Source\PSoC5/ADC_SAR_1.c **** * Global data allocation
  34:Generated_Source\PSoC5/ADC_SAR_1.c **** ***************************************/
  35:Generated_Source\PSoC5/ADC_SAR_1.c **** uint8 ADC_SAR_1_initVar = 0u;
  36:Generated_Source\PSoC5/ADC_SAR_1.c **** volatile int16 ADC_SAR_1_offset;
  37:Generated_Source\PSoC5/ADC_SAR_1.c **** volatile int16 ADC_SAR_1_countsPerVolt;     /* Obsolete Gain compensation */
  38:Generated_Source\PSoC5/ADC_SAR_1.c **** volatile int32 ADC_SAR_1_countsPer10Volt;   /* Gain compensation */
  39:Generated_Source\PSoC5/ADC_SAR_1.c **** volatile int16 ADC_SAR_1_shift;
  40:Generated_Source\PSoC5/ADC_SAR_1.c **** 
  41:Generated_Source\PSoC5/ADC_SAR_1.c **** 
  42:Generated_Source\PSoC5/ADC_SAR_1.c **** /*******************************************************************************
  43:Generated_Source\PSoC5/ADC_SAR_1.c **** * Function Name: ADC_SAR_1_Start
  44:Generated_Source\PSoC5/ADC_SAR_1.c **** ********************************************************************************
  45:Generated_Source\PSoC5/ADC_SAR_1.c **** *
  46:Generated_Source\PSoC5/ADC_SAR_1.c **** * Summary:
  47:Generated_Source\PSoC5/ADC_SAR_1.c **** *  This is the preferred method to begin component operation.
  48:Generated_Source\PSoC5/ADC_SAR_1.c **** *  ADC_SAR_1_Start() sets the initVar variable, calls the
  49:Generated_Source\PSoC5/ADC_SAR_1.c **** *  ADC_SAR_1_Init() function, and then calls the
  50:Generated_Source\PSoC5/ADC_SAR_1.c **** *  ADC_SAR_1_Enable() function.
  51:Generated_Source\PSoC5/ADC_SAR_1.c **** *
  52:Generated_Source\PSoC5/ADC_SAR_1.c **** * Parameters:
  53:Generated_Source\PSoC5/ADC_SAR_1.c **** *  None.
  54:Generated_Source\PSoC5/ADC_SAR_1.c **** *
  55:Generated_Source\PSoC5/ADC_SAR_1.c **** * Return:
  56:Generated_Source\PSoC5/ADC_SAR_1.c **** *  None.
  57:Generated_Source\PSoC5/ADC_SAR_1.c **** *
  58:Generated_Source\PSoC5/ADC_SAR_1.c **** * Global variables:
  59:Generated_Source\PSoC5/ADC_SAR_1.c **** *  The ADC_SAR_1_initVar variable is used to indicate when/if initial
  60:Generated_Source\PSoC5/ADC_SAR_1.c **** *  configuration of this component has happened. The variable is initialized to
  61:Generated_Source\PSoC5/ADC_SAR_1.c **** *  zero and set to 1 the first time ADC_Start() is called. This allows for
  62:Generated_Source\PSoC5/ADC_SAR_1.c **** *  component Re-Start without re-initialization in all subsequent calls to the
  63:Generated_Source\PSoC5/ADC_SAR_1.c **** *  ADC_SAR_1_Start() routine.
  64:Generated_Source\PSoC5/ADC_SAR_1.c **** *  If re-initialization of the component is required the variable should be set
  65:Generated_Source\PSoC5/ADC_SAR_1.c **** *  to zero before call of ADC_SAR_1_Start() routine, or the user may call
  66:Generated_Source\PSoC5/ADC_SAR_1.c **** *  ADC_SAR_1_Init() and ADC_SAR_1_Enable() as done in the
  67:Generated_Source\PSoC5/ADC_SAR_1.c **** *  ADC_SAR_1_Start() routine.
  68:Generated_Source\PSoC5/ADC_SAR_1.c **** *
  69:Generated_Source\PSoC5/ADC_SAR_1.c **** * Side Effect:
  70:Generated_Source\PSoC5/ADC_SAR_1.c **** *  If the initVar variable is already set, this function only calls the
  71:Generated_Source\PSoC5/ADC_SAR_1.c **** *  ADC_SAR_1_Enable() function.
  72:Generated_Source\PSoC5/ADC_SAR_1.c **** *
  73:Generated_Source\PSoC5/ADC_SAR_1.c **** *******************************************************************************/
  74:Generated_Source\PSoC5/ADC_SAR_1.c **** void ADC_SAR_1_Start(void)
  75:Generated_Source\PSoC5/ADC_SAR_1.c **** {
  37              		.loc 1 75 0
  38              		.cfi_startproc
  39              		@ args = 0, pretend = 0, frame = 0
ARM GAS  C:\Users\ben\AppData\Local\Temp\cc4JC7lV.s 			page 3


  40              		@ frame_needed = 1, uses_anonymous_args = 0
  41 0000 80B5     		push	{r7, lr}
  42              		.cfi_def_cfa_offset 8
  43              		.cfi_offset 7, -8
  44              		.cfi_offset 14, -4
  45 0002 00AF     		add	r7, sp, #0
  46              		.cfi_def_cfa_register 7
  76:Generated_Source\PSoC5/ADC_SAR_1.c **** 
  77:Generated_Source\PSoC5/ADC_SAR_1.c ****     /* If not Initialized then initialize all required hardware and software */
  78:Generated_Source\PSoC5/ADC_SAR_1.c ****     if(ADC_SAR_1_initVar == 0u)
  47              		.loc 1 78 0
  48 0004 054B     		ldr	r3, .L3
  49 0006 1B78     		ldrb	r3, [r3]	@ zero_extendqisi2
  50 0008 002B     		cmp	r3, #0
  51 000a 04D1     		bne	.L2
  79:Generated_Source\PSoC5/ADC_SAR_1.c ****     {
  80:Generated_Source\PSoC5/ADC_SAR_1.c ****         ADC_SAR_1_Init();
  52              		.loc 1 80 0
  53 000c FFF7FEFF 		bl	ADC_SAR_1_Init
  81:Generated_Source\PSoC5/ADC_SAR_1.c ****         ADC_SAR_1_initVar = 1u;
  54              		.loc 1 81 0
  55 0010 024B     		ldr	r3, .L3
  56 0012 0122     		movs	r2, #1
  57 0014 1A70     		strb	r2, [r3]
  58              	.L2:
  82:Generated_Source\PSoC5/ADC_SAR_1.c ****     }
  83:Generated_Source\PSoC5/ADC_SAR_1.c ****     ADC_SAR_1_Enable();
  59              		.loc 1 83 0
  60 0016 FFF7FEFF 		bl	ADC_SAR_1_Enable
  84:Generated_Source\PSoC5/ADC_SAR_1.c **** }
  61              		.loc 1 84 0
  62 001a 80BD     		pop	{r7, pc}
  63              	.L4:
  64              		.align	2
  65              	.L3:
  66 001c 00000000 		.word	ADC_SAR_1_initVar
  67              		.cfi_endproc
  68              	.LFE0:
  69              		.size	ADC_SAR_1_Start, .-ADC_SAR_1_Start
  70              		.section	.text.ADC_SAR_1_Init,"ax",%progbits
  71              		.align	2
  72              		.global	ADC_SAR_1_Init
  73              		.thumb
  74              		.thumb_func
  75              		.type	ADC_SAR_1_Init, %function
  76              	ADC_SAR_1_Init:
  77              	.LFB1:
  85:Generated_Source\PSoC5/ADC_SAR_1.c **** 
  86:Generated_Source\PSoC5/ADC_SAR_1.c **** 
  87:Generated_Source\PSoC5/ADC_SAR_1.c **** /*******************************************************************************
  88:Generated_Source\PSoC5/ADC_SAR_1.c **** * Function Name: ADC_SAR_1_Init
  89:Generated_Source\PSoC5/ADC_SAR_1.c **** ********************************************************************************
  90:Generated_Source\PSoC5/ADC_SAR_1.c **** *
  91:Generated_Source\PSoC5/ADC_SAR_1.c **** * Summary:
  92:Generated_Source\PSoC5/ADC_SAR_1.c **** *  Initialize component's parameters to the parameters set by user in the
  93:Generated_Source\PSoC5/ADC_SAR_1.c **** *  customizer of the component placed onto schematic. Usually called in
  94:Generated_Source\PSoC5/ADC_SAR_1.c **** *  ADC_SAR_1_Start().
ARM GAS  C:\Users\ben\AppData\Local\Temp\cc4JC7lV.s 			page 4


  95:Generated_Source\PSoC5/ADC_SAR_1.c **** *
  96:Generated_Source\PSoC5/ADC_SAR_1.c **** * Parameters:
  97:Generated_Source\PSoC5/ADC_SAR_1.c **** *  None.
  98:Generated_Source\PSoC5/ADC_SAR_1.c **** *
  99:Generated_Source\PSoC5/ADC_SAR_1.c **** * Return:
 100:Generated_Source\PSoC5/ADC_SAR_1.c **** *  None.
 101:Generated_Source\PSoC5/ADC_SAR_1.c **** *
 102:Generated_Source\PSoC5/ADC_SAR_1.c **** * Global variables:
 103:Generated_Source\PSoC5/ADC_SAR_1.c **** *  The ADC_SAR_1_offset variable is initialized to 0.
 104:Generated_Source\PSoC5/ADC_SAR_1.c **** *
 105:Generated_Source\PSoC5/ADC_SAR_1.c **** *******************************************************************************/
 106:Generated_Source\PSoC5/ADC_SAR_1.c **** void ADC_SAR_1_Init(void)
 107:Generated_Source\PSoC5/ADC_SAR_1.c **** {
  78              		.loc 1 107 0
  79              		.cfi_startproc
  80              		@ args = 0, pretend = 0, frame = 0
  81              		@ frame_needed = 1, uses_anonymous_args = 0
  82 0000 80B5     		push	{r7, lr}
  83              		.cfi_def_cfa_offset 8
  84              		.cfi_offset 7, -8
  85              		.cfi_offset 14, -4
  86 0002 00AF     		add	r7, sp, #0
  87              		.cfi_def_cfa_register 7
 108:Generated_Source\PSoC5/ADC_SAR_1.c **** 
 109:Generated_Source\PSoC5/ADC_SAR_1.c ****     /* This is only valid if there is an internal clock */
 110:Generated_Source\PSoC5/ADC_SAR_1.c ****     #if(ADC_SAR_1_DEFAULT_INTERNAL_CLK)
 111:Generated_Source\PSoC5/ADC_SAR_1.c ****         ADC_SAR_1_theACLK_SetMode(CYCLK_DUTY);
 112:Generated_Source\PSoC5/ADC_SAR_1.c ****     #endif /* End ADC_SAR_1_DEFAULT_INTERNAL_CLK */
 113:Generated_Source\PSoC5/ADC_SAR_1.c **** 
 114:Generated_Source\PSoC5/ADC_SAR_1.c ****     #if(ADC_SAR_1_IRQ_REMOVE == 0u)
 115:Generated_Source\PSoC5/ADC_SAR_1.c ****         /* Start and set interrupt vector */
 116:Generated_Source\PSoC5/ADC_SAR_1.c ****         CyIntSetPriority(ADC_SAR_1_INTC_NUMBER, ADC_SAR_1_INTC_PRIOR_NUMBER);
  88              		.loc 1 116 0
  89 0004 0020     		movs	r0, #0
  90 0006 0721     		movs	r1, #7
  91 0008 FFF7FEFF 		bl	CyIntSetPriority
 117:Generated_Source\PSoC5/ADC_SAR_1.c ****         (void)CyIntSetVector(ADC_SAR_1_INTC_NUMBER, &ADC_SAR_1_ISR);
  92              		.loc 1 117 0
  93 000c 0020     		movs	r0, #0
  94 000e 0949     		ldr	r1, .L6
  95 0010 FFF7FEFF 		bl	CyIntSetVector
 118:Generated_Source\PSoC5/ADC_SAR_1.c ****     #endif   /* End ADC_SAR_1_IRQ_REMOVE */
 119:Generated_Source\PSoC5/ADC_SAR_1.c **** 
 120:Generated_Source\PSoC5/ADC_SAR_1.c ****     /* Enable IRQ mode*/
 121:Generated_Source\PSoC5/ADC_SAR_1.c ****     ADC_SAR_1_SAR_CSR1_REG |= ADC_SAR_1_SAR_IRQ_MASK_EN | ADC_SAR_1_SAR_IRQ_MODE_EDGE;
  96              		.loc 1 121 0
  97 0014 084A     		ldr	r2, .L6+4
  98 0016 084B     		ldr	r3, .L6+4
  99 0018 1B78     		ldrb	r3, [r3]
 100 001a DBB2     		uxtb	r3, r3
 101 001c 43F00603 		orr	r3, r3, #6
 102 0020 DBB2     		uxtb	r3, r3
 103 0022 1370     		strb	r3, [r2]
 122:Generated_Source\PSoC5/ADC_SAR_1.c **** 
 123:Generated_Source\PSoC5/ADC_SAR_1.c ****     /*Set SAR ADC resolution ADC */
 124:Generated_Source\PSoC5/ADC_SAR_1.c ****     ADC_SAR_1_SetResolution(ADC_SAR_1_DEFAULT_RESOLUTION);
 104              		.loc 1 124 0
ARM GAS  C:\Users\ben\AppData\Local\Temp\cc4JC7lV.s 			page 5


 105 0024 0C20     		movs	r0, #12
 106 0026 FFF7FEFF 		bl	ADC_SAR_1_SetResolution
 125:Generated_Source\PSoC5/ADC_SAR_1.c ****     ADC_SAR_1_offset = 0;
 107              		.loc 1 125 0
 108 002a 044B     		ldr	r3, .L6+8
 109 002c 0022     		movs	r2, #0
 110 002e 1A80     		strh	r2, [r3]	@ movhi
 126:Generated_Source\PSoC5/ADC_SAR_1.c **** }
 111              		.loc 1 126 0
 112 0030 80BD     		pop	{r7, pc}
 113              	.L7:
 114 0032 00BF     		.align	2
 115              	.L6:
 116 0034 00000000 		.word	ADC_SAR_1_ISR
 117 0038 09590040 		.word	1073764617
 118 003c 00000000 		.word	ADC_SAR_1_offset
 119              		.cfi_endproc
 120              	.LFE1:
 121              		.size	ADC_SAR_1_Init, .-ADC_SAR_1_Init
 122              		.section	.text.ADC_SAR_1_Enable,"ax",%progbits
 123              		.align	2
 124              		.global	ADC_SAR_1_Enable
 125              		.thumb
 126              		.thumb_func
 127              		.type	ADC_SAR_1_Enable, %function
 128              	ADC_SAR_1_Enable:
 129              	.LFB2:
 127:Generated_Source\PSoC5/ADC_SAR_1.c **** 
 128:Generated_Source\PSoC5/ADC_SAR_1.c **** 
 129:Generated_Source\PSoC5/ADC_SAR_1.c **** /*******************************************************************************
 130:Generated_Source\PSoC5/ADC_SAR_1.c **** * Function Name: ADC_SAR_1_Enable
 131:Generated_Source\PSoC5/ADC_SAR_1.c **** ********************************************************************************
 132:Generated_Source\PSoC5/ADC_SAR_1.c **** *
 133:Generated_Source\PSoC5/ADC_SAR_1.c **** * Summary:
 134:Generated_Source\PSoC5/ADC_SAR_1.c **** *  Enables the reference, clock and power for SAR ADC.
 135:Generated_Source\PSoC5/ADC_SAR_1.c **** *
 136:Generated_Source\PSoC5/ADC_SAR_1.c **** * Parameters:
 137:Generated_Source\PSoC5/ADC_SAR_1.c **** *  None.
 138:Generated_Source\PSoC5/ADC_SAR_1.c **** *
 139:Generated_Source\PSoC5/ADC_SAR_1.c **** * Return:
 140:Generated_Source\PSoC5/ADC_SAR_1.c **** *  None.
 141:Generated_Source\PSoC5/ADC_SAR_1.c **** *
 142:Generated_Source\PSoC5/ADC_SAR_1.c **** *******************************************************************************/
 143:Generated_Source\PSoC5/ADC_SAR_1.c **** void ADC_SAR_1_Enable(void)
 144:Generated_Source\PSoC5/ADC_SAR_1.c **** {
 130              		.loc 1 144 0
 131              		.cfi_startproc
 132              		@ args = 0, pretend = 0, frame = 8
 133              		@ frame_needed = 1, uses_anonymous_args = 0
 134 0000 80B5     		push	{r7, lr}
 135              		.cfi_def_cfa_offset 8
 136              		.cfi_offset 7, -8
 137              		.cfi_offset 14, -4
 138 0002 82B0     		sub	sp, sp, #8
 139              		.cfi_def_cfa_offset 16
 140 0004 00AF     		add	r7, sp, #0
 141              		.cfi_def_cfa_register 7
ARM GAS  C:\Users\ben\AppData\Local\Temp\cc4JC7lV.s 			page 6


 145:Generated_Source\PSoC5/ADC_SAR_1.c ****     uint8 tmpReg;
 146:Generated_Source\PSoC5/ADC_SAR_1.c ****     uint8 enableInterrupts;
 147:Generated_Source\PSoC5/ADC_SAR_1.c ****     enableInterrupts = CyEnterCriticalSection();
 142              		.loc 1 147 0
 143 0006 FFF7FEFF 		bl	CyEnterCriticalSection
 144 000a 0346     		mov	r3, r0
 145 000c FB71     		strb	r3, [r7, #7]
 148:Generated_Source\PSoC5/ADC_SAR_1.c **** 
 149:Generated_Source\PSoC5/ADC_SAR_1.c ****     /* Enable the SAR ADC block in Active Power Mode */
 150:Generated_Source\PSoC5/ADC_SAR_1.c ****     ADC_SAR_1_PWRMGR_SAR_REG |= ADC_SAR_1_ACT_PWR_SAR_EN;
 146              		.loc 1 150 0
 147 000e 264A     		ldr	r2, .L9
 148 0010 254B     		ldr	r3, .L9
 149 0012 1B78     		ldrb	r3, [r3]
 150 0014 DBB2     		uxtb	r3, r3
 151 0016 43F00203 		orr	r3, r3, #2
 152 001a DBB2     		uxtb	r3, r3
 153 001c 1370     		strb	r3, [r2]
 151:Generated_Source\PSoC5/ADC_SAR_1.c **** 
 152:Generated_Source\PSoC5/ADC_SAR_1.c ****      /* Enable the SAR ADC in Standby Power Mode*/
 153:Generated_Source\PSoC5/ADC_SAR_1.c ****     ADC_SAR_1_STBY_PWRMGR_SAR_REG |= ADC_SAR_1_STBY_PWR_SAR_EN;
 154              		.loc 1 153 0
 155 001e 234A     		ldr	r2, .L9+4
 156 0020 224B     		ldr	r3, .L9+4
 157 0022 1B78     		ldrb	r3, [r3]
 158 0024 DBB2     		uxtb	r3, r3
 159 0026 43F00203 		orr	r3, r3, #2
 160 002a DBB2     		uxtb	r3, r3
 161 002c 1370     		strb	r3, [r2]
 154:Generated_Source\PSoC5/ADC_SAR_1.c **** 
 155:Generated_Source\PSoC5/ADC_SAR_1.c ****     /* This is only valid if there is an internal clock */
 156:Generated_Source\PSoC5/ADC_SAR_1.c ****     #if(ADC_SAR_1_DEFAULT_INTERNAL_CLK)
 157:Generated_Source\PSoC5/ADC_SAR_1.c ****         ADC_SAR_1_PWRMGR_CLK_REG |= ADC_SAR_1_ACT_PWR_CLK_EN;
 158:Generated_Source\PSoC5/ADC_SAR_1.c ****         ADC_SAR_1_STBY_PWRMGR_CLK_REG |= ADC_SAR_1_STBY_PWR_CLK_EN;
 159:Generated_Source\PSoC5/ADC_SAR_1.c ****     #endif /* End ADC_SAR_1_DEFAULT_INTERNAL_CLK */
 160:Generated_Source\PSoC5/ADC_SAR_1.c **** 
 161:Generated_Source\PSoC5/ADC_SAR_1.c ****     /* Enable VCM buffer and Enable Int Ref Amp */
 162:Generated_Source\PSoC5/ADC_SAR_1.c ****     tmpReg = ADC_SAR_1_SAR_CSR3_REG;
 162              		.loc 1 162 0
 163 002e 204B     		ldr	r3, .L9+8
 164 0030 1B78     		ldrb	r3, [r3]
 165 0032 BB71     		strb	r3, [r7, #6]
 163:Generated_Source\PSoC5/ADC_SAR_1.c ****     tmpReg |= ADC_SAR_1_SAR_EN_BUF_VCM_EN;
 166              		.loc 1 163 0
 167 0034 BB79     		ldrb	r3, [r7, #6]
 168 0036 43F00203 		orr	r3, r3, #2
 169 003a BB71     		strb	r3, [r7, #6]
 164:Generated_Source\PSoC5/ADC_SAR_1.c ****     /* PD_BUF_VREF is OFF in External reference or Vdda reference mode */
 165:Generated_Source\PSoC5/ADC_SAR_1.c ****     #if((ADC_SAR_1_DEFAULT_REFERENCE == ADC_SAR_1__EXT_REF) || \
 166:Generated_Source\PSoC5/ADC_SAR_1.c ****         (ADC_SAR_1_DEFAULT_RANGE == ADC_SAR_1__VNEG_VDDA_DIFF))
 167:Generated_Source\PSoC5/ADC_SAR_1.c ****         tmpReg &= (uint8)~ADC_SAR_1_SAR_EN_BUF_VREF_EN;
 168:Generated_Source\PSoC5/ADC_SAR_1.c ****     #else /* In INTREF or INTREF Bypassed this buffer is ON */
 169:Generated_Source\PSoC5/ADC_SAR_1.c ****         tmpReg |= ADC_SAR_1_SAR_EN_BUF_VREF_EN;
 170              		.loc 1 169 0
 171 003c BB79     		ldrb	r3, [r7, #6]
 172 003e 43F00103 		orr	r3, r3, #1
 173 0042 BB71     		strb	r3, [r7, #6]
ARM GAS  C:\Users\ben\AppData\Local\Temp\cc4JC7lV.s 			page 7


 170:Generated_Source\PSoC5/ADC_SAR_1.c ****     #endif /* ADC_SAR_1_DEFAULT_REFERENCE == ADC_SAR_1__EXT_REF */
 171:Generated_Source\PSoC5/ADC_SAR_1.c ****     ADC_SAR_1_SAR_CSR3_REG = tmpReg;
 174              		.loc 1 171 0
 175 0044 1A4A     		ldr	r2, .L9+8
 176 0046 BB79     		ldrb	r3, [r7, #6]
 177 0048 1370     		strb	r3, [r2]
 172:Generated_Source\PSoC5/ADC_SAR_1.c **** 
 173:Generated_Source\PSoC5/ADC_SAR_1.c ****     /* Set reference for ADC */
 174:Generated_Source\PSoC5/ADC_SAR_1.c ****     #if(ADC_SAR_1_DEFAULT_RANGE == ADC_SAR_1__VNEG_VDDA_DIFF)
 175:Generated_Source\PSoC5/ADC_SAR_1.c ****         #if(ADC_SAR_1_DEFAULT_REFERENCE == ADC_SAR_1__EXT_REF)
 176:Generated_Source\PSoC5/ADC_SAR_1.c ****             ADC_SAR_1_SAR_CSR6_REG = ADC_SAR_1_INT_BYPASS_EXT_VREF; /* S2 */
 177:Generated_Source\PSoC5/ADC_SAR_1.c ****         #else /* Internal Vdda reference or obsolete bypass mode */
 178:Generated_Source\PSoC5/ADC_SAR_1.c ****             ADC_SAR_1_SAR_CSR6_REG = ADC_SAR_1_VDDA_VREF;           /* S7 */
 179:Generated_Source\PSoC5/ADC_SAR_1.c ****         #endif /* ADC_SAR_1_DEFAULT_REFERENCE == ADC_SAR_1__EXT_REF */
 180:Generated_Source\PSoC5/ADC_SAR_1.c ****     #else  /* Reference goes through internal buffer */
 181:Generated_Source\PSoC5/ADC_SAR_1.c ****         #if(ADC_SAR_1_DEFAULT_REFERENCE == ADC_SAR_1__INT_REF_NOT_BYPASSED)
 182:Generated_Source\PSoC5/ADC_SAR_1.c ****             ADC_SAR_1_SAR_CSR6_REG = ADC_SAR_1_INT_VREF;            /* S3 + S4 */
 178              		.loc 1 182 0
 179 004a 1A4B     		ldr	r3, .L9+12
 180 004c 1822     		movs	r2, #24
 181 004e 1A70     		strb	r2, [r3]
 183:Generated_Source\PSoC5/ADC_SAR_1.c ****         #else /* INTREF Bypassed of External */
 184:Generated_Source\PSoC5/ADC_SAR_1.c ****             ADC_SAR_1_SAR_CSR6_REG = ADC_SAR_1_INT_BYPASS_EXT_VREF; /* S2 */
 185:Generated_Source\PSoC5/ADC_SAR_1.c ****         #endif /* ADC_SAR_1_DEFAULT_REFERENCE == ADC_SAR_1__INT_REF_NOT_BYPASSED */
 186:Generated_Source\PSoC5/ADC_SAR_1.c ****     #endif /* VNEG_VDDA_DIFF */
 187:Generated_Source\PSoC5/ADC_SAR_1.c **** 
 188:Generated_Source\PSoC5/ADC_SAR_1.c ****     /* Low non-overlap delay for sampling clock signals (for 1MSPS) */
 189:Generated_Source\PSoC5/ADC_SAR_1.c ****     #if(ADC_SAR_1_HIGH_POWER_PULSE == 0u) /* MinPulseWidth <= 50 ns */
 190:Generated_Source\PSoC5/ADC_SAR_1.c ****         ADC_SAR_1_SAR_CSR5_REG &= (uint8)~ADC_SAR_1_SAR_DLY_INC;
 191:Generated_Source\PSoC5/ADC_SAR_1.c ****     #else /* Set High non-overlap delay for sampling clock signals (for <500KSPS)*/
 192:Generated_Source\PSoC5/ADC_SAR_1.c ****         ADC_SAR_1_SAR_CSR5_REG |= ADC_SAR_1_SAR_DLY_INC;
 182              		.loc 1 192 0
 183 0050 194A     		ldr	r2, .L9+16
 184 0052 194B     		ldr	r3, .L9+16
 185 0054 1B78     		ldrb	r3, [r3]
 186 0056 DBB2     		uxtb	r3, r3
 187 0058 43F04003 		orr	r3, r3, #64
 188 005c DBB2     		uxtb	r3, r3
 189 005e 1370     		strb	r3, [r2]
 193:Generated_Source\PSoC5/ADC_SAR_1.c ****     #endif /* ADC_SAR_1_HIGH_POWER_PULSE == 0u */
 194:Generated_Source\PSoC5/ADC_SAR_1.c **** 
 195:Generated_Source\PSoC5/ADC_SAR_1.c ****     /* Increase comparator latch enable delay by 20%, 
 196:Generated_Source\PSoC5/ADC_SAR_1.c ****     *  Increase comparator bias current by 30% without impacting delaysDelay 
 197:Generated_Source\PSoC5/ADC_SAR_1.c ****     *  Default for 1MSPS) 
 198:Generated_Source\PSoC5/ADC_SAR_1.c ****     */
 199:Generated_Source\PSoC5/ADC_SAR_1.c ****     #if(ADC_SAR_1_HIGH_POWER_PULSE == 0u)    /* MinPulseWidth <= 50 ns */
 200:Generated_Source\PSoC5/ADC_SAR_1.c ****         ADC_SAR_1_SAR_CSR5_REG |= ADC_SAR_1_SAR_SEL_CSEL_DFT_CHAR;
 201:Generated_Source\PSoC5/ADC_SAR_1.c ****     #else /* for <500ksps */
 202:Generated_Source\PSoC5/ADC_SAR_1.c ****         ADC_SAR_1_SAR_CSR5_REG &= (uint8)~ADC_SAR_1_SAR_SEL_CSEL_DFT_CHAR;
 190              		.loc 1 202 0
 191 0060 154A     		ldr	r2, .L9+16
 192 0062 154B     		ldr	r3, .L9+16
 193 0064 1B78     		ldrb	r3, [r3]
 194 0066 DBB2     		uxtb	r3, r3
 195 0068 23F00303 		bic	r3, r3, #3
 196 006c DBB2     		uxtb	r3, r3
 197 006e 1370     		strb	r3, [r2]
ARM GAS  C:\Users\ben\AppData\Local\Temp\cc4JC7lV.s 			page 8


 203:Generated_Source\PSoC5/ADC_SAR_1.c ****     #endif /* ADC_SAR_1_HIGH_POWER_PULSE == 0u */
 204:Generated_Source\PSoC5/ADC_SAR_1.c **** 
 205:Generated_Source\PSoC5/ADC_SAR_1.c ****     /* Set default power and other configurations for control register 0 in multiple lines */
 206:Generated_Source\PSoC5/ADC_SAR_1.c ****     ADC_SAR_1_SAR_CSR0_REG = (uint8)((uint8)ADC_SAR_1_DEFAULT_POWER << ADC_SAR_1_SAR_POWER_SHIFT)
 198              		.loc 1 206 0
 199 0070 124B     		ldr	r3, .L9+20
 200 0072 CE22     		movs	r2, #206
 201 0074 1A70     		strb	r2, [r3]
 207:Generated_Source\PSoC5/ADC_SAR_1.c ****     /* SAR_HIZ_CLEAR:   Should not be used for LP */
 208:Generated_Source\PSoC5/ADC_SAR_1.c ****     #if ((CY_PSOC5LP) || (ADC_SAR_1_DEFAULT_REFERENCE != ADC_SAR_1__EXT_REF))
 209:Generated_Source\PSoC5/ADC_SAR_1.c ****         | ADC_SAR_1_SAR_HIZ_CLEAR
 210:Generated_Source\PSoC5/ADC_SAR_1.c ****     #endif /* SAR_HIZ_CLEAR */
 211:Generated_Source\PSoC5/ADC_SAR_1.c ****     /*Set Convertion mode */
 212:Generated_Source\PSoC5/ADC_SAR_1.c ****     #if(ADC_SAR_1_DEFAULT_CONV_MODE != ADC_SAR_1__FREE_RUNNING)      /* If triggered mode */
 213:Generated_Source\PSoC5/ADC_SAR_1.c ****         | ADC_SAR_1_SAR_MX_SOF_UDB           /* source: UDB */
 214:Generated_Source\PSoC5/ADC_SAR_1.c ****         | ADC_SAR_1_SAR_SOF_MODE_EDGE        /* Set edge-sensitive sof source */
 215:Generated_Source\PSoC5/ADC_SAR_1.c ****     #endif /* ADC_SAR_1_DEFAULT_CONV_MODE */
 216:Generated_Source\PSoC5/ADC_SAR_1.c ****     ; /* end of multiple line initialization */
 217:Generated_Source\PSoC5/ADC_SAR_1.c **** 
 218:Generated_Source\PSoC5/ADC_SAR_1.c ****     ADC_SAR_1_SAR_TR0_REG = ADC_SAR_1_SAR_CAP_TRIM_2;
 202              		.loc 1 218 0
 203 0076 124B     		ldr	r3, .L9+24
 204 0078 0222     		movs	r2, #2
 205 007a 1A70     		strb	r2, [r3]
 219:Generated_Source\PSoC5/ADC_SAR_1.c **** 
 220:Generated_Source\PSoC5/ADC_SAR_1.c ****     /* Enable clock for SAR ADC*/
 221:Generated_Source\PSoC5/ADC_SAR_1.c ****     ADC_SAR_1_SAR_CLK_REG |= ADC_SAR_1_SAR_MX_CLK_EN;
 206              		.loc 1 221 0
 207 007c 114A     		ldr	r2, .L9+28
 208 007e 114B     		ldr	r3, .L9+28
 209 0080 1B78     		ldrb	r3, [r3]
 210 0082 DBB2     		uxtb	r3, r3
 211 0084 43F00803 		orr	r3, r3, #8
 212 0088 DBB2     		uxtb	r3, r3
 213 008a 1370     		strb	r3, [r2]
 222:Generated_Source\PSoC5/ADC_SAR_1.c **** 
 223:Generated_Source\PSoC5/ADC_SAR_1.c ****     CyDelayUs(10u); /* The block is ready to use 10 us after the enable signal is set high. */
 214              		.loc 1 223 0
 215 008c 0A20     		movs	r0, #10
 216 008e FFF7FEFF 		bl	CyDelayUs
 224:Generated_Source\PSoC5/ADC_SAR_1.c **** 
 225:Generated_Source\PSoC5/ADC_SAR_1.c ****     #if(ADC_SAR_1_IRQ_REMOVE == 0u)
 226:Generated_Source\PSoC5/ADC_SAR_1.c ****         /* Clear a pending interrupt */
 227:Generated_Source\PSoC5/ADC_SAR_1.c ****         CyIntClearPending(ADC_SAR_1_INTC_NUMBER);
 217              		.loc 1 227 0
 218 0092 0D4B     		ldr	r3, .L9+32
 219 0094 0122     		movs	r2, #1
 220 0096 1A60     		str	r2, [r3]
 228:Generated_Source\PSoC5/ADC_SAR_1.c ****     #endif   /* End ADC_SAR_1_IRQ_REMOVE */
 229:Generated_Source\PSoC5/ADC_SAR_1.c **** 
 230:Generated_Source\PSoC5/ADC_SAR_1.c ****     CyExitCriticalSection(enableInterrupts);
 221              		.loc 1 230 0
 222 0098 FB79     		ldrb	r3, [r7, #7]	@ zero_extendqisi2
 223 009a 1846     		mov	r0, r3
 224 009c FFF7FEFF 		bl	CyExitCriticalSection
 231:Generated_Source\PSoC5/ADC_SAR_1.c **** }
 225              		.loc 1 231 0
ARM GAS  C:\Users\ben\AppData\Local\Temp\cc4JC7lV.s 			page 9


 226 00a0 0837     		adds	r7, r7, #8
 227              		.cfi_def_cfa_offset 8
 228 00a2 BD46     		mov	sp, r7
 229              		.cfi_def_cfa_register 13
 230              		@ sp needed
 231 00a4 80BD     		pop	{r7, pc}
 232              	.L10:
 233 00a6 00BF     		.align	2
 234              	.L9:
 235 00a8 AB430040 		.word	1073759147
 236 00ac BB430040 		.word	1073759163
 237 00b0 0B590040 		.word	1073764619
 238 00b4 0E590040 		.word	1073764622
 239 00b8 0D590040 		.word	1073764621
 240 00bc 08590040 		.word	1073764616
 241 00c0 16460040 		.word	1073759766
 242 00c4 2F5B0040 		.word	1073765167
 243 00c8 80E200E0 		.word	-536812928
 244              		.cfi_endproc
 245              	.LFE2:
 246              		.size	ADC_SAR_1_Enable, .-ADC_SAR_1_Enable
 247              		.section	.text.ADC_SAR_1_Stop,"ax",%progbits
 248              		.align	2
 249              		.global	ADC_SAR_1_Stop
 250              		.thumb
 251              		.thumb_func
 252              		.type	ADC_SAR_1_Stop, %function
 253              	ADC_SAR_1_Stop:
 254              	.LFB3:
 232:Generated_Source\PSoC5/ADC_SAR_1.c **** 
 233:Generated_Source\PSoC5/ADC_SAR_1.c **** 
 234:Generated_Source\PSoC5/ADC_SAR_1.c **** /*******************************************************************************
 235:Generated_Source\PSoC5/ADC_SAR_1.c **** * Function Name: ADC_SAR_1_Stop
 236:Generated_Source\PSoC5/ADC_SAR_1.c **** ********************************************************************************
 237:Generated_Source\PSoC5/ADC_SAR_1.c **** *
 238:Generated_Source\PSoC5/ADC_SAR_1.c **** * Summary:
 239:Generated_Source\PSoC5/ADC_SAR_1.c **** *  Stops ADC conversions and puts the ADC into its lowest power mode.
 240:Generated_Source\PSoC5/ADC_SAR_1.c **** *
 241:Generated_Source\PSoC5/ADC_SAR_1.c **** * Parameters:
 242:Generated_Source\PSoC5/ADC_SAR_1.c **** *  None.
 243:Generated_Source\PSoC5/ADC_SAR_1.c **** *
 244:Generated_Source\PSoC5/ADC_SAR_1.c **** * Return:
 245:Generated_Source\PSoC5/ADC_SAR_1.c **** *  None.
 246:Generated_Source\PSoC5/ADC_SAR_1.c **** *
 247:Generated_Source\PSoC5/ADC_SAR_1.c **** *******************************************************************************/
 248:Generated_Source\PSoC5/ADC_SAR_1.c **** void ADC_SAR_1_Stop(void)
 249:Generated_Source\PSoC5/ADC_SAR_1.c **** {
 255              		.loc 1 249 0
 256              		.cfi_startproc
 257              		@ args = 0, pretend = 0, frame = 8
 258              		@ frame_needed = 1, uses_anonymous_args = 0
 259 0000 80B5     		push	{r7, lr}
 260              		.cfi_def_cfa_offset 8
 261              		.cfi_offset 7, -8
 262              		.cfi_offset 14, -4
 263 0002 82B0     		sub	sp, sp, #8
 264              		.cfi_def_cfa_offset 16
ARM GAS  C:\Users\ben\AppData\Local\Temp\cc4JC7lV.s 			page 10


 265 0004 00AF     		add	r7, sp, #0
 266              		.cfi_def_cfa_register 7
 250:Generated_Source\PSoC5/ADC_SAR_1.c ****     uint8 enableInterrupts;
 251:Generated_Source\PSoC5/ADC_SAR_1.c ****     enableInterrupts = CyEnterCriticalSection();
 267              		.loc 1 251 0
 268 0006 FFF7FEFF 		bl	CyEnterCriticalSection
 269 000a 0346     		mov	r3, r0
 270 000c FB71     		strb	r3, [r7, #7]
 252:Generated_Source\PSoC5/ADC_SAR_1.c **** 
 253:Generated_Source\PSoC5/ADC_SAR_1.c ****     /* Stop all conversions */
 254:Generated_Source\PSoC5/ADC_SAR_1.c ****     ADC_SAR_1_SAR_CSR0_REG &= (uint8)~ADC_SAR_1_SAR_SOF_START_CONV;
 271              		.loc 1 254 0
 272 000e 0F4A     		ldr	r2, .L12
 273 0010 0E4B     		ldr	r3, .L12
 274 0012 1B78     		ldrb	r3, [r3]
 275 0014 DBB2     		uxtb	r3, r3
 276 0016 23F00103 		bic	r3, r3, #1
 277 001a DBB2     		uxtb	r3, r3
 278 001c 1370     		strb	r3, [r2]
 255:Generated_Source\PSoC5/ADC_SAR_1.c ****     /* Disable the SAR ADC block in Active Power Mode */
 256:Generated_Source\PSoC5/ADC_SAR_1.c ****     ADC_SAR_1_PWRMGR_SAR_REG &= (uint8)~ADC_SAR_1_ACT_PWR_SAR_EN;
 279              		.loc 1 256 0
 280 001e 0C4A     		ldr	r2, .L12+4
 281 0020 0B4B     		ldr	r3, .L12+4
 282 0022 1B78     		ldrb	r3, [r3]
 283 0024 DBB2     		uxtb	r3, r3
 284 0026 23F00203 		bic	r3, r3, #2
 285 002a DBB2     		uxtb	r3, r3
 286 002c 1370     		strb	r3, [r2]
 257:Generated_Source\PSoC5/ADC_SAR_1.c ****     /* Disable the SAR ADC in Standby Power Mode */
 258:Generated_Source\PSoC5/ADC_SAR_1.c ****     ADC_SAR_1_STBY_PWRMGR_SAR_REG &= (uint8)~ADC_SAR_1_STBY_PWR_SAR_EN;
 287              		.loc 1 258 0
 288 002e 094A     		ldr	r2, .L12+8
 289 0030 084B     		ldr	r3, .L12+8
 290 0032 1B78     		ldrb	r3, [r3]
 291 0034 DBB2     		uxtb	r3, r3
 292 0036 23F00203 		bic	r3, r3, #2
 293 003a DBB2     		uxtb	r3, r3
 294 003c 1370     		strb	r3, [r2]
 259:Generated_Source\PSoC5/ADC_SAR_1.c **** 
 260:Generated_Source\PSoC5/ADC_SAR_1.c ****     /* This is only valid if there is an internal clock */
 261:Generated_Source\PSoC5/ADC_SAR_1.c ****     #if(ADC_SAR_1_DEFAULT_INTERNAL_CLK)
 262:Generated_Source\PSoC5/ADC_SAR_1.c ****         ADC_SAR_1_PWRMGR_CLK_REG &= (uint8)~ADC_SAR_1_ACT_PWR_CLK_EN;
 263:Generated_Source\PSoC5/ADC_SAR_1.c ****         ADC_SAR_1_STBY_PWRMGR_CLK_REG &= (uint8)~ADC_SAR_1_STBY_PWR_CLK_EN;
 264:Generated_Source\PSoC5/ADC_SAR_1.c ****     #endif /* End ADC_SAR_1_DEFAULT_INTERNAL_CLK */
 265:Generated_Source\PSoC5/ADC_SAR_1.c **** 
 266:Generated_Source\PSoC5/ADC_SAR_1.c ****     CyExitCriticalSection(enableInterrupts);
 295              		.loc 1 266 0
 296 003e FB79     		ldrb	r3, [r7, #7]	@ zero_extendqisi2
 297 0040 1846     		mov	r0, r3
 298 0042 FFF7FEFF 		bl	CyExitCriticalSection
 267:Generated_Source\PSoC5/ADC_SAR_1.c **** 
 268:Generated_Source\PSoC5/ADC_SAR_1.c **** }
 299              		.loc 1 268 0
 300 0046 0837     		adds	r7, r7, #8
 301              		.cfi_def_cfa_offset 8
 302 0048 BD46     		mov	sp, r7
ARM GAS  C:\Users\ben\AppData\Local\Temp\cc4JC7lV.s 			page 11


 303              		.cfi_def_cfa_register 13
 304              		@ sp needed
 305 004a 80BD     		pop	{r7, pc}
 306              	.L13:
 307              		.align	2
 308              	.L12:
 309 004c 08590040 		.word	1073764616
 310 0050 AB430040 		.word	1073759147
 311 0054 BB430040 		.word	1073759163
 312              		.cfi_endproc
 313              	.LFE3:
 314              		.size	ADC_SAR_1_Stop, .-ADC_SAR_1_Stop
 315              		.section	.text.ADC_SAR_1_SetPower,"ax",%progbits
 316              		.align	2
 317              		.global	ADC_SAR_1_SetPower
 318              		.thumb
 319              		.thumb_func
 320              		.type	ADC_SAR_1_SetPower, %function
 321              	ADC_SAR_1_SetPower:
 322              	.LFB4:
 269:Generated_Source\PSoC5/ADC_SAR_1.c **** 
 270:Generated_Source\PSoC5/ADC_SAR_1.c **** 
 271:Generated_Source\PSoC5/ADC_SAR_1.c **** /*******************************************************************************
 272:Generated_Source\PSoC5/ADC_SAR_1.c **** * Function Name: ADC_SAR_1_SetPower
 273:Generated_Source\PSoC5/ADC_SAR_1.c **** ********************************************************************************
 274:Generated_Source\PSoC5/ADC_SAR_1.c **** *
 275:Generated_Source\PSoC5/ADC_SAR_1.c **** * Summary:
 276:Generated_Source\PSoC5/ADC_SAR_1.c **** *  Sets the operational power of the ADC. You should use the higher power
 277:Generated_Source\PSoC5/ADC_SAR_1.c **** *  settings with faster clock speeds.
 278:Generated_Source\PSoC5/ADC_SAR_1.c **** *
 279:Generated_Source\PSoC5/ADC_SAR_1.c **** * Parameters:
 280:Generated_Source\PSoC5/ADC_SAR_1.c **** *  power:  Power setting for ADC
 281:Generated_Source\PSoC5/ADC_SAR_1.c **** *  0 ->    Normal
 282:Generated_Source\PSoC5/ADC_SAR_1.c **** *  1 ->    Medium power
 283:Generated_Source\PSoC5/ADC_SAR_1.c **** *  2 ->    1.25 power
 284:Generated_Source\PSoC5/ADC_SAR_1.c **** *  3 ->    Minimum power.
 285:Generated_Source\PSoC5/ADC_SAR_1.c **** *
 286:Generated_Source\PSoC5/ADC_SAR_1.c **** * Return:
 287:Generated_Source\PSoC5/ADC_SAR_1.c **** *  None.
 288:Generated_Source\PSoC5/ADC_SAR_1.c **** *
 289:Generated_Source\PSoC5/ADC_SAR_1.c **** *******************************************************************************/
 290:Generated_Source\PSoC5/ADC_SAR_1.c **** void ADC_SAR_1_SetPower(uint8 power)
 291:Generated_Source\PSoC5/ADC_SAR_1.c **** {
 323              		.loc 1 291 0
 324              		.cfi_startproc
 325              		@ args = 0, pretend = 0, frame = 16
 326              		@ frame_needed = 1, uses_anonymous_args = 0
 327              		@ link register save eliminated.
 328 0000 80B4     		push	{r7}
 329              		.cfi_def_cfa_offset 4
 330              		.cfi_offset 7, -4
 331 0002 85B0     		sub	sp, sp, #20
 332              		.cfi_def_cfa_offset 24
 333 0004 00AF     		add	r7, sp, #0
 334              		.cfi_def_cfa_register 7
 335 0006 0346     		mov	r3, r0
 336 0008 FB71     		strb	r3, [r7, #7]
ARM GAS  C:\Users\ben\AppData\Local\Temp\cc4JC7lV.s 			page 12


 292:Generated_Source\PSoC5/ADC_SAR_1.c ****     uint8 tmpReg;
 293:Generated_Source\PSoC5/ADC_SAR_1.c **** 
 294:Generated_Source\PSoC5/ADC_SAR_1.c ****     /* mask off invalid power settings */
 295:Generated_Source\PSoC5/ADC_SAR_1.c ****     power &= ADC_SAR_1_SAR_API_POWER_MASK;
 337              		.loc 1 295 0
 338 000a FB79     		ldrb	r3, [r7, #7]
 339 000c 03F00303 		and	r3, r3, #3
 340 0010 FB71     		strb	r3, [r7, #7]
 296:Generated_Source\PSoC5/ADC_SAR_1.c **** 
 297:Generated_Source\PSoC5/ADC_SAR_1.c ****     /* Set Power parameter  */
 298:Generated_Source\PSoC5/ADC_SAR_1.c ****     tmpReg = ADC_SAR_1_SAR_CSR0_REG & (uint8)~ADC_SAR_1_SAR_POWER_MASK;
 341              		.loc 1 298 0
 342 0012 0A4B     		ldr	r3, .L15
 343 0014 1B78     		ldrb	r3, [r3]
 344 0016 DBB2     		uxtb	r3, r3
 345 0018 03F03F03 		and	r3, r3, #63
 346 001c FB73     		strb	r3, [r7, #15]
 299:Generated_Source\PSoC5/ADC_SAR_1.c ****     tmpReg |= (uint8)(power << ADC_SAR_1_SAR_POWER_SHIFT);
 347              		.loc 1 299 0
 348 001e FB79     		ldrb	r3, [r7, #7]
 349 0020 9B01     		lsls	r3, r3, #6
 350 0022 DAB2     		uxtb	r2, r3
 351 0024 FB7B     		ldrb	r3, [r7, #15]
 352 0026 1343     		orrs	r3, r3, r2
 353 0028 FB73     		strb	r3, [r7, #15]
 300:Generated_Source\PSoC5/ADC_SAR_1.c ****     ADC_SAR_1_SAR_CSR0_REG = tmpReg;
 354              		.loc 1 300 0
 355 002a 044A     		ldr	r2, .L15
 356 002c FB7B     		ldrb	r3, [r7, #15]
 357 002e 1370     		strb	r3, [r2]
 301:Generated_Source\PSoC5/ADC_SAR_1.c **** }
 358              		.loc 1 301 0
 359 0030 1437     		adds	r7, r7, #20
 360              		.cfi_def_cfa_offset 4
 361 0032 BD46     		mov	sp, r7
 362              		.cfi_def_cfa_register 13
 363              		@ sp needed
 364 0034 5DF8047B 		ldr	r7, [sp], #4
 365              		.cfi_restore 7
 366              		.cfi_def_cfa_offset 0
 367 0038 7047     		bx	lr
 368              	.L16:
 369 003a 00BF     		.align	2
 370              	.L15:
 371 003c 08590040 		.word	1073764616
 372              		.cfi_endproc
 373              	.LFE4:
 374              		.size	ADC_SAR_1_SetPower, .-ADC_SAR_1_SetPower
 375              		.section	.text.ADC_SAR_1_SetResolution,"ax",%progbits
 376              		.align	2
 377              		.global	ADC_SAR_1_SetResolution
 378              		.thumb
 379              		.thumb_func
 380              		.type	ADC_SAR_1_SetResolution, %function
 381              	ADC_SAR_1_SetResolution:
 382              	.LFB5:
 302:Generated_Source\PSoC5/ADC_SAR_1.c **** 
ARM GAS  C:\Users\ben\AppData\Local\Temp\cc4JC7lV.s 			page 13


 303:Generated_Source\PSoC5/ADC_SAR_1.c **** 
 304:Generated_Source\PSoC5/ADC_SAR_1.c **** /*******************************************************************************
 305:Generated_Source\PSoC5/ADC_SAR_1.c **** * Function Name: ADC_SAR_1_SetResolution
 306:Generated_Source\PSoC5/ADC_SAR_1.c **** ********************************************************************************
 307:Generated_Source\PSoC5/ADC_SAR_1.c **** *
 308:Generated_Source\PSoC5/ADC_SAR_1.c **** * Summary:
 309:Generated_Source\PSoC5/ADC_SAR_1.c **** *  Sets the Relution of the SAR.
 310:Generated_Source\PSoC5/ADC_SAR_1.c **** *
 311:Generated_Source\PSoC5/ADC_SAR_1.c **** * Parameters:
 312:Generated_Source\PSoC5/ADC_SAR_1.c **** *  resolution:
 313:Generated_Source\PSoC5/ADC_SAR_1.c **** *  12 ->    RES12
 314:Generated_Source\PSoC5/ADC_SAR_1.c **** *  10 ->    RES10
 315:Generated_Source\PSoC5/ADC_SAR_1.c **** *  8  ->    RES8
 316:Generated_Source\PSoC5/ADC_SAR_1.c **** *
 317:Generated_Source\PSoC5/ADC_SAR_1.c **** * Return:
 318:Generated_Source\PSoC5/ADC_SAR_1.c **** *  None.
 319:Generated_Source\PSoC5/ADC_SAR_1.c **** *
 320:Generated_Source\PSoC5/ADC_SAR_1.c **** * Side Effects:
 321:Generated_Source\PSoC5/ADC_SAR_1.c **** *  The ADC resolution cannot be changed during a conversion cycle. The
 322:Generated_Source\PSoC5/ADC_SAR_1.c **** *  recommended best practice is to stop conversions with
 323:Generated_Source\PSoC5/ADC_SAR_1.c **** *  ADC_StopConvert(), change the resolution, then restart the
 324:Generated_Source\PSoC5/ADC_SAR_1.c **** *  conversions with ADC_StartConvert().
 325:Generated_Source\PSoC5/ADC_SAR_1.c **** *  If you decide not to stop conversions before calling this API, you
 326:Generated_Source\PSoC5/ADC_SAR_1.c **** *  should use ADC_IsEndConversion() to wait until conversion is complete
 327:Generated_Source\PSoC5/ADC_SAR_1.c **** *  before changing the resolution.
 328:Generated_Source\PSoC5/ADC_SAR_1.c **** *  If you call ADC_SetResolution() during a conversion, the resolution will
 329:Generated_Source\PSoC5/ADC_SAR_1.c **** *  not be changed until the current conversion is complete. Data will not be
 330:Generated_Source\PSoC5/ADC_SAR_1.c **** *  available in the new resolution for another 6 + "New Resolution(in bits)"
 331:Generated_Source\PSoC5/ADC_SAR_1.c **** *  clock cycles.
 332:Generated_Source\PSoC5/ADC_SAR_1.c **** *  You may need add a delay of this number of clock cycles after
 333:Generated_Source\PSoC5/ADC_SAR_1.c **** *  ADC_SetResolution() is called before data is valid again.
 334:Generated_Source\PSoC5/ADC_SAR_1.c **** *  Affects ADC_CountsTo_Volts(), ADC_CountsTo_mVolts(), and
 335:Generated_Source\PSoC5/ADC_SAR_1.c **** *  ADC_CountsTo_uVolts() by calculating the correct conversion between ADC
 336:Generated_Source\PSoC5/ADC_SAR_1.c **** *  counts and the applied input voltage. Calculation depends on resolution,
 337:Generated_Source\PSoC5/ADC_SAR_1.c **** *  input range, and voltage reference.
 338:Generated_Source\PSoC5/ADC_SAR_1.c **** *
 339:Generated_Source\PSoC5/ADC_SAR_1.c **** *******************************************************************************/
 340:Generated_Source\PSoC5/ADC_SAR_1.c **** void ADC_SAR_1_SetResolution(uint8 resolution)
 341:Generated_Source\PSoC5/ADC_SAR_1.c **** {
 383              		.loc 1 341 0
 384              		.cfi_startproc
 385              		@ args = 0, pretend = 0, frame = 16
 386              		@ frame_needed = 1, uses_anonymous_args = 0
 387 0000 80B5     		push	{r7, lr}
 388              		.cfi_def_cfa_offset 8
 389              		.cfi_offset 7, -8
 390              		.cfi_offset 14, -4
 391 0002 84B0     		sub	sp, sp, #16
 392              		.cfi_def_cfa_offset 24
 393 0004 00AF     		add	r7, sp, #0
 394              		.cfi_def_cfa_register 7
 395 0006 0346     		mov	r3, r0
 396 0008 FB71     		strb	r3, [r7, #7]
 342:Generated_Source\PSoC5/ADC_SAR_1.c ****     uint8 tmpReg;
 343:Generated_Source\PSoC5/ADC_SAR_1.c **** 
 344:Generated_Source\PSoC5/ADC_SAR_1.c ****     /* Set SAR ADC resolution and sample width: 18 conversion cycles at 12bits + 1 gap */
 345:Generated_Source\PSoC5/ADC_SAR_1.c ****     switch (resolution)
ARM GAS  C:\Users\ben\AppData\Local\Temp\cc4JC7lV.s 			page 14


 397              		.loc 1 345 0
 398 000a FB79     		ldrb	r3, [r7, #7]	@ zero_extendqisi2
 399 000c 0A2B     		cmp	r3, #10
 400 000e 07D0     		beq	.L19
 401 0010 0C2B     		cmp	r3, #12
 402 0012 02D0     		beq	.L20
 403 0014 082B     		cmp	r3, #8
 404 0016 06D0     		beq	.L21
 405 0018 08E0     		b	.L23
 406              	.L20:
 346:Generated_Source\PSoC5/ADC_SAR_1.c ****     {
 347:Generated_Source\PSoC5/ADC_SAR_1.c ****         case (uint8)ADC_SAR_1__BITS_12:
 348:Generated_Source\PSoC5/ADC_SAR_1.c ****             tmpReg = ADC_SAR_1_SAR_RESOLUTION_12BIT | ADC_SAR_1_SAR_SAMPLE_WIDTH;
 407              		.loc 1 348 0
 408 001a C223     		movs	r3, #194
 409 001c FB73     		strb	r3, [r7, #15]
 349:Generated_Source\PSoC5/ADC_SAR_1.c ****             break;
 410              		.loc 1 349 0
 411 001e 08E0     		b	.L22
 412              	.L19:
 350:Generated_Source\PSoC5/ADC_SAR_1.c ****         case (uint8)ADC_SAR_1__BITS_10:
 351:Generated_Source\PSoC5/ADC_SAR_1.c ****             tmpReg = ADC_SAR_1_SAR_RESOLUTION_10BIT | ADC_SAR_1_SAR_SAMPLE_WIDTH;
 413              		.loc 1 351 0
 414 0020 8223     		movs	r3, #130
 415 0022 FB73     		strb	r3, [r7, #15]
 352:Generated_Source\PSoC5/ADC_SAR_1.c ****             break;
 416              		.loc 1 352 0
 417 0024 05E0     		b	.L22
 418              	.L21:
 353:Generated_Source\PSoC5/ADC_SAR_1.c ****         case (uint8)ADC_SAR_1__BITS_8:
 354:Generated_Source\PSoC5/ADC_SAR_1.c ****             tmpReg = ADC_SAR_1_SAR_RESOLUTION_8BIT | ADC_SAR_1_SAR_SAMPLE_WIDTH;
 419              		.loc 1 354 0
 420 0026 4223     		movs	r3, #66
 421 0028 FB73     		strb	r3, [r7, #15]
 355:Generated_Source\PSoC5/ADC_SAR_1.c ****             break;
 422              		.loc 1 355 0
 423 002a 02E0     		b	.L22
 424              	.L23:
 356:Generated_Source\PSoC5/ADC_SAR_1.c ****         default:
 357:Generated_Source\PSoC5/ADC_SAR_1.c ****             tmpReg = ADC_SAR_1_SAR_RESOLUTION_12BIT | ADC_SAR_1_SAR_SAMPLE_WIDTH;
 425              		.loc 1 357 0
 426 002c C223     		movs	r3, #194
 427 002e FB73     		strb	r3, [r7, #15]
 358:Generated_Source\PSoC5/ADC_SAR_1.c ****             /* Halt CPU in debug mode if resolution is out of valid range */
 359:Generated_Source\PSoC5/ADC_SAR_1.c ****             CYASSERT(0u != 0u);
 360:Generated_Source\PSoC5/ADC_SAR_1.c ****             break;
 428              		.loc 1 360 0
 429 0030 00BF     		nop
 430              	.L22:
 361:Generated_Source\PSoC5/ADC_SAR_1.c ****     }
 362:Generated_Source\PSoC5/ADC_SAR_1.c ****     ADC_SAR_1_SAR_CSR2_REG = tmpReg;
 431              		.loc 1 362 0
 432 0032 054A     		ldr	r2, .L24
 433 0034 FB7B     		ldrb	r3, [r7, #15]
 434 0036 1370     		strb	r3, [r2]
 363:Generated_Source\PSoC5/ADC_SAR_1.c **** 
 364:Generated_Source\PSoC5/ADC_SAR_1.c ****      /* Calculate gain for convert counts to volts */
ARM GAS  C:\Users\ben\AppData\Local\Temp\cc4JC7lV.s 			page 15


 365:Generated_Source\PSoC5/ADC_SAR_1.c ****     ADC_SAR_1_CalcGain(resolution);
 435              		.loc 1 365 0
 436 0038 FB79     		ldrb	r3, [r7, #7]	@ zero_extendqisi2
 437 003a 1846     		mov	r0, r3
 438 003c FFF7FEFF 		bl	ADC_SAR_1_CalcGain
 366:Generated_Source\PSoC5/ADC_SAR_1.c **** }
 439              		.loc 1 366 0
 440 0040 1037     		adds	r7, r7, #16
 441              		.cfi_def_cfa_offset 8
 442 0042 BD46     		mov	sp, r7
 443              		.cfi_def_cfa_register 13
 444              		@ sp needed
 445 0044 80BD     		pop	{r7, pc}
 446              	.L25:
 447 0046 00BF     		.align	2
 448              	.L24:
 449 0048 0A590040 		.word	1073764618
 450              		.cfi_endproc
 451              	.LFE5:
 452              		.size	ADC_SAR_1_SetResolution, .-ADC_SAR_1_SetResolution
 453              		.section	.text.ADC_SAR_1_IsEndConversion,"ax",%progbits
 454              		.align	2
 455              		.global	ADC_SAR_1_IsEndConversion
 456              		.thumb
 457              		.thumb_func
 458              		.type	ADC_SAR_1_IsEndConversion, %function
 459              	ADC_SAR_1_IsEndConversion:
 460              	.LFB6:
 367:Generated_Source\PSoC5/ADC_SAR_1.c **** 
 368:Generated_Source\PSoC5/ADC_SAR_1.c **** 
 369:Generated_Source\PSoC5/ADC_SAR_1.c **** #if(ADC_SAR_1_DEFAULT_CONV_MODE != ADC_SAR_1__HARDWARE_TRIGGER)
 370:Generated_Source\PSoC5/ADC_SAR_1.c **** 
 371:Generated_Source\PSoC5/ADC_SAR_1.c **** 
 372:Generated_Source\PSoC5/ADC_SAR_1.c ****     /*******************************************************************************
 373:Generated_Source\PSoC5/ADC_SAR_1.c ****     * Function Name: ADC_SAR_1_StartConvert
 374:Generated_Source\PSoC5/ADC_SAR_1.c ****     ********************************************************************************
 375:Generated_Source\PSoC5/ADC_SAR_1.c ****     *
 376:Generated_Source\PSoC5/ADC_SAR_1.c ****     * Summary:
 377:Generated_Source\PSoC5/ADC_SAR_1.c ****     *  Forces the ADC to initiate a conversion. In free-running mode, the ADC runs
 378:Generated_Source\PSoC5/ADC_SAR_1.c ****     *  continuously. In software trigger mode, the function also acts as a software
 379:Generated_Source\PSoC5/ADC_SAR_1.c ****     *  version of the SOC and every conversion must be triggered by
 380:Generated_Source\PSoC5/ADC_SAR_1.c ****     *  ADC_SAR_1_StartConvert(). This function is not available when the
 381:Generated_Source\PSoC5/ADC_SAR_1.c ****     *  Hardware Trigger sample mode is selected.
 382:Generated_Source\PSoC5/ADC_SAR_1.c ****     *
 383:Generated_Source\PSoC5/ADC_SAR_1.c ****     * Parameters:
 384:Generated_Source\PSoC5/ADC_SAR_1.c ****     *  None.
 385:Generated_Source\PSoC5/ADC_SAR_1.c ****     *
 386:Generated_Source\PSoC5/ADC_SAR_1.c ****     * Return:
 387:Generated_Source\PSoC5/ADC_SAR_1.c ****     *  None.
 388:Generated_Source\PSoC5/ADC_SAR_1.c ****     *
 389:Generated_Source\PSoC5/ADC_SAR_1.c ****     * Theory:
 390:Generated_Source\PSoC5/ADC_SAR_1.c ****     *  Forces the ADC to initiate a conversion. In Free Running mode, the ADC will
 391:Generated_Source\PSoC5/ADC_SAR_1.c ****     *  run continuously. In a software trigger mode the function also acts as a
 392:Generated_Source\PSoC5/ADC_SAR_1.c ****     *  software version of the SOC. Here every conversion has to be triggered by
 393:Generated_Source\PSoC5/ADC_SAR_1.c ****     *  the routine. This writes into the SOC bit in SAR_CTRL reg.
 394:Generated_Source\PSoC5/ADC_SAR_1.c ****     *
 395:Generated_Source\PSoC5/ADC_SAR_1.c ****     * Side Effects:
ARM GAS  C:\Users\ben\AppData\Local\Temp\cc4JC7lV.s 			page 16


 396:Generated_Source\PSoC5/ADC_SAR_1.c ****     *  In a software trigger mode the function switches source for SOF from the
 397:Generated_Source\PSoC5/ADC_SAR_1.c ****     *  external pin to the internal SOF generation. Application should not call
 398:Generated_Source\PSoC5/ADC_SAR_1.c ****     *  StartConvert if external source used for SOF.
 399:Generated_Source\PSoC5/ADC_SAR_1.c ****     *
 400:Generated_Source\PSoC5/ADC_SAR_1.c ****     *******************************************************************************/
 401:Generated_Source\PSoC5/ADC_SAR_1.c ****     void ADC_SAR_1_StartConvert(void)
 402:Generated_Source\PSoC5/ADC_SAR_1.c ****     {
 403:Generated_Source\PSoC5/ADC_SAR_1.c ****         #if(ADC_SAR_1_DEFAULT_CONV_MODE != ADC_SAR_1__FREE_RUNNING)  /* If software triggered mode 
 404:Generated_Source\PSoC5/ADC_SAR_1.c ****             ADC_SAR_1_SAR_CSR0_REG &= (uint8)~ADC_SAR_1_SAR_MX_SOF_UDB;   /* source: SOF bit */
 405:Generated_Source\PSoC5/ADC_SAR_1.c ****         #endif /* End ADC_SAR_1_DEFAULT_CONV_MODE */
 406:Generated_Source\PSoC5/ADC_SAR_1.c **** 
 407:Generated_Source\PSoC5/ADC_SAR_1.c ****         /* Start the conversion */
 408:Generated_Source\PSoC5/ADC_SAR_1.c ****         ADC_SAR_1_SAR_CSR0_REG |= ADC_SAR_1_SAR_SOF_START_CONV;
 409:Generated_Source\PSoC5/ADC_SAR_1.c ****     }
 410:Generated_Source\PSoC5/ADC_SAR_1.c **** 
 411:Generated_Source\PSoC5/ADC_SAR_1.c **** 
 412:Generated_Source\PSoC5/ADC_SAR_1.c ****     /*******************************************************************************
 413:Generated_Source\PSoC5/ADC_SAR_1.c ****     * Function Name: ADC_SAR_1_StopConvert
 414:Generated_Source\PSoC5/ADC_SAR_1.c ****     ********************************************************************************
 415:Generated_Source\PSoC5/ADC_SAR_1.c ****     *
 416:Generated_Source\PSoC5/ADC_SAR_1.c ****     * Summary:
 417:Generated_Source\PSoC5/ADC_SAR_1.c ****     *  Forces the ADC to stop conversions. If a conversion is currently executing,
 418:Generated_Source\PSoC5/ADC_SAR_1.c ****     *  that conversion will complete, but no further conversions will occur. This
 419:Generated_Source\PSoC5/ADC_SAR_1.c ****     *  function is not available when the Hardware Trigger sample mode is selected.
 420:Generated_Source\PSoC5/ADC_SAR_1.c ****     *
 421:Generated_Source\PSoC5/ADC_SAR_1.c ****     * Parameters:
 422:Generated_Source\PSoC5/ADC_SAR_1.c ****     *  None.
 423:Generated_Source\PSoC5/ADC_SAR_1.c ****     *
 424:Generated_Source\PSoC5/ADC_SAR_1.c ****     * Return:
 425:Generated_Source\PSoC5/ADC_SAR_1.c ****     *  None.
 426:Generated_Source\PSoC5/ADC_SAR_1.c ****     *
 427:Generated_Source\PSoC5/ADC_SAR_1.c ****     * Theory:
 428:Generated_Source\PSoC5/ADC_SAR_1.c ****     *  Stops ADC conversion in Free Running mode.
 429:Generated_Source\PSoC5/ADC_SAR_1.c ****     *
 430:Generated_Source\PSoC5/ADC_SAR_1.c ****     * Side Effects:
 431:Generated_Source\PSoC5/ADC_SAR_1.c ****     *  In Software Trigger sample mode, this function sets a software version of the
 432:Generated_Source\PSoC5/ADC_SAR_1.c ****     *  SOC to low level and switches the SOC source to hardware SOC input.
 433:Generated_Source\PSoC5/ADC_SAR_1.c ****     *
 434:Generated_Source\PSoC5/ADC_SAR_1.c ****     *******************************************************************************/
 435:Generated_Source\PSoC5/ADC_SAR_1.c ****     void ADC_SAR_1_StopConvert(void)
 436:Generated_Source\PSoC5/ADC_SAR_1.c ****     {
 437:Generated_Source\PSoC5/ADC_SAR_1.c ****         /* Stop all conversions */
 438:Generated_Source\PSoC5/ADC_SAR_1.c ****         ADC_SAR_1_SAR_CSR0_REG &= (uint8)~ADC_SAR_1_SAR_SOF_START_CONV;
 439:Generated_Source\PSoC5/ADC_SAR_1.c **** 
 440:Generated_Source\PSoC5/ADC_SAR_1.c ****         #if(ADC_SAR_1_DEFAULT_CONV_MODE != ADC_SAR_1__FREE_RUNNING)  /* If software triggered mode 
 441:Generated_Source\PSoC5/ADC_SAR_1.c ****             /* Return source to UDB for hardware SOF signal */
 442:Generated_Source\PSoC5/ADC_SAR_1.c ****             ADC_SAR_1_SAR_CSR0_REG |= ADC_SAR_1_SAR_MX_SOF_UDB;    /* source: UDB */
 443:Generated_Source\PSoC5/ADC_SAR_1.c ****         #endif /* End ADC_SAR_1_DEFAULT_CONV_MODE */
 444:Generated_Source\PSoC5/ADC_SAR_1.c **** 
 445:Generated_Source\PSoC5/ADC_SAR_1.c ****     }
 446:Generated_Source\PSoC5/ADC_SAR_1.c **** 
 447:Generated_Source\PSoC5/ADC_SAR_1.c **** #endif /* End ADC_SAR_1_DEFAULT_CONV_MODE != ADC_SAR_1__HARDWARE_TRIGGER */
 448:Generated_Source\PSoC5/ADC_SAR_1.c **** 
 449:Generated_Source\PSoC5/ADC_SAR_1.c **** 
 450:Generated_Source\PSoC5/ADC_SAR_1.c **** /*******************************************************************************
 451:Generated_Source\PSoC5/ADC_SAR_1.c **** * Function Name: ADC_SAR_1_IsEndConversion
 452:Generated_Source\PSoC5/ADC_SAR_1.c **** ********************************************************************************
ARM GAS  C:\Users\ben\AppData\Local\Temp\cc4JC7lV.s 			page 17


 453:Generated_Source\PSoC5/ADC_SAR_1.c **** *
 454:Generated_Source\PSoC5/ADC_SAR_1.c **** * Summary:
 455:Generated_Source\PSoC5/ADC_SAR_1.c **** *  Immediately returns the status of the conversion or does not return
 456:Generated_Source\PSoC5/ADC_SAR_1.c **** *  (blocking) until the conversion completes, depending on the retMode
 457:Generated_Source\PSoC5/ADC_SAR_1.c **** *  parameter.
 458:Generated_Source\PSoC5/ADC_SAR_1.c **** *
 459:Generated_Source\PSoC5/ADC_SAR_1.c **** * Parameters:
 460:Generated_Source\PSoC5/ADC_SAR_1.c **** *  retMode:  Check conversion return mode.
 461:Generated_Source\PSoC5/ADC_SAR_1.c **** *   ADC_SAR_1_RETURN_STATUS: Immediately returns the status. If the
 462:Generated_Source\PSoC5/ADC_SAR_1.c **** *     value returned is zero, the conversion is not complete, and this function
 463:Generated_Source\PSoC5/ADC_SAR_1.c **** *     should be retried until a nonzero result is returned.
 464:Generated_Source\PSoC5/ADC_SAR_1.c **** *   ADC_SAR_1_WAIT_FOR_RESULT: Does not return a result until the ADC
 465:Generated_Source\PSoC5/ADC_SAR_1.c **** *     conversion is complete.
 466:Generated_Source\PSoC5/ADC_SAR_1.c **** *
 467:Generated_Source\PSoC5/ADC_SAR_1.c **** * Return:
 468:Generated_Source\PSoC5/ADC_SAR_1.c **** *  (uint8)  0 =>  The ADC is still calculating the last result.
 469:Generated_Source\PSoC5/ADC_SAR_1.c **** *           1 =>  The last conversion is complete.
 470:Generated_Source\PSoC5/ADC_SAR_1.c **** *
 471:Generated_Source\PSoC5/ADC_SAR_1.c **** * Side Effects:
 472:Generated_Source\PSoC5/ADC_SAR_1.c **** *  This function reads the end of conversion status, which is cleared on read.
 473:Generated_Source\PSoC5/ADC_SAR_1.c **** *
 474:Generated_Source\PSoC5/ADC_SAR_1.c **** *******************************************************************************/
 475:Generated_Source\PSoC5/ADC_SAR_1.c **** uint8 ADC_SAR_1_IsEndConversion(uint8 retMode)
 476:Generated_Source\PSoC5/ADC_SAR_1.c **** {
 461              		.loc 1 476 0
 462              		.cfi_startproc
 463              		@ args = 0, pretend = 0, frame = 16
 464              		@ frame_needed = 1, uses_anonymous_args = 0
 465 0000 80B5     		push	{r7, lr}
 466              		.cfi_def_cfa_offset 8
 467              		.cfi_offset 7, -8
 468              		.cfi_offset 14, -4
 469 0002 84B0     		sub	sp, sp, #16
 470              		.cfi_def_cfa_offset 24
 471 0004 00AF     		add	r7, sp, #0
 472              		.cfi_def_cfa_register 7
 473 0006 0346     		mov	r3, r0
 474 0008 FB71     		strb	r3, [r7, #7]
 475              	.L28:
 477:Generated_Source\PSoC5/ADC_SAR_1.c ****     uint8 status;
 478:Generated_Source\PSoC5/ADC_SAR_1.c **** 
 479:Generated_Source\PSoC5/ADC_SAR_1.c ****     do
 480:Generated_Source\PSoC5/ADC_SAR_1.c ****     {
 481:Generated_Source\PSoC5/ADC_SAR_1.c ****         status = ADC_SAR_1_SAR_CSR1_REG & ADC_SAR_1_SAR_EOF_1;
 476              		.loc 1 481 0 discriminator 2
 477 000a 0C4B     		ldr	r3, .L31
 478 000c 1B78     		ldrb	r3, [r3]
 479 000e DBB2     		uxtb	r3, r3
 480 0010 03F00103 		and	r3, r3, #1
 481 0014 FB73     		strb	r3, [r7, #15]
 482:Generated_Source\PSoC5/ADC_SAR_1.c ****     } while ((status != ADC_SAR_1_SAR_EOF_1) && (retMode == ADC_SAR_1_WAIT_FOR_RESULT));
 482              		.loc 1 482 0 discriminator 2
 483 0016 FB7B     		ldrb	r3, [r7, #15]	@ zero_extendqisi2
 484 0018 012B     		cmp	r3, #1
 485 001a 02D0     		beq	.L27
 486              		.loc 1 482 0 is_stmt 0 discriminator 1
 487 001c FB79     		ldrb	r3, [r7, #7]	@ zero_extendqisi2
ARM GAS  C:\Users\ben\AppData\Local\Temp\cc4JC7lV.s 			page 18


 488 001e 002B     		cmp	r3, #0
 489 0020 F3D0     		beq	.L28
 490              	.L27:
 483:Generated_Source\PSoC5/ADC_SAR_1.c ****     /* If convertion complete, wait until EOF bit released */
 484:Generated_Source\PSoC5/ADC_SAR_1.c ****     if(status == ADC_SAR_1_SAR_EOF_1)
 491              		.loc 1 484 0 is_stmt 1
 492 0022 FB7B     		ldrb	r3, [r7, #15]	@ zero_extendqisi2
 493 0024 012B     		cmp	r3, #1
 494 0026 04D1     		bne	.L29
 485:Generated_Source\PSoC5/ADC_SAR_1.c ****     {
 486:Generated_Source\PSoC5/ADC_SAR_1.c ****         /* wait one ADC clock to let the EOC status bit release */
 487:Generated_Source\PSoC5/ADC_SAR_1.c ****         CyDelayUs(1u);
 495              		.loc 1 487 0
 496 0028 0120     		movs	r0, #1
 497 002a FFF7FEFF 		bl	CyDelayUs
 488:Generated_Source\PSoC5/ADC_SAR_1.c ****         /* Do the unconditional read operation of the CSR1 register to make sure the EOC bit has be
 489:Generated_Source\PSoC5/ADC_SAR_1.c ****         CY_GET_REG8(ADC_SAR_1_SAR_CSR1_PTR);
 498              		.loc 1 489 0
 499 002e 034B     		ldr	r3, .L31
 500 0030 1B78     		ldrb	r3, [r3]
 501              	.L29:
 490:Generated_Source\PSoC5/ADC_SAR_1.c ****     }
 491:Generated_Source\PSoC5/ADC_SAR_1.c **** 
 492:Generated_Source\PSoC5/ADC_SAR_1.c ****     return(status);
 502              		.loc 1 492 0
 503 0032 FB7B     		ldrb	r3, [r7, #15]	@ zero_extendqisi2
 493:Generated_Source\PSoC5/ADC_SAR_1.c **** }
 504              		.loc 1 493 0
 505 0034 1846     		mov	r0, r3
 506 0036 1037     		adds	r7, r7, #16
 507              		.cfi_def_cfa_offset 8
 508 0038 BD46     		mov	sp, r7
 509              		.cfi_def_cfa_register 13
 510              		@ sp needed
 511 003a 80BD     		pop	{r7, pc}
 512              	.L32:
 513              		.align	2
 514              	.L31:
 515 003c 09590040 		.word	1073764617
 516              		.cfi_endproc
 517              	.LFE6:
 518              		.size	ADC_SAR_1_IsEndConversion, .-ADC_SAR_1_IsEndConversion
 519              		.section	.text.ADC_SAR_1_GetResult8,"ax",%progbits
 520              		.align	2
 521              		.global	ADC_SAR_1_GetResult8
 522              		.thumb
 523              		.thumb_func
 524              		.type	ADC_SAR_1_GetResult8, %function
 525              	ADC_SAR_1_GetResult8:
 526              	.LFB7:
 494:Generated_Source\PSoC5/ADC_SAR_1.c **** 
 495:Generated_Source\PSoC5/ADC_SAR_1.c **** 
 496:Generated_Source\PSoC5/ADC_SAR_1.c **** /*******************************************************************************
 497:Generated_Source\PSoC5/ADC_SAR_1.c **** * Function Name: ADC_SAR_1_GetResult8
 498:Generated_Source\PSoC5/ADC_SAR_1.c **** ********************************************************************************
 499:Generated_Source\PSoC5/ADC_SAR_1.c **** *
 500:Generated_Source\PSoC5/ADC_SAR_1.c **** * Summary:
ARM GAS  C:\Users\ben\AppData\Local\Temp\cc4JC7lV.s 			page 19


 501:Generated_Source\PSoC5/ADC_SAR_1.c **** *  Returns the result of an 8-bit conversion. If the resolution is set greater
 502:Generated_Source\PSoC5/ADC_SAR_1.c **** *  than 8 bits, the function returns the LSB of the result.
 503:Generated_Source\PSoC5/ADC_SAR_1.c **** *  ADC_SAR_1_IsEndConversion() should be called to verify that the data
 504:Generated_Source\PSoC5/ADC_SAR_1.c **** *   sample is ready.
 505:Generated_Source\PSoC5/ADC_SAR_1.c **** *
 506:Generated_Source\PSoC5/ADC_SAR_1.c **** * Parameters:
 507:Generated_Source\PSoC5/ADC_SAR_1.c **** *  None.
 508:Generated_Source\PSoC5/ADC_SAR_1.c **** *
 509:Generated_Source\PSoC5/ADC_SAR_1.c **** * Return:
 510:Generated_Source\PSoC5/ADC_SAR_1.c **** *  The LSB of the last ADC conversion.
 511:Generated_Source\PSoC5/ADC_SAR_1.c **** *
 512:Generated_Source\PSoC5/ADC_SAR_1.c **** * Global Variables:
 513:Generated_Source\PSoC5/ADC_SAR_1.c **** *  ADC_SAR_1_shift - used to convert the ADC counts to the 2s
 514:Generated_Source\PSoC5/ADC_SAR_1.c **** *  compliment form.
 515:Generated_Source\PSoC5/ADC_SAR_1.c **** *
 516:Generated_Source\PSoC5/ADC_SAR_1.c **** * Side Effects:
 517:Generated_Source\PSoC5/ADC_SAR_1.c **** *  Converts the ADC counts to the 2s complement form.
 518:Generated_Source\PSoC5/ADC_SAR_1.c **** *
 519:Generated_Source\PSoC5/ADC_SAR_1.c **** *******************************************************************************/
 520:Generated_Source\PSoC5/ADC_SAR_1.c **** int8 ADC_SAR_1_GetResult8( void )
 521:Generated_Source\PSoC5/ADC_SAR_1.c **** {
 527              		.loc 1 521 0
 528              		.cfi_startproc
 529              		@ args = 0, pretend = 0, frame = 0
 530              		@ frame_needed = 1, uses_anonymous_args = 0
 531              		@ link register save eliminated.
 532 0000 80B4     		push	{r7}
 533              		.cfi_def_cfa_offset 4
 534              		.cfi_offset 7, -4
 535 0002 00AF     		add	r7, sp, #0
 536              		.cfi_def_cfa_register 7
 522:Generated_Source\PSoC5/ADC_SAR_1.c ****     return( (int8)ADC_SAR_1_SAR_WRK0_REG - (int8)ADC_SAR_1_shift);
 537              		.loc 1 522 0
 538 0004 074B     		ldr	r3, .L35
 539 0006 1B78     		ldrb	r3, [r3]
 540 0008 DAB2     		uxtb	r2, r3
 541 000a 074B     		ldr	r3, .L35+4
 542 000c 1B88     		ldrh	r3, [r3]	@ movhi
 543 000e 9BB2     		uxth	r3, r3
 544 0010 DBB2     		uxtb	r3, r3
 545 0012 D31A     		subs	r3, r2, r3
 546 0014 DBB2     		uxtb	r3, r3
 547 0016 DBB2     		uxtb	r3, r3
 548 0018 5BB2     		sxtb	r3, r3
 523:Generated_Source\PSoC5/ADC_SAR_1.c **** }
 549              		.loc 1 523 0
 550 001a 1846     		mov	r0, r3
 551 001c BD46     		mov	sp, r7
 552              		.cfi_def_cfa_register 13
 553              		@ sp needed
 554 001e 5DF8047B 		ldr	r7, [sp], #4
 555              		.cfi_restore 7
 556              		.cfi_def_cfa_offset 0
 557 0022 7047     		bx	lr
 558              	.L36:
 559              		.align	2
 560              	.L35:
ARM GAS  C:\Users\ben\AppData\Local\Temp\cc4JC7lV.s 			page 20


 561 0024 A25B0040 		.word	1073765282
 562 0028 00000000 		.word	ADC_SAR_1_shift
 563              		.cfi_endproc
 564              	.LFE7:
 565              		.size	ADC_SAR_1_GetResult8, .-ADC_SAR_1_GetResult8
 566              		.section	.text.ADC_SAR_1_GetResult16,"ax",%progbits
 567              		.align	2
 568              		.global	ADC_SAR_1_GetResult16
 569              		.thumb
 570              		.thumb_func
 571              		.type	ADC_SAR_1_GetResult16, %function
 572              	ADC_SAR_1_GetResult16:
 573              	.LFB8:
 524:Generated_Source\PSoC5/ADC_SAR_1.c **** 
 525:Generated_Source\PSoC5/ADC_SAR_1.c **** 
 526:Generated_Source\PSoC5/ADC_SAR_1.c **** /*******************************************************************************
 527:Generated_Source\PSoC5/ADC_SAR_1.c **** * Function Name: ADC_SAR_1_GetResult16
 528:Generated_Source\PSoC5/ADC_SAR_1.c **** ********************************************************************************
 529:Generated_Source\PSoC5/ADC_SAR_1.c **** *
 530:Generated_Source\PSoC5/ADC_SAR_1.c **** * Summary:
 531:Generated_Source\PSoC5/ADC_SAR_1.c **** *  Returns a 16-bit result for a conversion with a result that has a resolution
 532:Generated_Source\PSoC5/ADC_SAR_1.c **** *  of 8 to 12 bits.
 533:Generated_Source\PSoC5/ADC_SAR_1.c **** *  ADC_SAR_1_IsEndConversion() should be called to verify that the data
 534:Generated_Source\PSoC5/ADC_SAR_1.c **** *   sample is ready
 535:Generated_Source\PSoC5/ADC_SAR_1.c **** *
 536:Generated_Source\PSoC5/ADC_SAR_1.c **** * Parameters:
 537:Generated_Source\PSoC5/ADC_SAR_1.c **** *  None.
 538:Generated_Source\PSoC5/ADC_SAR_1.c **** *
 539:Generated_Source\PSoC5/ADC_SAR_1.c **** * Return:
 540:Generated_Source\PSoC5/ADC_SAR_1.c **** *  The 16-bit result of the last ADC conversion
 541:Generated_Source\PSoC5/ADC_SAR_1.c **** *
 542:Generated_Source\PSoC5/ADC_SAR_1.c **** * Global Variables:
 543:Generated_Source\PSoC5/ADC_SAR_1.c **** *  ADC_SAR_1_shift - used to convert the ADC counts to the 2s
 544:Generated_Source\PSoC5/ADC_SAR_1.c **** *  compliment form.
 545:Generated_Source\PSoC5/ADC_SAR_1.c **** *
 546:Generated_Source\PSoC5/ADC_SAR_1.c **** * Side Effects:
 547:Generated_Source\PSoC5/ADC_SAR_1.c **** *  Converts the ADC counts to the 2s complement form.
 548:Generated_Source\PSoC5/ADC_SAR_1.c **** *
 549:Generated_Source\PSoC5/ADC_SAR_1.c **** *******************************************************************************/
 550:Generated_Source\PSoC5/ADC_SAR_1.c **** int16 ADC_SAR_1_GetResult16( void )
 551:Generated_Source\PSoC5/ADC_SAR_1.c **** {
 574              		.loc 1 551 0
 575              		.cfi_startproc
 576              		@ args = 0, pretend = 0, frame = 8
 577              		@ frame_needed = 1, uses_anonymous_args = 0
 578              		@ link register save eliminated.
 579 0000 80B4     		push	{r7}
 580              		.cfi_def_cfa_offset 4
 581              		.cfi_offset 7, -4
 582 0002 83B0     		sub	sp, sp, #12
 583              		.cfi_def_cfa_offset 16
 584 0004 00AF     		add	r7, sp, #0
 585              		.cfi_def_cfa_register 7
 552:Generated_Source\PSoC5/ADC_SAR_1.c ****     uint16 res;
 553:Generated_Source\PSoC5/ADC_SAR_1.c **** 
 554:Generated_Source\PSoC5/ADC_SAR_1.c ****     res = CY_GET_REG16(ADC_SAR_1_SAR_WRK_PTR);
 586              		.loc 1 554 0
ARM GAS  C:\Users\ben\AppData\Local\Temp\cc4JC7lV.s 			page 21


 587 0006 094B     		ldr	r3, .L39
 588 0008 1B88     		ldrh	r3, [r3]	@ movhi
 589 000a FB80     		strh	r3, [r7, #6]	@ movhi
 555:Generated_Source\PSoC5/ADC_SAR_1.c **** 
 556:Generated_Source\PSoC5/ADC_SAR_1.c ****     return( (int16)res - ADC_SAR_1_shift );
 590              		.loc 1 556 0
 591 000c 084B     		ldr	r3, .L39+4
 592 000e 1B88     		ldrh	r3, [r3]	@ movhi
 593 0010 9BB2     		uxth	r3, r3
 594 0012 9BB2     		uxth	r3, r3
 595 0014 FA88     		ldrh	r2, [r7, #6]	@ movhi
 596 0016 D31A     		subs	r3, r2, r3
 597 0018 9BB2     		uxth	r3, r3
 598 001a 9BB2     		uxth	r3, r3
 599 001c 1BB2     		sxth	r3, r3
 557:Generated_Source\PSoC5/ADC_SAR_1.c **** }
 600              		.loc 1 557 0
 601 001e 1846     		mov	r0, r3
 602 0020 0C37     		adds	r7, r7, #12
 603              		.cfi_def_cfa_offset 4
 604 0022 BD46     		mov	sp, r7
 605              		.cfi_def_cfa_register 13
 606              		@ sp needed
 607 0024 5DF8047B 		ldr	r7, [sp], #4
 608              		.cfi_restore 7
 609              		.cfi_def_cfa_offset 0
 610 0028 7047     		bx	lr
 611              	.L40:
 612 002a 00BF     		.align	2
 613              	.L39:
 614 002c A25B0040 		.word	1073765282
 615 0030 00000000 		.word	ADC_SAR_1_shift
 616              		.cfi_endproc
 617              	.LFE8:
 618              		.size	ADC_SAR_1_GetResult16, .-ADC_SAR_1_GetResult16
 619              		.section	.text.ADC_SAR_1_SetOffset,"ax",%progbits
 620              		.align	2
 621              		.global	ADC_SAR_1_SetOffset
 622              		.thumb
 623              		.thumb_func
 624              		.type	ADC_SAR_1_SetOffset, %function
 625              	ADC_SAR_1_SetOffset:
 626              	.LFB9:
 558:Generated_Source\PSoC5/ADC_SAR_1.c **** 
 559:Generated_Source\PSoC5/ADC_SAR_1.c **** 
 560:Generated_Source\PSoC5/ADC_SAR_1.c **** /*******************************************************************************
 561:Generated_Source\PSoC5/ADC_SAR_1.c **** * Function Name: ADC_SAR_1_SetOffset
 562:Generated_Source\PSoC5/ADC_SAR_1.c **** ********************************************************************************
 563:Generated_Source\PSoC5/ADC_SAR_1.c **** *
 564:Generated_Source\PSoC5/ADC_SAR_1.c **** * Summary:
 565:Generated_Source\PSoC5/ADC_SAR_1.c **** *  Sets the ADC offset, which is used by ADC_SAR_1_CountsTo_Volts(),
 566:Generated_Source\PSoC5/ADC_SAR_1.c **** *  ADC_SAR_1_CountsTo_mVolts(), and ADC_SAR_1_CountsTo_uVolts()
 567:Generated_Source\PSoC5/ADC_SAR_1.c **** *  to subtract the offset from the given reading before calculating the voltage
 568:Generated_Source\PSoC5/ADC_SAR_1.c **** *  conversion.
 569:Generated_Source\PSoC5/ADC_SAR_1.c **** *
 570:Generated_Source\PSoC5/ADC_SAR_1.c **** * Parameters:
 571:Generated_Source\PSoC5/ADC_SAR_1.c **** *  int16: This value is measured when the inputs are shorted or connected to
ARM GAS  C:\Users\ben\AppData\Local\Temp\cc4JC7lV.s 			page 22


 572:Generated_Source\PSoC5/ADC_SAR_1.c ****    the same input voltage.
 573:Generated_Source\PSoC5/ADC_SAR_1.c **** *
 574:Generated_Source\PSoC5/ADC_SAR_1.c **** * Return:
 575:Generated_Source\PSoC5/ADC_SAR_1.c **** *  None.
 576:Generated_Source\PSoC5/ADC_SAR_1.c **** *
 577:Generated_Source\PSoC5/ADC_SAR_1.c **** * Global Variables:
 578:Generated_Source\PSoC5/ADC_SAR_1.c **** *  The ADC_SAR_1_offset variable modified. This variable is used for
 579:Generated_Source\PSoC5/ADC_SAR_1.c **** *  offset calibration purpose.
 580:Generated_Source\PSoC5/ADC_SAR_1.c **** *  Affects the ADC_SAR_1_CountsTo_Volts,
 581:Generated_Source\PSoC5/ADC_SAR_1.c **** *  ADC_SAR_1_CountsTo_mVolts, ADC_SAR_1_CountsTo_uVolts functions
 582:Generated_Source\PSoC5/ADC_SAR_1.c **** *  by subtracting the given offset.
 583:Generated_Source\PSoC5/ADC_SAR_1.c **** *
 584:Generated_Source\PSoC5/ADC_SAR_1.c **** *******************************************************************************/
 585:Generated_Source\PSoC5/ADC_SAR_1.c **** void ADC_SAR_1_SetOffset(int16 offset)
 586:Generated_Source\PSoC5/ADC_SAR_1.c **** {
 627              		.loc 1 586 0
 628              		.cfi_startproc
 629              		@ args = 0, pretend = 0, frame = 8
 630              		@ frame_needed = 1, uses_anonymous_args = 0
 631              		@ link register save eliminated.
 632 0000 80B4     		push	{r7}
 633              		.cfi_def_cfa_offset 4
 634              		.cfi_offset 7, -4
 635 0002 83B0     		sub	sp, sp, #12
 636              		.cfi_def_cfa_offset 16
 637 0004 00AF     		add	r7, sp, #0
 638              		.cfi_def_cfa_register 7
 639 0006 0346     		mov	r3, r0
 640 0008 FB80     		strh	r3, [r7, #6]	@ movhi
 587:Generated_Source\PSoC5/ADC_SAR_1.c ****     ADC_SAR_1_offset = offset;
 641              		.loc 1 587 0
 642 000a 044A     		ldr	r2, .L42
 643 000c FB88     		ldrh	r3, [r7, #6]	@ movhi
 644 000e 1380     		strh	r3, [r2]	@ movhi
 588:Generated_Source\PSoC5/ADC_SAR_1.c **** }
 645              		.loc 1 588 0
 646 0010 0C37     		adds	r7, r7, #12
 647              		.cfi_def_cfa_offset 4
 648 0012 BD46     		mov	sp, r7
 649              		.cfi_def_cfa_register 13
 650              		@ sp needed
 651 0014 5DF8047B 		ldr	r7, [sp], #4
 652              		.cfi_restore 7
 653              		.cfi_def_cfa_offset 0
 654 0018 7047     		bx	lr
 655              	.L43:
 656 001a 00BF     		.align	2
 657              	.L42:
 658 001c 00000000 		.word	ADC_SAR_1_offset
 659              		.cfi_endproc
 660              	.LFE9:
 661              		.size	ADC_SAR_1_SetOffset, .-ADC_SAR_1_SetOffset
 662              		.section	.text.ADC_SAR_1_CalcGain,"ax",%progbits
 663              		.align	2
 664              		.thumb
 665              		.thumb_func
 666              		.type	ADC_SAR_1_CalcGain, %function
ARM GAS  C:\Users\ben\AppData\Local\Temp\cc4JC7lV.s 			page 23


 667              	ADC_SAR_1_CalcGain:
 668              	.LFB10:
 589:Generated_Source\PSoC5/ADC_SAR_1.c **** 
 590:Generated_Source\PSoC5/ADC_SAR_1.c **** 
 591:Generated_Source\PSoC5/ADC_SAR_1.c **** /*******************************************************************************
 592:Generated_Source\PSoC5/ADC_SAR_1.c **** * Function Name: ADC_SAR_1_CalcGain
 593:Generated_Source\PSoC5/ADC_SAR_1.c **** ********************************************************************************
 594:Generated_Source\PSoC5/ADC_SAR_1.c **** *
 595:Generated_Source\PSoC5/ADC_SAR_1.c **** * Summary:
 596:Generated_Source\PSoC5/ADC_SAR_1.c **** *  This function calculates the ADC gain in counts per 10 volt.
 597:Generated_Source\PSoC5/ADC_SAR_1.c **** *
 598:Generated_Source\PSoC5/ADC_SAR_1.c **** * Parameters:
 599:Generated_Source\PSoC5/ADC_SAR_1.c **** *  uint8: resolution
 600:Generated_Source\PSoC5/ADC_SAR_1.c **** *
 601:Generated_Source\PSoC5/ADC_SAR_1.c **** * Return:
 602:Generated_Source\PSoC5/ADC_SAR_1.c **** *  None.
 603:Generated_Source\PSoC5/ADC_SAR_1.c **** *
 604:Generated_Source\PSoC5/ADC_SAR_1.c **** * Global Variables:
 605:Generated_Source\PSoC5/ADC_SAR_1.c **** *  ADC_SAR_1_shift variable initialized. This variable is used to
 606:Generated_Source\PSoC5/ADC_SAR_1.c **** *  convert the ADC counts to the 2s compliment form.
 607:Generated_Source\PSoC5/ADC_SAR_1.c **** *  ADC_SAR_1_countsPer10Volt variable initialized. This variable is used
 608:Generated_Source\PSoC5/ADC_SAR_1.c **** *  for gain calibration purpose.
 609:Generated_Source\PSoC5/ADC_SAR_1.c **** *
 610:Generated_Source\PSoC5/ADC_SAR_1.c **** *******************************************************************************/
 611:Generated_Source\PSoC5/ADC_SAR_1.c **** static void ADC_SAR_1_CalcGain( uint8 resolution )
 612:Generated_Source\PSoC5/ADC_SAR_1.c **** {
 669              		.loc 1 612 0
 670              		.cfi_startproc
 671              		@ args = 0, pretend = 0, frame = 16
 672              		@ frame_needed = 1, uses_anonymous_args = 0
 673              		@ link register save eliminated.
 674 0000 80B4     		push	{r7}
 675              		.cfi_def_cfa_offset 4
 676              		.cfi_offset 7, -4
 677 0002 85B0     		sub	sp, sp, #20
 678              		.cfi_def_cfa_offset 24
 679 0004 00AF     		add	r7, sp, #0
 680              		.cfi_def_cfa_register 7
 681 0006 0346     		mov	r3, r0
 682 0008 FB71     		strb	r3, [r7, #7]
 613:Generated_Source\PSoC5/ADC_SAR_1.c ****     int32 counts;
 614:Generated_Source\PSoC5/ADC_SAR_1.c ****     #if(!((ADC_SAR_1_DEFAULT_RANGE == ADC_SAR_1__VSS_TO_VREF) || \
 615:Generated_Source\PSoC5/ADC_SAR_1.c ****          (ADC_SAR_1_DEFAULT_RANGE == ADC_SAR_1__VSSA_TO_VDDA) || \
 616:Generated_Source\PSoC5/ADC_SAR_1.c ****          (ADC_SAR_1_DEFAULT_RANGE == ADC_SAR_1__VSSA_TO_VDAC)) )
 617:Generated_Source\PSoC5/ADC_SAR_1.c ****         uint16 diff_zero;
 618:Generated_Source\PSoC5/ADC_SAR_1.c ****     #endif /* End ADC_SAR_1_DEFAULT_RANGE */
 619:Generated_Source\PSoC5/ADC_SAR_1.c **** 
 620:Generated_Source\PSoC5/ADC_SAR_1.c ****     switch (resolution)
 683              		.loc 1 620 0
 684 000a FB79     		ldrb	r3, [r7, #7]	@ zero_extendqisi2
 685 000c 0A2B     		cmp	r3, #10
 686 000e 08D0     		beq	.L46
 687 0010 0C2B     		cmp	r3, #12
 688 0012 02D0     		beq	.L47
 689 0014 082B     		cmp	r3, #8
 690 0016 08D0     		beq	.L48
 691 0018 0BE0     		b	.L51
ARM GAS  C:\Users\ben\AppData\Local\Temp\cc4JC7lV.s 			page 24


 692              	.L47:
 621:Generated_Source\PSoC5/ADC_SAR_1.c ****     {
 622:Generated_Source\PSoC5/ADC_SAR_1.c ****         case (uint8)ADC_SAR_1__BITS_12:
 623:Generated_Source\PSoC5/ADC_SAR_1.c ****             counts = (int32)ADC_SAR_1_SAR_WRK_MAX_12BIT;
 693              		.loc 1 623 0
 694 001a 4FF48053 		mov	r3, #4096
 695 001e FB60     		str	r3, [r7, #12]
 624:Generated_Source\PSoC5/ADC_SAR_1.c ****             #if(!((ADC_SAR_1_DEFAULT_RANGE == ADC_SAR_1__VSS_TO_VREF) || \
 625:Generated_Source\PSoC5/ADC_SAR_1.c ****                  (ADC_SAR_1_DEFAULT_RANGE == ADC_SAR_1__VSSA_TO_VDDA) || \
 626:Generated_Source\PSoC5/ADC_SAR_1.c ****                  (ADC_SAR_1_DEFAULT_RANGE == ADC_SAR_1__VSSA_TO_VDAC)) )
 627:Generated_Source\PSoC5/ADC_SAR_1.c ****                 diff_zero = ADC_SAR_1_SAR_DIFF_SHIFT;
 628:Generated_Source\PSoC5/ADC_SAR_1.c ****             #endif /* End ADC_SAR_1_DEFAULT_RANGE */
 629:Generated_Source\PSoC5/ADC_SAR_1.c ****             break;
 696              		.loc 1 629 0
 697 0020 0AE0     		b	.L49
 698              	.L46:
 630:Generated_Source\PSoC5/ADC_SAR_1.c ****         case (uint8)ADC_SAR_1__BITS_10:
 631:Generated_Source\PSoC5/ADC_SAR_1.c ****             counts = (int32)ADC_SAR_1_SAR_WRK_MAX_10BIT;
 699              		.loc 1 631 0
 700 0022 4FF48063 		mov	r3, #1024
 701 0026 FB60     		str	r3, [r7, #12]
 632:Generated_Source\PSoC5/ADC_SAR_1.c ****             #if(!((ADC_SAR_1_DEFAULT_RANGE == ADC_SAR_1__VSS_TO_VREF) || \
 633:Generated_Source\PSoC5/ADC_SAR_1.c ****                  (ADC_SAR_1_DEFAULT_RANGE == ADC_SAR_1__VSSA_TO_VDDA) || \
 634:Generated_Source\PSoC5/ADC_SAR_1.c ****                  (ADC_SAR_1_DEFAULT_RANGE == ADC_SAR_1__VSSA_TO_VDAC)) )
 635:Generated_Source\PSoC5/ADC_SAR_1.c ****                 diff_zero = ADC_SAR_1_SAR_DIFF_SHIFT >> 2u;
 636:Generated_Source\PSoC5/ADC_SAR_1.c ****             #endif /* End ADC_SAR_1_DEFAULT_RANGE */
 637:Generated_Source\PSoC5/ADC_SAR_1.c ****             break;
 702              		.loc 1 637 0
 703 0028 06E0     		b	.L49
 704              	.L48:
 638:Generated_Source\PSoC5/ADC_SAR_1.c ****         case (uint8)ADC_SAR_1__BITS_8:
 639:Generated_Source\PSoC5/ADC_SAR_1.c ****             counts = (int32)ADC_SAR_1_SAR_WRK_MAX_8BIT;
 705              		.loc 1 639 0
 706 002a 4FF48073 		mov	r3, #256
 707 002e FB60     		str	r3, [r7, #12]
 640:Generated_Source\PSoC5/ADC_SAR_1.c ****             #if(!((ADC_SAR_1_DEFAULT_RANGE == ADC_SAR_1__VSS_TO_VREF) || \
 641:Generated_Source\PSoC5/ADC_SAR_1.c ****                  (ADC_SAR_1_DEFAULT_RANGE == ADC_SAR_1__VSSA_TO_VDDA) || \
 642:Generated_Source\PSoC5/ADC_SAR_1.c ****                  (ADC_SAR_1_DEFAULT_RANGE == ADC_SAR_1__VSSA_TO_VDAC)) )
 643:Generated_Source\PSoC5/ADC_SAR_1.c ****                 diff_zero = ADC_SAR_1_SAR_DIFF_SHIFT >> 4u;
 644:Generated_Source\PSoC5/ADC_SAR_1.c ****             #endif /* End ADC_SAR_1_DEFAULT_RANGE */
 645:Generated_Source\PSoC5/ADC_SAR_1.c ****             break;
 708              		.loc 1 645 0
 709 0030 02E0     		b	.L49
 710              	.L51:
 646:Generated_Source\PSoC5/ADC_SAR_1.c ****         default: /* Halt CPU in debug mode if resolution is out of valid range */
 647:Generated_Source\PSoC5/ADC_SAR_1.c ****             counts = 0;
 711              		.loc 1 647 0
 712 0032 0023     		movs	r3, #0
 713 0034 FB60     		str	r3, [r7, #12]
 648:Generated_Source\PSoC5/ADC_SAR_1.c ****             #if(!((ADC_SAR_1_DEFAULT_RANGE == ADC_SAR_1__VSS_TO_VREF) || \
 649:Generated_Source\PSoC5/ADC_SAR_1.c ****                  (ADC_SAR_1_DEFAULT_RANGE == ADC_SAR_1__VSSA_TO_VDDA) || \
 650:Generated_Source\PSoC5/ADC_SAR_1.c ****                  (ADC_SAR_1_DEFAULT_RANGE == ADC_SAR_1__VSSA_TO_VDAC)) )
 651:Generated_Source\PSoC5/ADC_SAR_1.c ****                 diff_zero = 0u;
 652:Generated_Source\PSoC5/ADC_SAR_1.c ****             #endif /* End ADC_SAR_1_DEFAULT_RANGE */
 653:Generated_Source\PSoC5/ADC_SAR_1.c ****             CYASSERT(0u != 0u);
 654:Generated_Source\PSoC5/ADC_SAR_1.c ****             break;
 714              		.loc 1 654 0
ARM GAS  C:\Users\ben\AppData\Local\Temp\cc4JC7lV.s 			page 25


 715 0036 00BF     		nop
 716              	.L49:
 655:Generated_Source\PSoC5/ADC_SAR_1.c ****     }
 656:Generated_Source\PSoC5/ADC_SAR_1.c ****     ADC_SAR_1_countsPerVolt = 0; /* Clear obsolete variable */
 717              		.loc 1 656 0
 718 0038 0C4B     		ldr	r3, .L52
 719 003a 0022     		movs	r2, #0
 720 003c 1A80     		strh	r2, [r3]	@ movhi
 657:Generated_Source\PSoC5/ADC_SAR_1.c ****     /* Calculate gain in counts per 10 volts with rounding */
 658:Generated_Source\PSoC5/ADC_SAR_1.c ****     ADC_SAR_1_countsPer10Volt = (((counts * ADC_SAR_1_10MV_COUNTS) +
 721              		.loc 1 658 0
 722 003e FB68     		ldr	r3, [r7, #12]
 723 0040 42F21072 		movw	r2, #10000
 724 0044 02FB03F3 		mul	r3, r2, r3
 725 0048 03F58063 		add	r3, r3, #1024
 659:Generated_Source\PSoC5/ADC_SAR_1.c ****                         ADC_SAR_1_DEFAULT_REF_VOLTAGE_MV) / (ADC_SAR_1_DEFAULT_REF_VOLTAGE_MV * 2))
 726              		.loc 1 659 0
 727 004c 002B     		cmp	r3, #0
 728 004e 01DA     		bge	.L50
 729 0050 03F2FF73 		addw	r3, r3, #2047
 730              	.L50:
 731 0054 DB12     		asrs	r3, r3, #11
 732 0056 1A46     		mov	r2, r3
 658:Generated_Source\PSoC5/ADC_SAR_1.c ****                         ADC_SAR_1_DEFAULT_REF_VOLTAGE_MV) / (ADC_SAR_1_DEFAULT_REF_VOLTAGE_MV * 2))
 733              		.loc 1 658 0
 734 0058 054B     		ldr	r3, .L52+4
 735 005a 1A60     		str	r2, [r3]
 660:Generated_Source\PSoC5/ADC_SAR_1.c **** 
 661:Generated_Source\PSoC5/ADC_SAR_1.c ****     #if( (ADC_SAR_1_DEFAULT_RANGE == ADC_SAR_1__VSS_TO_VREF) || \
 662:Generated_Source\PSoC5/ADC_SAR_1.c ****          (ADC_SAR_1_DEFAULT_RANGE == ADC_SAR_1__VSSA_TO_VDDA) || \
 663:Generated_Source\PSoC5/ADC_SAR_1.c ****          (ADC_SAR_1_DEFAULT_RANGE == ADC_SAR_1__VSSA_TO_VDAC) )
 664:Generated_Source\PSoC5/ADC_SAR_1.c ****         ADC_SAR_1_shift = 0;
 736              		.loc 1 664 0
 737 005c 054B     		ldr	r3, .L52+8
 738 005e 0022     		movs	r2, #0
 739 0060 1A80     		strh	r2, [r3]	@ movhi
 665:Generated_Source\PSoC5/ADC_SAR_1.c ****     #else
 666:Generated_Source\PSoC5/ADC_SAR_1.c ****         ADC_SAR_1_shift = diff_zero;
 667:Generated_Source\PSoC5/ADC_SAR_1.c ****     #endif /* End ADC_SAR_1_DEFAULT_RANGE */
 668:Generated_Source\PSoC5/ADC_SAR_1.c **** }
 740              		.loc 1 668 0
 741 0062 1437     		adds	r7, r7, #20
 742              		.cfi_def_cfa_offset 4
 743 0064 BD46     		mov	sp, r7
 744              		.cfi_def_cfa_register 13
 745              		@ sp needed
 746 0066 5DF8047B 		ldr	r7, [sp], #4
 747              		.cfi_restore 7
 748              		.cfi_def_cfa_offset 0
 749 006a 7047     		bx	lr
 750              	.L53:
 751              		.align	2
 752              	.L52:
 753 006c 00000000 		.word	ADC_SAR_1_countsPerVolt
 754 0070 00000000 		.word	ADC_SAR_1_countsPer10Volt
 755 0074 00000000 		.word	ADC_SAR_1_shift
 756              		.cfi_endproc
ARM GAS  C:\Users\ben\AppData\Local\Temp\cc4JC7lV.s 			page 26


 757              	.LFE10:
 758              		.size	ADC_SAR_1_CalcGain, .-ADC_SAR_1_CalcGain
 759              		.section	.text.ADC_SAR_1_SetGain,"ax",%progbits
 760              		.align	2
 761              		.global	ADC_SAR_1_SetGain
 762              		.thumb
 763              		.thumb_func
 764              		.type	ADC_SAR_1_SetGain, %function
 765              	ADC_SAR_1_SetGain:
 766              	.LFB11:
 669:Generated_Source\PSoC5/ADC_SAR_1.c **** 
 670:Generated_Source\PSoC5/ADC_SAR_1.c **** 
 671:Generated_Source\PSoC5/ADC_SAR_1.c **** /*******************************************************************************
 672:Generated_Source\PSoC5/ADC_SAR_1.c **** * Function Name: ADC_SAR_1_SetGain
 673:Generated_Source\PSoC5/ADC_SAR_1.c **** ********************************************************************************
 674:Generated_Source\PSoC5/ADC_SAR_1.c **** *
 675:Generated_Source\PSoC5/ADC_SAR_1.c **** * Summary:
 676:Generated_Source\PSoC5/ADC_SAR_1.c **** *  Sets the ADC gain in counts per volt for the voltage conversion functions
 677:Generated_Source\PSoC5/ADC_SAR_1.c **** *  that follow. This value is set by default by the reference and input range
 678:Generated_Source\PSoC5/ADC_SAR_1.c **** *  settings. It should only be used to further calibrate the ADC with a known
 679:Generated_Source\PSoC5/ADC_SAR_1.c **** *  input or if the ADC is using an external reference.
 680:Generated_Source\PSoC5/ADC_SAR_1.c **** *
 681:Generated_Source\PSoC5/ADC_SAR_1.c **** * Parameters:
 682:Generated_Source\PSoC5/ADC_SAR_1.c **** *  int16 adcGain counts per volt
 683:Generated_Source\PSoC5/ADC_SAR_1.c **** *
 684:Generated_Source\PSoC5/ADC_SAR_1.c **** * Return:
 685:Generated_Source\PSoC5/ADC_SAR_1.c **** *  None.
 686:Generated_Source\PSoC5/ADC_SAR_1.c **** *
 687:Generated_Source\PSoC5/ADC_SAR_1.c **** * Global Variables:
 688:Generated_Source\PSoC5/ADC_SAR_1.c **** *  ADC_SAR_1_countsPer10Volt variable modified. This variable is used
 689:Generated_Source\PSoC5/ADC_SAR_1.c **** *  for gain calibration purpose.
 690:Generated_Source\PSoC5/ADC_SAR_1.c **** *
 691:Generated_Source\PSoC5/ADC_SAR_1.c **** *******************************************************************************/
 692:Generated_Source\PSoC5/ADC_SAR_1.c **** void ADC_SAR_1_SetGain(int16 adcGain)
 693:Generated_Source\PSoC5/ADC_SAR_1.c **** {
 767              		.loc 1 693 0
 768              		.cfi_startproc
 769              		@ args = 0, pretend = 0, frame = 8
 770              		@ frame_needed = 1, uses_anonymous_args = 0
 771              		@ link register save eliminated.
 772 0000 80B4     		push	{r7}
 773              		.cfi_def_cfa_offset 4
 774              		.cfi_offset 7, -4
 775 0002 83B0     		sub	sp, sp, #12
 776              		.cfi_def_cfa_offset 16
 777 0004 00AF     		add	r7, sp, #0
 778              		.cfi_def_cfa_register 7
 779 0006 0346     		mov	r3, r0
 780 0008 FB80     		strh	r3, [r7, #6]	@ movhi
 694:Generated_Source\PSoC5/ADC_SAR_1.c ****     ADC_SAR_1_countsPer10Volt = (int32)adcGain * 10;
 781              		.loc 1 694 0
 782 000a B7F90620 		ldrsh	r2, [r7, #6]
 783 000e 1346     		mov	r3, r2
 784 0010 9B00     		lsls	r3, r3, #2
 785 0012 1344     		add	r3, r3, r2
 786 0014 5B00     		lsls	r3, r3, #1
 787 0016 1A46     		mov	r2, r3
ARM GAS  C:\Users\ben\AppData\Local\Temp\cc4JC7lV.s 			page 27


 788 0018 034B     		ldr	r3, .L55
 789 001a 1A60     		str	r2, [r3]
 695:Generated_Source\PSoC5/ADC_SAR_1.c **** }
 790              		.loc 1 695 0
 791 001c 0C37     		adds	r7, r7, #12
 792              		.cfi_def_cfa_offset 4
 793 001e BD46     		mov	sp, r7
 794              		.cfi_def_cfa_register 13
 795              		@ sp needed
 796 0020 5DF8047B 		ldr	r7, [sp], #4
 797              		.cfi_restore 7
 798              		.cfi_def_cfa_offset 0
 799 0024 7047     		bx	lr
 800              	.L56:
 801 0026 00BF     		.align	2
 802              	.L55:
 803 0028 00000000 		.word	ADC_SAR_1_countsPer10Volt
 804              		.cfi_endproc
 805              	.LFE11:
 806              		.size	ADC_SAR_1_SetGain, .-ADC_SAR_1_SetGain
 807              		.section	.text.ADC_SAR_1_SetScaledGain,"ax",%progbits
 808              		.align	2
 809              		.global	ADC_SAR_1_SetScaledGain
 810              		.thumb
 811              		.thumb_func
 812              		.type	ADC_SAR_1_SetScaledGain, %function
 813              	ADC_SAR_1_SetScaledGain:
 814              	.LFB12:
 696:Generated_Source\PSoC5/ADC_SAR_1.c **** 
 697:Generated_Source\PSoC5/ADC_SAR_1.c **** 
 698:Generated_Source\PSoC5/ADC_SAR_1.c **** /*******************************************************************************
 699:Generated_Source\PSoC5/ADC_SAR_1.c **** * Function Name: ADC_SAR_1_SetScaledGain
 700:Generated_Source\PSoC5/ADC_SAR_1.c **** ********************************************************************************
 701:Generated_Source\PSoC5/ADC_SAR_1.c **** *
 702:Generated_Source\PSoC5/ADC_SAR_1.c **** * Summary:
 703:Generated_Source\PSoC5/ADC_SAR_1.c **** *  Sets the ADC gain in counts per 10 volt for the voltage conversion functions
 704:Generated_Source\PSoC5/ADC_SAR_1.c **** *  that follow. This value is set by default by the reference and input range
 705:Generated_Source\PSoC5/ADC_SAR_1.c **** *  settings. It should only be used to further calibrate the ADC with a known
 706:Generated_Source\PSoC5/ADC_SAR_1.c **** *  input or if the ADC is using an external reference.
 707:Generated_Source\PSoC5/ADC_SAR_1.c **** *
 708:Generated_Source\PSoC5/ADC_SAR_1.c **** * Parameters:
 709:Generated_Source\PSoC5/ADC_SAR_1.c **** *  int32 adcGain  counts per 10 volt
 710:Generated_Source\PSoC5/ADC_SAR_1.c **** *
 711:Generated_Source\PSoC5/ADC_SAR_1.c **** * Return:
 712:Generated_Source\PSoC5/ADC_SAR_1.c **** *  None.
 713:Generated_Source\PSoC5/ADC_SAR_1.c **** *
 714:Generated_Source\PSoC5/ADC_SAR_1.c **** * Global Variables:
 715:Generated_Source\PSoC5/ADC_SAR_1.c **** *  ADC_SAR_1_countsPer10Volt variable modified. This variable is used
 716:Generated_Source\PSoC5/ADC_SAR_1.c **** *  for gain calibration purpose.
 717:Generated_Source\PSoC5/ADC_SAR_1.c **** *
 718:Generated_Source\PSoC5/ADC_SAR_1.c **** *******************************************************************************/
 719:Generated_Source\PSoC5/ADC_SAR_1.c **** void ADC_SAR_1_SetScaledGain(int32 adcGain)
 720:Generated_Source\PSoC5/ADC_SAR_1.c **** {
 815              		.loc 1 720 0
 816              		.cfi_startproc
 817              		@ args = 0, pretend = 0, frame = 8
 818              		@ frame_needed = 1, uses_anonymous_args = 0
ARM GAS  C:\Users\ben\AppData\Local\Temp\cc4JC7lV.s 			page 28


 819              		@ link register save eliminated.
 820 0000 80B4     		push	{r7}
 821              		.cfi_def_cfa_offset 4
 822              		.cfi_offset 7, -4
 823 0002 83B0     		sub	sp, sp, #12
 824              		.cfi_def_cfa_offset 16
 825 0004 00AF     		add	r7, sp, #0
 826              		.cfi_def_cfa_register 7
 827 0006 7860     		str	r0, [r7, #4]
 721:Generated_Source\PSoC5/ADC_SAR_1.c ****     ADC_SAR_1_countsPer10Volt = adcGain;
 828              		.loc 1 721 0
 829 0008 034A     		ldr	r2, .L58
 830 000a 7B68     		ldr	r3, [r7, #4]
 831 000c 1360     		str	r3, [r2]
 722:Generated_Source\PSoC5/ADC_SAR_1.c **** }
 832              		.loc 1 722 0
 833 000e 0C37     		adds	r7, r7, #12
 834              		.cfi_def_cfa_offset 4
 835 0010 BD46     		mov	sp, r7
 836              		.cfi_def_cfa_register 13
 837              		@ sp needed
 838 0012 5DF8047B 		ldr	r7, [sp], #4
 839              		.cfi_restore 7
 840              		.cfi_def_cfa_offset 0
 841 0016 7047     		bx	lr
 842              	.L59:
 843              		.align	2
 844              	.L58:
 845 0018 00000000 		.word	ADC_SAR_1_countsPer10Volt
 846              		.cfi_endproc
 847              	.LFE12:
 848              		.size	ADC_SAR_1_SetScaledGain, .-ADC_SAR_1_SetScaledGain
 849              		.section	.text.ADC_SAR_1_CountsTo_mVolts,"ax",%progbits
 850              		.align	2
 851              		.global	ADC_SAR_1_CountsTo_mVolts
 852              		.thumb
 853              		.thumb_func
 854              		.type	ADC_SAR_1_CountsTo_mVolts, %function
 855              	ADC_SAR_1_CountsTo_mVolts:
 856              	.LFB13:
 723:Generated_Source\PSoC5/ADC_SAR_1.c **** 
 724:Generated_Source\PSoC5/ADC_SAR_1.c **** 
 725:Generated_Source\PSoC5/ADC_SAR_1.c **** /*******************************************************************************
 726:Generated_Source\PSoC5/ADC_SAR_1.c **** * Function Name: ADC_SAR_1_CountsTo_mVolts
 727:Generated_Source\PSoC5/ADC_SAR_1.c **** ********************************************************************************
 728:Generated_Source\PSoC5/ADC_SAR_1.c **** *
 729:Generated_Source\PSoC5/ADC_SAR_1.c **** * Summary:
 730:Generated_Source\PSoC5/ADC_SAR_1.c **** *  Converts the ADC output to millivolts as a 16-bit integer.
 731:Generated_Source\PSoC5/ADC_SAR_1.c **** *
 732:Generated_Source\PSoC5/ADC_SAR_1.c **** * Parameters:
 733:Generated_Source\PSoC5/ADC_SAR_1.c **** *  int16 adcCounts:  Result from the ADC conversion
 734:Generated_Source\PSoC5/ADC_SAR_1.c **** *
 735:Generated_Source\PSoC5/ADC_SAR_1.c **** * Return:
 736:Generated_Source\PSoC5/ADC_SAR_1.c **** *  int16 Result in mVolts
 737:Generated_Source\PSoC5/ADC_SAR_1.c **** *
 738:Generated_Source\PSoC5/ADC_SAR_1.c **** * Global Variables:
 739:Generated_Source\PSoC5/ADC_SAR_1.c **** *  ADC_SAR_1_offset variable used.
ARM GAS  C:\Users\ben\AppData\Local\Temp\cc4JC7lV.s 			page 29


 740:Generated_Source\PSoC5/ADC_SAR_1.c **** *  ADC_SAR_1_countsPer10Volt variable used.
 741:Generated_Source\PSoC5/ADC_SAR_1.c **** *
 742:Generated_Source\PSoC5/ADC_SAR_1.c **** *******************************************************************************/
 743:Generated_Source\PSoC5/ADC_SAR_1.c **** int16 ADC_SAR_1_CountsTo_mVolts(int16 adcCounts)
 744:Generated_Source\PSoC5/ADC_SAR_1.c **** {
 857              		.loc 1 744 0
 858              		.cfi_startproc
 859              		@ args = 0, pretend = 0, frame = 16
 860              		@ frame_needed = 1, uses_anonymous_args = 0
 861              		@ link register save eliminated.
 862 0000 80B4     		push	{r7}
 863              		.cfi_def_cfa_offset 4
 864              		.cfi_offset 7, -4
 865 0002 85B0     		sub	sp, sp, #20
 866              		.cfi_def_cfa_offset 24
 867 0004 00AF     		add	r7, sp, #0
 868              		.cfi_def_cfa_register 7
 869 0006 0346     		mov	r3, r0
 870 0008 FB80     		strh	r3, [r7, #6]	@ movhi
 745:Generated_Source\PSoC5/ADC_SAR_1.c ****     int16 mVolts;
 746:Generated_Source\PSoC5/ADC_SAR_1.c ****     int32 countsPer10Volt;
 747:Generated_Source\PSoC5/ADC_SAR_1.c **** 
 748:Generated_Source\PSoC5/ADC_SAR_1.c ****     if(ADC_SAR_1_countsPerVolt != 0)
 871              		.loc 1 748 0
 872 000a 1D4B     		ldr	r3, .L66
 873 000c 1B88     		ldrh	r3, [r3]	@ movhi
 874 000e 9BB2     		uxth	r3, r3
 875 0010 002B     		cmp	r3, #0
 876 0012 09D0     		beq	.L61
 749:Generated_Source\PSoC5/ADC_SAR_1.c ****     {   /* Support obsolete method */
 750:Generated_Source\PSoC5/ADC_SAR_1.c ****         countsPer10Volt = (int32)ADC_SAR_1_countsPerVolt * 10;
 877              		.loc 1 750 0
 878 0014 1A4B     		ldr	r3, .L66
 879 0016 1B88     		ldrh	r3, [r3]	@ movhi
 880 0018 9BB2     		uxth	r3, r3
 881 001a 1AB2     		sxth	r2, r3
 882 001c 1346     		mov	r3, r2
 883 001e 9B00     		lsls	r3, r3, #2
 884 0020 1344     		add	r3, r3, r2
 885 0022 5B00     		lsls	r3, r3, #1
 886 0024 FB60     		str	r3, [r7, #12]
 887 0026 02E0     		b	.L62
 888              	.L61:
 751:Generated_Source\PSoC5/ADC_SAR_1.c ****     }
 752:Generated_Source\PSoC5/ADC_SAR_1.c ****     else
 753:Generated_Source\PSoC5/ADC_SAR_1.c ****     {
 754:Generated_Source\PSoC5/ADC_SAR_1.c ****         countsPer10Volt = ADC_SAR_1_countsPer10Volt;
 889              		.loc 1 754 0
 890 0028 164B     		ldr	r3, .L66+4
 891 002a 1B68     		ldr	r3, [r3]
 892 002c FB60     		str	r3, [r7, #12]
 893              	.L62:
 755:Generated_Source\PSoC5/ADC_SAR_1.c ****     }
 756:Generated_Source\PSoC5/ADC_SAR_1.c **** 
 757:Generated_Source\PSoC5/ADC_SAR_1.c ****     /* Subtract ADC offset */
 758:Generated_Source\PSoC5/ADC_SAR_1.c ****     adcCounts -= ADC_SAR_1_offset;
 894              		.loc 1 758 0
ARM GAS  C:\Users\ben\AppData\Local\Temp\cc4JC7lV.s 			page 30


 895 002e 164B     		ldr	r3, .L66+8
 896 0030 1B88     		ldrh	r3, [r3]	@ movhi
 897 0032 9BB2     		uxth	r3, r3
 898 0034 FA88     		ldrh	r2, [r7, #6]
 899 0036 9BB2     		uxth	r3, r3
 900 0038 D31A     		subs	r3, r2, r3
 901 003a 9BB2     		uxth	r3, r3
 902 003c FB80     		strh	r3, [r7, #6]	@ movhi
 759:Generated_Source\PSoC5/ADC_SAR_1.c ****     /* Convert to millivolts with rounding */
 760:Generated_Source\PSoC5/ADC_SAR_1.c ****     mVolts = (int16)( (( (int32)adcCounts * ADC_SAR_1_10MV_COUNTS ) + ( (adcCounts > 0) ?
 903              		.loc 1 760 0
 904 003e B7F90630 		ldrsh	r3, [r7, #6]
 905 0042 42F21072 		movw	r2, #10000
 906 0046 02FB03F2 		mul	r2, r2, r3
 761:Generated_Source\PSoC5/ADC_SAR_1.c ****                        (countsPer10Volt / 2) : (-(countsPer10Volt / 2)) )) / countsPer10Volt);
 907              		.loc 1 761 0
 908 004a B7F90630 		ldrsh	r3, [r7, #6]
 909 004e 002B     		cmp	r3, #0
 910 0050 04DD     		ble	.L63
 911              		.loc 1 761 0 is_stmt 0 discriminator 1
 912 0052 FB68     		ldr	r3, [r7, #12]
 913 0054 D90F     		lsrs	r1, r3, #31
 914 0056 0B44     		add	r3, r3, r1
 915 0058 5B10     		asrs	r3, r3, #1
 916 005a 04E0     		b	.L64
 917              	.L63:
 918              		.loc 1 761 0 discriminator 2
 919 005c FB68     		ldr	r3, [r7, #12]
 920 005e D90F     		lsrs	r1, r3, #31
 921 0060 0B44     		add	r3, r3, r1
 922 0062 5B10     		asrs	r3, r3, #1
 923 0064 5B42     		negs	r3, r3
 924              	.L64:
 760:Generated_Source\PSoC5/ADC_SAR_1.c ****                        (countsPer10Volt / 2) : (-(countsPer10Volt / 2)) )) / countsPer10Volt);
 925              		.loc 1 760 0 is_stmt 1
 926 0066 1A44     		add	r2, r2, r3
 927              		.loc 1 761 0
 928 0068 FB68     		ldr	r3, [r7, #12]
 929 006a 92FBF3F3 		sdiv	r3, r2, r3
 760:Generated_Source\PSoC5/ADC_SAR_1.c ****                        (countsPer10Volt / 2) : (-(countsPer10Volt / 2)) )) / countsPer10Volt);
 930              		.loc 1 760 0
 931 006e 7B81     		strh	r3, [r7, #10]	@ movhi
 762:Generated_Source\PSoC5/ADC_SAR_1.c **** 
 763:Generated_Source\PSoC5/ADC_SAR_1.c ****     return( mVolts );
 932              		.loc 1 763 0
 933 0070 7B89     		ldrh	r3, [r7, #10]
 934 0072 1BB2     		sxth	r3, r3
 764:Generated_Source\PSoC5/ADC_SAR_1.c **** }
 935              		.loc 1 764 0
 936 0074 1846     		mov	r0, r3
 937 0076 1437     		adds	r7, r7, #20
 938              		.cfi_def_cfa_offset 4
 939 0078 BD46     		mov	sp, r7
 940              		.cfi_def_cfa_register 13
 941              		@ sp needed
 942 007a 5DF8047B 		ldr	r7, [sp], #4
 943              		.cfi_restore 7
ARM GAS  C:\Users\ben\AppData\Local\Temp\cc4JC7lV.s 			page 31


 944              		.cfi_def_cfa_offset 0
 945 007e 7047     		bx	lr
 946              	.L67:
 947              		.align	2
 948              	.L66:
 949 0080 00000000 		.word	ADC_SAR_1_countsPerVolt
 950 0084 00000000 		.word	ADC_SAR_1_countsPer10Volt
 951 0088 00000000 		.word	ADC_SAR_1_offset
 952              		.cfi_endproc
 953              	.LFE13:
 954              		.size	ADC_SAR_1_CountsTo_mVolts, .-ADC_SAR_1_CountsTo_mVolts
 955              		.global	__aeabi_ldivmod
 956              		.section	.text.ADC_SAR_1_CountsTo_uVolts,"ax",%progbits
 957              		.align	2
 958              		.global	ADC_SAR_1_CountsTo_uVolts
 959              		.thumb
 960              		.thumb_func
 961              		.type	ADC_SAR_1_CountsTo_uVolts, %function
 962              	ADC_SAR_1_CountsTo_uVolts:
 963              	.LFB14:
 765:Generated_Source\PSoC5/ADC_SAR_1.c **** 
 766:Generated_Source\PSoC5/ADC_SAR_1.c **** 
 767:Generated_Source\PSoC5/ADC_SAR_1.c **** /*******************************************************************************
 768:Generated_Source\PSoC5/ADC_SAR_1.c **** * Function Name: ADC_SAR_1_CountsTo_uVolts
 769:Generated_Source\PSoC5/ADC_SAR_1.c **** ********************************************************************************
 770:Generated_Source\PSoC5/ADC_SAR_1.c **** *
 771:Generated_Source\PSoC5/ADC_SAR_1.c **** * Summary:
 772:Generated_Source\PSoC5/ADC_SAR_1.c **** *  Converts the ADC output to microvolts as a 32-bit integer.
 773:Generated_Source\PSoC5/ADC_SAR_1.c **** *
 774:Generated_Source\PSoC5/ADC_SAR_1.c **** * Parameters:
 775:Generated_Source\PSoC5/ADC_SAR_1.c **** *  int16 adcCounts: Result from the ADC conversion
 776:Generated_Source\PSoC5/ADC_SAR_1.c **** *
 777:Generated_Source\PSoC5/ADC_SAR_1.c **** * Return:
 778:Generated_Source\PSoC5/ADC_SAR_1.c **** *  int32 Result in micro Volts
 779:Generated_Source\PSoC5/ADC_SAR_1.c **** *
 780:Generated_Source\PSoC5/ADC_SAR_1.c **** * Global Variables:
 781:Generated_Source\PSoC5/ADC_SAR_1.c **** *  ADC_SAR_1_offset variable used.
 782:Generated_Source\PSoC5/ADC_SAR_1.c **** *  ADC_SAR_1_countsPer10Volt used to convert ADC counts to uVolts.
 783:Generated_Source\PSoC5/ADC_SAR_1.c **** *
 784:Generated_Source\PSoC5/ADC_SAR_1.c **** *******************************************************************************/
 785:Generated_Source\PSoC5/ADC_SAR_1.c **** int32 ADC_SAR_1_CountsTo_uVolts(int16 adcCounts)
 786:Generated_Source\PSoC5/ADC_SAR_1.c **** {
 964              		.loc 1 786 0
 965              		.cfi_startproc
 966              		@ args = 0, pretend = 0, frame = 24
 967              		@ frame_needed = 1, uses_anonymous_args = 0
 968 0000 B0B5     		push	{r4, r5, r7, lr}
 969              		.cfi_def_cfa_offset 16
 970              		.cfi_offset 4, -16
 971              		.cfi_offset 5, -12
 972              		.cfi_offset 7, -8
 973              		.cfi_offset 14, -4
 974 0002 86B0     		sub	sp, sp, #24
 975              		.cfi_def_cfa_offset 40
 976 0004 00AF     		add	r7, sp, #0
 977              		.cfi_def_cfa_register 7
 978 0006 0346     		mov	r3, r0
ARM GAS  C:\Users\ben\AppData\Local\Temp\cc4JC7lV.s 			page 32


 979 0008 FB80     		strh	r3, [r7, #6]	@ movhi
 787:Generated_Source\PSoC5/ADC_SAR_1.c **** 
 788:Generated_Source\PSoC5/ADC_SAR_1.c ****     int64 uVolts;
 789:Generated_Source\PSoC5/ADC_SAR_1.c ****     int32 countsPer10Volt;
 790:Generated_Source\PSoC5/ADC_SAR_1.c **** 
 791:Generated_Source\PSoC5/ADC_SAR_1.c ****     if(ADC_SAR_1_countsPerVolt != 0)
 980              		.loc 1 791 0
 981 000a 1E4B     		ldr	r3, .L72
 982 000c 1B88     		ldrh	r3, [r3]	@ movhi
 983 000e 9BB2     		uxth	r3, r3
 984 0010 002B     		cmp	r3, #0
 985 0012 09D0     		beq	.L69
 792:Generated_Source\PSoC5/ADC_SAR_1.c ****     {   /* Support obsolete method */
 793:Generated_Source\PSoC5/ADC_SAR_1.c ****         countsPer10Volt = (int32)ADC_SAR_1_countsPerVolt * 10;
 986              		.loc 1 793 0
 987 0014 1B4B     		ldr	r3, .L72
 988 0016 1B88     		ldrh	r3, [r3]	@ movhi
 989 0018 9BB2     		uxth	r3, r3
 990 001a 1AB2     		sxth	r2, r3
 991 001c 1346     		mov	r3, r2
 992 001e 9B00     		lsls	r3, r3, #2
 993 0020 1344     		add	r3, r3, r2
 994 0022 5B00     		lsls	r3, r3, #1
 995 0024 7B61     		str	r3, [r7, #20]
 996 0026 02E0     		b	.L70
 997              	.L69:
 794:Generated_Source\PSoC5/ADC_SAR_1.c ****     }
 795:Generated_Source\PSoC5/ADC_SAR_1.c ****     else
 796:Generated_Source\PSoC5/ADC_SAR_1.c ****     {
 797:Generated_Source\PSoC5/ADC_SAR_1.c ****         countsPer10Volt = ADC_SAR_1_countsPer10Volt;
 998              		.loc 1 797 0
 999 0028 174B     		ldr	r3, .L72+4
 1000 002a 1B68     		ldr	r3, [r3]
 1001 002c 7B61     		str	r3, [r7, #20]
 1002              	.L70:
 798:Generated_Source\PSoC5/ADC_SAR_1.c ****     }
 799:Generated_Source\PSoC5/ADC_SAR_1.c **** 
 800:Generated_Source\PSoC5/ADC_SAR_1.c ****     /* Subtract ADC offset */
 801:Generated_Source\PSoC5/ADC_SAR_1.c ****     adcCounts -= ADC_SAR_1_offset;
 1003              		.loc 1 801 0
 1004 002e 174B     		ldr	r3, .L72+8
 1005 0030 1B88     		ldrh	r3, [r3]	@ movhi
 1006 0032 9BB2     		uxth	r3, r3
 1007 0034 FA88     		ldrh	r2, [r7, #6]
 1008 0036 9BB2     		uxth	r3, r3
 1009 0038 D31A     		subs	r3, r2, r3
 1010 003a 9BB2     		uxth	r3, r3
 1011 003c FB80     		strh	r3, [r7, #6]	@ movhi
 802:Generated_Source\PSoC5/ADC_SAR_1.c ****     /* To convert adcCounts to microVolts it is required to be multiplied
 803:Generated_Source\PSoC5/ADC_SAR_1.c ****     *  on 10 million and later divide on gain in counts per 10V.
 804:Generated_Source\PSoC5/ADC_SAR_1.c ****     */
 805:Generated_Source\PSoC5/ADC_SAR_1.c ****     uVolts = (( (int64)adcCounts * ADC_SAR_1_10UV_COUNTS ) / countsPer10Volt);
 1012              		.loc 1 805 0
 1013 003e B7F90620 		ldrsh	r2, [r7, #6]
 1014 0042 4FEAE273 		asr	r3, r2, #31
 1015 0046 1249     		ldr	r1, .L72+12
 1016 0048 01FB03F0 		mul	r0, r1, r3
ARM GAS  C:\Users\ben\AppData\Local\Temp\cc4JC7lV.s 			page 33


 1017 004c 0021     		movs	r1, #0
 1018 004e 01FB02F1 		mul	r1, r1, r2
 1019 0052 0144     		add	r1, r1, r0
 1020 0054 0E48     		ldr	r0, .L72+12
 1021 0056 A2FB0023 		umull	r2, r3, r2, r0
 1022 005a 1944     		add	r1, r1, r3
 1023 005c 0B46     		mov	r3, r1
 1024 005e 7969     		ldr	r1, [r7, #20]
 1025 0060 0C46     		mov	r4, r1
 1026 0062 4FEAE475 		asr	r5, r4, #31
 1027 0066 1046     		mov	r0, r2
 1028 0068 1946     		mov	r1, r3
 1029 006a 2246     		mov	r2, r4
 1030 006c 2B46     		mov	r3, r5
 1031 006e FFF7FEFF 		bl	__aeabi_ldivmod
 1032 0072 0246     		mov	r2, r0
 1033 0074 0B46     		mov	r3, r1
 1034 0076 C7E90223 		strd	r2, [r7, #8]
 806:Generated_Source\PSoC5/ADC_SAR_1.c **** 
 807:Generated_Source\PSoC5/ADC_SAR_1.c ****     return( uVolts );
 1035              		.loc 1 807 0
 1036 007a BB68     		ldr	r3, [r7, #8]
 808:Generated_Source\PSoC5/ADC_SAR_1.c **** }
 1037              		.loc 1 808 0
 1038 007c 1846     		mov	r0, r3
 1039 007e 1837     		adds	r7, r7, #24
 1040              		.cfi_def_cfa_offset 16
 1041 0080 BD46     		mov	sp, r7
 1042              		.cfi_def_cfa_register 13
 1043              		@ sp needed
 1044 0082 B0BD     		pop	{r4, r5, r7, pc}
 1045              	.L73:
 1046              		.align	2
 1047              	.L72:
 1048 0084 00000000 		.word	ADC_SAR_1_countsPerVolt
 1049 0088 00000000 		.word	ADC_SAR_1_countsPer10Volt
 1050 008c 00000000 		.word	ADC_SAR_1_offset
 1051 0090 80969800 		.word	10000000
 1052              		.cfi_endproc
 1053              	.LFE14:
 1054              		.size	ADC_SAR_1_CountsTo_uVolts, .-ADC_SAR_1_CountsTo_uVolts
 1055              		.global	__aeabi_i2f
 1056              		.global	__aeabi_fmul
 1057              		.global	__aeabi_fdiv
 1058              		.section	.text.ADC_SAR_1_CountsTo_Volts,"ax",%progbits
 1059              		.align	2
 1060              		.global	ADC_SAR_1_CountsTo_Volts
 1061              		.thumb
 1062              		.thumb_func
 1063              		.type	ADC_SAR_1_CountsTo_Volts, %function
 1064              	ADC_SAR_1_CountsTo_Volts:
 1065              	.LFB15:
 809:Generated_Source\PSoC5/ADC_SAR_1.c **** 
 810:Generated_Source\PSoC5/ADC_SAR_1.c **** 
 811:Generated_Source\PSoC5/ADC_SAR_1.c **** /*******************************************************************************
 812:Generated_Source\PSoC5/ADC_SAR_1.c **** * Function Name: ADC_SAR_1_CountsTo_Volts
 813:Generated_Source\PSoC5/ADC_SAR_1.c **** ********************************************************************************
ARM GAS  C:\Users\ben\AppData\Local\Temp\cc4JC7lV.s 			page 34


 814:Generated_Source\PSoC5/ADC_SAR_1.c **** *
 815:Generated_Source\PSoC5/ADC_SAR_1.c **** * Summary:
 816:Generated_Source\PSoC5/ADC_SAR_1.c **** *  Converts the ADC output to volts as a floating-point number.
 817:Generated_Source\PSoC5/ADC_SAR_1.c **** *
 818:Generated_Source\PSoC5/ADC_SAR_1.c **** * Parameters:
 819:Generated_Source\PSoC5/ADC_SAR_1.c **** *  int16 adcCounts: Result from the ADC conversion
 820:Generated_Source\PSoC5/ADC_SAR_1.c **** *
 821:Generated_Source\PSoC5/ADC_SAR_1.c **** * Return:
 822:Generated_Source\PSoC5/ADC_SAR_1.c **** *  float Result in Volts
 823:Generated_Source\PSoC5/ADC_SAR_1.c **** *
 824:Generated_Source\PSoC5/ADC_SAR_1.c **** * Global Variables:
 825:Generated_Source\PSoC5/ADC_SAR_1.c **** *  ADC_SAR_1_offset variable used.
 826:Generated_Source\PSoC5/ADC_SAR_1.c **** *  ADC_SAR_1_countsPer10Volt used to convert ADC counts to Volts.
 827:Generated_Source\PSoC5/ADC_SAR_1.c **** *
 828:Generated_Source\PSoC5/ADC_SAR_1.c **** *******************************************************************************/
 829:Generated_Source\PSoC5/ADC_SAR_1.c **** float32 ADC_SAR_1_CountsTo_Volts(int16 adcCounts)
 830:Generated_Source\PSoC5/ADC_SAR_1.c **** {
 1066              		.loc 1 830 0
 1067              		.cfi_startproc
 1068              		@ args = 0, pretend = 0, frame = 16
 1069              		@ frame_needed = 1, uses_anonymous_args = 0
 1070 0000 90B5     		push	{r4, r7, lr}
 1071              		.cfi_def_cfa_offset 12
 1072              		.cfi_offset 4, -12
 1073              		.cfi_offset 7, -8
 1074              		.cfi_offset 14, -4
 1075 0002 85B0     		sub	sp, sp, #20
 1076              		.cfi_def_cfa_offset 32
 1077 0004 00AF     		add	r7, sp, #0
 1078              		.cfi_def_cfa_register 7
 1079 0006 0346     		mov	r3, r0
 1080 0008 FB80     		strh	r3, [r7, #6]	@ movhi
 831:Generated_Source\PSoC5/ADC_SAR_1.c ****     float32 volts;
 832:Generated_Source\PSoC5/ADC_SAR_1.c ****     int32 countsPer10Volt;
 833:Generated_Source\PSoC5/ADC_SAR_1.c **** 
 834:Generated_Source\PSoC5/ADC_SAR_1.c ****     if(ADC_SAR_1_countsPerVolt != 0)
 1081              		.loc 1 834 0
 1082 000a 1A4B     		ldr	r3, .L78
 1083 000c 1B88     		ldrh	r3, [r3]	@ movhi
 1084 000e 9BB2     		uxth	r3, r3
 1085 0010 002B     		cmp	r3, #0
 1086 0012 09D0     		beq	.L75
 835:Generated_Source\PSoC5/ADC_SAR_1.c ****     {   /* Support obsolete method */
 836:Generated_Source\PSoC5/ADC_SAR_1.c ****         countsPer10Volt = (int32)ADC_SAR_1_countsPerVolt * 10;
 1087              		.loc 1 836 0
 1088 0014 174B     		ldr	r3, .L78
 1089 0016 1B88     		ldrh	r3, [r3]	@ movhi
 1090 0018 9BB2     		uxth	r3, r3
 1091 001a 1AB2     		sxth	r2, r3
 1092 001c 1346     		mov	r3, r2
 1093 001e 9B00     		lsls	r3, r3, #2
 1094 0020 1344     		add	r3, r3, r2
 1095 0022 5B00     		lsls	r3, r3, #1
 1096 0024 FB60     		str	r3, [r7, #12]
 1097 0026 02E0     		b	.L76
 1098              	.L75:
 837:Generated_Source\PSoC5/ADC_SAR_1.c ****     }
ARM GAS  C:\Users\ben\AppData\Local\Temp\cc4JC7lV.s 			page 35


 838:Generated_Source\PSoC5/ADC_SAR_1.c ****     else
 839:Generated_Source\PSoC5/ADC_SAR_1.c ****     {
 840:Generated_Source\PSoC5/ADC_SAR_1.c ****         countsPer10Volt = ADC_SAR_1_countsPer10Volt;
 1099              		.loc 1 840 0
 1100 0028 134B     		ldr	r3, .L78+4
 1101 002a 1B68     		ldr	r3, [r3]
 1102 002c FB60     		str	r3, [r7, #12]
 1103              	.L76:
 841:Generated_Source\PSoC5/ADC_SAR_1.c ****     }
 842:Generated_Source\PSoC5/ADC_SAR_1.c **** 
 843:Generated_Source\PSoC5/ADC_SAR_1.c ****     /* Subtract ADC offset */
 844:Generated_Source\PSoC5/ADC_SAR_1.c ****     adcCounts -= ADC_SAR_1_offset;
 1104              		.loc 1 844 0
 1105 002e 134B     		ldr	r3, .L78+8
 1106 0030 1B88     		ldrh	r3, [r3]	@ movhi
 1107 0032 9BB2     		uxth	r3, r3
 1108 0034 FA88     		ldrh	r2, [r7, #6]
 1109 0036 9BB2     		uxth	r3, r3
 1110 0038 D31A     		subs	r3, r2, r3
 1111 003a 9BB2     		uxth	r3, r3
 1112 003c FB80     		strh	r3, [r7, #6]	@ movhi
 845:Generated_Source\PSoC5/ADC_SAR_1.c **** 
 846:Generated_Source\PSoC5/ADC_SAR_1.c ****     volts = ((float32)adcCounts * ADC_SAR_1_10V_COUNTS) / (float32)countsPer10Volt;
 1113              		.loc 1 846 0
 1114 003e B7F90630 		ldrsh	r3, [r7, #6]
 1115 0042 1846     		mov	r0, r3
 1116 0044 FFF7FEFF 		bl	__aeabi_i2f
 1117 0048 0346     		mov	r3, r0
 1118 004a 1846     		mov	r0, r3
 1119 004c 0C49     		ldr	r1, .L78+12
 1120 004e FFF7FEFF 		bl	__aeabi_fmul
 1121 0052 0346     		mov	r3, r0
 1122 0054 1C46     		mov	r4, r3
 1123 0056 F868     		ldr	r0, [r7, #12]
 1124 0058 FFF7FEFF 		bl	__aeabi_i2f
 1125 005c 0346     		mov	r3, r0
 1126 005e 2046     		mov	r0, r4
 1127 0060 1946     		mov	r1, r3
 1128 0062 FFF7FEFF 		bl	__aeabi_fdiv
 1129 0066 0346     		mov	r3, r0
 1130 0068 BB60     		str	r3, [r7, #8]	@ float
 847:Generated_Source\PSoC5/ADC_SAR_1.c **** 
 848:Generated_Source\PSoC5/ADC_SAR_1.c ****     return( volts );
 1131              		.loc 1 848 0
 1132 006a BB68     		ldr	r3, [r7, #8]	@ float
 849:Generated_Source\PSoC5/ADC_SAR_1.c **** }
 1133              		.loc 1 849 0
 1134 006c 1846     		mov	r0, r3
 1135 006e 1437     		adds	r7, r7, #20
 1136              		.cfi_def_cfa_offset 12
 1137 0070 BD46     		mov	sp, r7
 1138              		.cfi_def_cfa_register 13
 1139              		@ sp needed
 1140 0072 90BD     		pop	{r4, r7, pc}
 1141              	.L79:
 1142              		.align	2
 1143              	.L78:
ARM GAS  C:\Users\ben\AppData\Local\Temp\cc4JC7lV.s 			page 36


 1144 0074 00000000 		.word	ADC_SAR_1_countsPerVolt
 1145 0078 00000000 		.word	ADC_SAR_1_countsPer10Volt
 1146 007c 00000000 		.word	ADC_SAR_1_offset
 1147 0080 00002041 		.word	1092616192
 1148              		.cfi_endproc
 1149              	.LFE15:
 1150              		.size	ADC_SAR_1_CountsTo_Volts, .-ADC_SAR_1_CountsTo_Volts
 1151              		.text
 1152              	.Letext0:
 1153              		.file 2 "Generated_Source\\PSoC5\\cytypes.h"