ARM GAS  C:\Users\ben\AppData\Local\Temp\cchuLMgj.s 			page 1


   1              		.syntax unified
   2              		.cpu cortex-m3
   3              		.fpu softvfp
   4              		.eabi_attribute 20, 1
   5              		.eabi_attribute 21, 1
   6              		.eabi_attribute 23, 3
   7              		.eabi_attribute 24, 1
   8              		.eabi_attribute 25, 1
   9              		.eabi_attribute 26, 1
  10              		.eabi_attribute 30, 6
  11              		.eabi_attribute 34, 1
  12              		.eabi_attribute 18, 4
  13              		.thumb
  14              		.file	"Counter_6.c"
  15              		.text
  16              	.Ltext0:
  17              		.cfi_sections	.debug_frame
  18              		.global	Counter_6_initVar
  19              		.bss
  20              		.type	Counter_6_initVar, %object
  21              		.size	Counter_6_initVar, 1
  22              	Counter_6_initVar:
  23 0000 00       		.space	1
  24              		.section	.text.Counter_6_Init,"ax",%progbits
  25              		.align	2
  26              		.global	Counter_6_Init
  27              		.thumb
  28              		.thumb_func
  29              		.type	Counter_6_Init, %function
  30              	Counter_6_Init:
  31              	.LFB0:
  32              		.file 1 "Generated_Source\\PSoC5\\Counter_6.c"
   1:Generated_Source\PSoC5/Counter_6.c **** /*******************************************************************************
   2:Generated_Source\PSoC5/Counter_6.c **** * File Name: Counter_6.c  
   3:Generated_Source\PSoC5/Counter_6.c **** * Version 3.0
   4:Generated_Source\PSoC5/Counter_6.c **** *
   5:Generated_Source\PSoC5/Counter_6.c **** *  Description:
   6:Generated_Source\PSoC5/Counter_6.c **** *     The Counter component consists of a 8, 16, 24 or 32-bit counter with
   7:Generated_Source\PSoC5/Counter_6.c **** *     a selectable period between 2 and 2^Width - 1.  
   8:Generated_Source\PSoC5/Counter_6.c **** *
   9:Generated_Source\PSoC5/Counter_6.c **** *   Note:
  10:Generated_Source\PSoC5/Counter_6.c **** *     None
  11:Generated_Source\PSoC5/Counter_6.c **** *
  12:Generated_Source\PSoC5/Counter_6.c **** ********************************************************************************
  13:Generated_Source\PSoC5/Counter_6.c **** * Copyright 2008-2012, Cypress Semiconductor Corporation.  All rights reserved.
  14:Generated_Source\PSoC5/Counter_6.c **** * You may use this file only in accordance with the license, terms, conditions, 
  15:Generated_Source\PSoC5/Counter_6.c **** * disclaimers, and limitations in the end user license agreement accompanying 
  16:Generated_Source\PSoC5/Counter_6.c **** * the software package with which this file was provided.
  17:Generated_Source\PSoC5/Counter_6.c **** *******************************************************************************/
  18:Generated_Source\PSoC5/Counter_6.c **** 
  19:Generated_Source\PSoC5/Counter_6.c **** #include "Counter_6.h"
  20:Generated_Source\PSoC5/Counter_6.c **** 
  21:Generated_Source\PSoC5/Counter_6.c **** uint8 Counter_6_initVar = 0u;
  22:Generated_Source\PSoC5/Counter_6.c **** 
  23:Generated_Source\PSoC5/Counter_6.c **** 
  24:Generated_Source\PSoC5/Counter_6.c **** /*******************************************************************************
  25:Generated_Source\PSoC5/Counter_6.c **** * Function Name: Counter_6_Init
ARM GAS  C:\Users\ben\AppData\Local\Temp\cchuLMgj.s 			page 2


  26:Generated_Source\PSoC5/Counter_6.c **** ********************************************************************************
  27:Generated_Source\PSoC5/Counter_6.c **** * Summary:
  28:Generated_Source\PSoC5/Counter_6.c **** *     Initialize to the schematic state
  29:Generated_Source\PSoC5/Counter_6.c **** * 
  30:Generated_Source\PSoC5/Counter_6.c **** * Parameters:  
  31:Generated_Source\PSoC5/Counter_6.c **** *  void  
  32:Generated_Source\PSoC5/Counter_6.c **** *
  33:Generated_Source\PSoC5/Counter_6.c **** * Return: 
  34:Generated_Source\PSoC5/Counter_6.c **** *  void
  35:Generated_Source\PSoC5/Counter_6.c **** *
  36:Generated_Source\PSoC5/Counter_6.c **** *******************************************************************************/
  37:Generated_Source\PSoC5/Counter_6.c **** void Counter_6_Init(void) 
  38:Generated_Source\PSoC5/Counter_6.c **** {
  33              		.loc 1 38 0
  34              		.cfi_startproc
  35              		@ args = 0, pretend = 0, frame = 8
  36              		@ frame_needed = 1, uses_anonymous_args = 0
  37 0000 80B5     		push	{r7, lr}
  38              		.cfi_def_cfa_offset 8
  39              		.cfi_offset 7, -8
  40              		.cfi_offset 14, -4
  41 0002 82B0     		sub	sp, sp, #8
  42              		.cfi_def_cfa_offset 16
  43 0004 00AF     		add	r7, sp, #0
  44              		.cfi_def_cfa_register 7
  39:Generated_Source\PSoC5/Counter_6.c ****         #if (!Counter_6_UsingFixedFunction && !Counter_6_ControlRegRemoved)
  40:Generated_Source\PSoC5/Counter_6.c ****             uint8 ctrl;
  41:Generated_Source\PSoC5/Counter_6.c ****         #endif /* (!Counter_6_UsingFixedFunction && !Counter_6_ControlRegRemoved) */
  42:Generated_Source\PSoC5/Counter_6.c ****         
  43:Generated_Source\PSoC5/Counter_6.c ****         #if(!Counter_6_UsingFixedFunction) 
  44:Generated_Source\PSoC5/Counter_6.c ****             /* Interrupt State Backup for Critical Region*/
  45:Generated_Source\PSoC5/Counter_6.c ****             uint8 Counter_6_interruptState;
  46:Generated_Source\PSoC5/Counter_6.c ****         #endif /* (!Counter_6_UsingFixedFunction) */
  47:Generated_Source\PSoC5/Counter_6.c ****         
  48:Generated_Source\PSoC5/Counter_6.c ****         #if (Counter_6_UsingFixedFunction)
  49:Generated_Source\PSoC5/Counter_6.c ****             /* Clear all bits but the enable bit (if it's already set for Timer operation */
  50:Generated_Source\PSoC5/Counter_6.c ****             Counter_6_CONTROL &= Counter_6_CTRL_ENABLE;
  51:Generated_Source\PSoC5/Counter_6.c ****             
  52:Generated_Source\PSoC5/Counter_6.c ****             /* Clear the mode bits for continuous run mode */
  53:Generated_Source\PSoC5/Counter_6.c ****             #if (CY_PSOC5A)
  54:Generated_Source\PSoC5/Counter_6.c ****                 Counter_6_CONTROL2 &= ((uint8)(~Counter_6_CTRL_MODE_MASK));
  55:Generated_Source\PSoC5/Counter_6.c ****             #endif /* (CY_PSOC5A) */
  56:Generated_Source\PSoC5/Counter_6.c ****             #if (CY_PSOC3 || CY_PSOC5LP)
  57:Generated_Source\PSoC5/Counter_6.c ****                 Counter_6_CONTROL3 &= ((uint8)(~Counter_6_CTRL_MODE_MASK));                
  58:Generated_Source\PSoC5/Counter_6.c ****             #endif /* (CY_PSOC3 || CY_PSOC5LP) */
  59:Generated_Source\PSoC5/Counter_6.c ****             /* Check if One Shot mode is enabled i.e. RunMode !=0*/
  60:Generated_Source\PSoC5/Counter_6.c ****             #if (Counter_6_RunModeUsed != 0x0u)
  61:Generated_Source\PSoC5/Counter_6.c ****                 /* Set 3rd bit of Control register to enable one shot mode */
  62:Generated_Source\PSoC5/Counter_6.c ****                 Counter_6_CONTROL |= Counter_6_ONESHOT;
  63:Generated_Source\PSoC5/Counter_6.c ****             #endif /* (Counter_6_RunModeUsed != 0x0u) */
  64:Generated_Source\PSoC5/Counter_6.c ****             
  65:Generated_Source\PSoC5/Counter_6.c ****             /* Set the IRQ to use the status register interrupts */
  66:Generated_Source\PSoC5/Counter_6.c ****             Counter_6_CONTROL2 |= Counter_6_CTRL2_IRQ_SEL;
  67:Generated_Source\PSoC5/Counter_6.c ****             
  68:Generated_Source\PSoC5/Counter_6.c ****             /* Clear and Set SYNCTC and SYNCCMP bits of RT1 register */
  69:Generated_Source\PSoC5/Counter_6.c ****             Counter_6_RT1 &= ((uint8)(~Counter_6_RT1_MASK));
  70:Generated_Source\PSoC5/Counter_6.c ****             Counter_6_RT1 |= Counter_6_SYNC;     
ARM GAS  C:\Users\ben\AppData\Local\Temp\cchuLMgj.s 			page 3


  71:Generated_Source\PSoC5/Counter_6.c ****                     
  72:Generated_Source\PSoC5/Counter_6.c ****             /*Enable DSI Sync all all inputs of the Timer*/
  73:Generated_Source\PSoC5/Counter_6.c ****             Counter_6_RT1 &= ((uint8)(~Counter_6_SYNCDSI_MASK));
  74:Generated_Source\PSoC5/Counter_6.c ****             Counter_6_RT1 |= Counter_6_SYNCDSI_EN;
  75:Generated_Source\PSoC5/Counter_6.c **** 
  76:Generated_Source\PSoC5/Counter_6.c ****         #else
  77:Generated_Source\PSoC5/Counter_6.c ****             #if(!Counter_6_ControlRegRemoved)
  78:Generated_Source\PSoC5/Counter_6.c ****             /* Set the default compare mode defined in the parameter */
  79:Generated_Source\PSoC5/Counter_6.c ****             ctrl = Counter_6_CONTROL & ((uint8)(~Counter_6_CTRL_CMPMODE_MASK));
  45              		.loc 1 79 0
  46 0006 1C4B     		ldr	r3, .L2
  47 0008 1B78     		ldrb	r3, [r3]
  48 000a DBB2     		uxtb	r3, r3
  49 000c 23F00703 		bic	r3, r3, #7
  50 0010 FB71     		strb	r3, [r7, #7]
  80:Generated_Source\PSoC5/Counter_6.c ****             Counter_6_CONTROL = ctrl | Counter_6_DEFAULT_COMPARE_MODE;
  51              		.loc 1 80 0
  52 0012 194A     		ldr	r2, .L2
  53 0014 FB79     		ldrb	r3, [r7, #7]
  54 0016 43F00503 		orr	r3, r3, #5
  55 001a DBB2     		uxtb	r3, r3
  56 001c 1370     		strb	r3, [r2]
  81:Generated_Source\PSoC5/Counter_6.c ****             
  82:Generated_Source\PSoC5/Counter_6.c ****             /* Set the default capture mode defined in the parameter */
  83:Generated_Source\PSoC5/Counter_6.c ****             ctrl = Counter_6_CONTROL & ((uint8)(~Counter_6_CTRL_CAPMODE_MASK));
  57              		.loc 1 83 0
  58 001e 164B     		ldr	r3, .L2
  59 0020 1B78     		ldrb	r3, [r3]
  60 0022 DBB2     		uxtb	r3, r3
  61 0024 23F00303 		bic	r3, r3, #3
  62 0028 FB71     		strb	r3, [r7, #7]
  84:Generated_Source\PSoC5/Counter_6.c ****             
  85:Generated_Source\PSoC5/Counter_6.c ****             #if( 0 != Counter_6_CAPTURE_MODE_CONF)
  86:Generated_Source\PSoC5/Counter_6.c ****                 Counter_6_CONTROL = ctrl | Counter_6_DEFAULT_CAPTURE_MODE;
  87:Generated_Source\PSoC5/Counter_6.c ****             #else
  88:Generated_Source\PSoC5/Counter_6.c ****                 Counter_6_CONTROL = ctrl;
  63              		.loc 1 88 0
  64 002a 134A     		ldr	r2, .L2
  65 002c FB79     		ldrb	r3, [r7, #7]
  66 002e 1370     		strb	r3, [r2]
  89:Generated_Source\PSoC5/Counter_6.c ****             #endif /* 0 != Counter_6_CAPTURE_MODE */ 
  90:Generated_Source\PSoC5/Counter_6.c ****             
  91:Generated_Source\PSoC5/Counter_6.c ****             #endif /* (!Counter_6_ControlRegRemoved) */
  92:Generated_Source\PSoC5/Counter_6.c ****         #endif /* (Counter_6_UsingFixedFunction) */
  93:Generated_Source\PSoC5/Counter_6.c ****         
  94:Generated_Source\PSoC5/Counter_6.c ****         /* Clear all data in the FIFO's */
  95:Generated_Source\PSoC5/Counter_6.c ****         #if (!Counter_6_UsingFixedFunction)
  96:Generated_Source\PSoC5/Counter_6.c ****             Counter_6_ClearFIFO();
  67              		.loc 1 96 0
  68 0030 FFF7FEFF 		bl	Counter_6_ClearFIFO
  97:Generated_Source\PSoC5/Counter_6.c ****         #endif /* (!Counter_6_UsingFixedFunction) */
  98:Generated_Source\PSoC5/Counter_6.c ****         
  99:Generated_Source\PSoC5/Counter_6.c ****         /* Set Initial values from Configuration */
 100:Generated_Source\PSoC5/Counter_6.c ****         Counter_6_WritePeriod(Counter_6_INIT_PERIOD_VALUE);
  69              		.loc 1 100 0
  70 0034 FF20     		movs	r0, #255
  71 0036 FFF7FEFF 		bl	Counter_6_WritePeriod
ARM GAS  C:\Users\ben\AppData\Local\Temp\cchuLMgj.s 			page 4


 101:Generated_Source\PSoC5/Counter_6.c ****         #if (!(Counter_6_UsingFixedFunction && (CY_PSOC5A)))
 102:Generated_Source\PSoC5/Counter_6.c ****             Counter_6_WriteCounter(Counter_6_INIT_COUNTER_VALUE);
  72              		.loc 1 102 0
  73 003a 0020     		movs	r0, #0
  74 003c FFF7FEFF 		bl	Counter_6_WriteCounter
 103:Generated_Source\PSoC5/Counter_6.c ****         #endif /* (!(Counter_6_UsingFixedFunction && (CY_PSOC5A))) */
 104:Generated_Source\PSoC5/Counter_6.c ****         Counter_6_SetInterruptMode(Counter_6_INIT_INTERRUPTS_MASK);
  75              		.loc 1 104 0
  76 0040 0020     		movs	r0, #0
  77 0042 FFF7FEFF 		bl	Counter_6_SetInterruptMode
 105:Generated_Source\PSoC5/Counter_6.c ****         
 106:Generated_Source\PSoC5/Counter_6.c ****         #if (!Counter_6_UsingFixedFunction)
 107:Generated_Source\PSoC5/Counter_6.c ****             /* Read the status register to clear the unwanted interrupts */
 108:Generated_Source\PSoC5/Counter_6.c ****             (void)Counter_6_ReadStatusRegister();
  78              		.loc 1 108 0
  79 0046 FFF7FEFF 		bl	Counter_6_ReadStatusRegister
 109:Generated_Source\PSoC5/Counter_6.c ****             /* Set the compare value (only available to non-fixed function implementation */
 110:Generated_Source\PSoC5/Counter_6.c ****             Counter_6_WriteCompare(Counter_6_INIT_COMPARE_VALUE);
  80              		.loc 1 110 0
  81 004a 0120     		movs	r0, #1
  82 004c FFF7FEFF 		bl	Counter_6_WriteCompare
 111:Generated_Source\PSoC5/Counter_6.c ****             /* Use the interrupt output of the status register for IRQ output */
 112:Generated_Source\PSoC5/Counter_6.c ****             
 113:Generated_Source\PSoC5/Counter_6.c ****             /* CyEnterCriticalRegion and CyExitCriticalRegion are used to mark following region cri
 114:Generated_Source\PSoC5/Counter_6.c ****             /* Enter Critical Region*/
 115:Generated_Source\PSoC5/Counter_6.c ****             Counter_6_interruptState = CyEnterCriticalSection();
  83              		.loc 1 115 0
  84 0050 FFF7FEFF 		bl	CyEnterCriticalSection
  85 0054 0346     		mov	r3, r0
  86 0056 BB71     		strb	r3, [r7, #6]
 116:Generated_Source\PSoC5/Counter_6.c ****             
 117:Generated_Source\PSoC5/Counter_6.c ****             Counter_6_STATUS_AUX_CTRL |= Counter_6_STATUS_ACTL_INT_EN_MASK;
  87              		.loc 1 117 0
  88 0058 084A     		ldr	r2, .L2+4
  89 005a 084B     		ldr	r3, .L2+4
  90 005c 1B78     		ldrb	r3, [r3]
  91 005e DBB2     		uxtb	r3, r3
  92 0060 43F01003 		orr	r3, r3, #16
  93 0064 DBB2     		uxtb	r3, r3
  94 0066 1370     		strb	r3, [r2]
 118:Generated_Source\PSoC5/Counter_6.c ****             
 119:Generated_Source\PSoC5/Counter_6.c ****             /* Exit Critical Region*/
 120:Generated_Source\PSoC5/Counter_6.c ****             CyExitCriticalSection(Counter_6_interruptState);
  95              		.loc 1 120 0
  96 0068 BB79     		ldrb	r3, [r7, #6]	@ zero_extendqisi2
  97 006a 1846     		mov	r0, r3
  98 006c FFF7FEFF 		bl	CyExitCriticalSection
 121:Generated_Source\PSoC5/Counter_6.c ****             
 122:Generated_Source\PSoC5/Counter_6.c ****         #endif /* (!Counter_6_UsingFixedFunction) */
 123:Generated_Source\PSoC5/Counter_6.c **** }
  99              		.loc 1 123 0
 100 0070 0837     		adds	r7, r7, #8
 101              		.cfi_def_cfa_offset 8
 102 0072 BD46     		mov	sp, r7
 103              		.cfi_def_cfa_register 13
 104              		@ sp needed
 105 0074 80BD     		pop	{r7, pc}
ARM GAS  C:\Users\ben\AppData\Local\Temp\cchuLMgj.s 			page 5


 106              	.L3:
 107 0076 00BF     		.align	2
 108              	.L2:
 109 0078 72640040 		.word	1073767538
 110 007c 92640040 		.word	1073767570
 111              		.cfi_endproc
 112              	.LFE0:
 113              		.size	Counter_6_Init, .-Counter_6_Init
 114              		.section	.text.Counter_6_Enable,"ax",%progbits
 115              		.align	2
 116              		.global	Counter_6_Enable
 117              		.thumb
 118              		.thumb_func
 119              		.type	Counter_6_Enable, %function
 120              	Counter_6_Enable:
 121              	.LFB1:
 124:Generated_Source\PSoC5/Counter_6.c **** 
 125:Generated_Source\PSoC5/Counter_6.c **** 
 126:Generated_Source\PSoC5/Counter_6.c **** /*******************************************************************************
 127:Generated_Source\PSoC5/Counter_6.c **** * Function Name: Counter_6_Enable
 128:Generated_Source\PSoC5/Counter_6.c **** ********************************************************************************
 129:Generated_Source\PSoC5/Counter_6.c **** * Summary:
 130:Generated_Source\PSoC5/Counter_6.c **** *     Enable the Counter
 131:Generated_Source\PSoC5/Counter_6.c **** * 
 132:Generated_Source\PSoC5/Counter_6.c **** * Parameters:  
 133:Generated_Source\PSoC5/Counter_6.c **** *  void  
 134:Generated_Source\PSoC5/Counter_6.c **** *
 135:Generated_Source\PSoC5/Counter_6.c **** * Return: 
 136:Generated_Source\PSoC5/Counter_6.c **** *  void
 137:Generated_Source\PSoC5/Counter_6.c **** *
 138:Generated_Source\PSoC5/Counter_6.c **** * Side Effects: 
 139:Generated_Source\PSoC5/Counter_6.c **** *   If the Enable mode is set to Hardware only then this function has no effect 
 140:Generated_Source\PSoC5/Counter_6.c **** *   on the operation of the counter.
 141:Generated_Source\PSoC5/Counter_6.c **** *
 142:Generated_Source\PSoC5/Counter_6.c **** *******************************************************************************/
 143:Generated_Source\PSoC5/Counter_6.c **** void Counter_6_Enable(void) 
 144:Generated_Source\PSoC5/Counter_6.c **** {
 122              		.loc 1 144 0
 123              		.cfi_startproc
 124              		@ args = 0, pretend = 0, frame = 0
 125              		@ frame_needed = 1, uses_anonymous_args = 0
 126              		@ link register save eliminated.
 127 0000 80B4     		push	{r7}
 128              		.cfi_def_cfa_offset 4
 129              		.cfi_offset 7, -4
 130 0002 00AF     		add	r7, sp, #0
 131              		.cfi_def_cfa_register 7
 145:Generated_Source\PSoC5/Counter_6.c ****     /* Globally Enable the Fixed Function Block chosen */
 146:Generated_Source\PSoC5/Counter_6.c ****     #if (Counter_6_UsingFixedFunction)
 147:Generated_Source\PSoC5/Counter_6.c ****         Counter_6_GLOBAL_ENABLE |= Counter_6_BLOCK_EN_MASK;
 148:Generated_Source\PSoC5/Counter_6.c ****         Counter_6_GLOBAL_STBY_ENABLE |= Counter_6_BLOCK_STBY_EN_MASK;
 149:Generated_Source\PSoC5/Counter_6.c ****     #endif /* (Counter_6_UsingFixedFunction) */  
 150:Generated_Source\PSoC5/Counter_6.c ****         
 151:Generated_Source\PSoC5/Counter_6.c ****     /* Enable the counter from the control register  */
 152:Generated_Source\PSoC5/Counter_6.c ****     /* If Fixed Function then make sure Mode is set correctly */
 153:Generated_Source\PSoC5/Counter_6.c ****     /* else make sure reset is clear */
 154:Generated_Source\PSoC5/Counter_6.c ****     #if(!Counter_6_ControlRegRemoved || Counter_6_UsingFixedFunction)
ARM GAS  C:\Users\ben\AppData\Local\Temp\cchuLMgj.s 			page 6


 155:Generated_Source\PSoC5/Counter_6.c ****         Counter_6_CONTROL |= Counter_6_CTRL_ENABLE;                
 132              		.loc 1 155 0
 133 0004 054A     		ldr	r2, .L5
 134 0006 054B     		ldr	r3, .L5
 135 0008 1B78     		ldrb	r3, [r3]
 136 000a DBB2     		uxtb	r3, r3
 137 000c 63F07F03 		orn	r3, r3, #127
 138 0010 DBB2     		uxtb	r3, r3
 139 0012 1370     		strb	r3, [r2]
 156:Generated_Source\PSoC5/Counter_6.c ****     #endif /* (!Counter_6_ControlRegRemoved || Counter_6_UsingFixedFunction) */
 157:Generated_Source\PSoC5/Counter_6.c ****     
 158:Generated_Source\PSoC5/Counter_6.c **** }
 140              		.loc 1 158 0
 141 0014 BD46     		mov	sp, r7
 142              		.cfi_def_cfa_register 13
 143              		@ sp needed
 144 0016 5DF8047B 		ldr	r7, [sp], #4
 145              		.cfi_restore 7
 146              		.cfi_def_cfa_offset 0
 147 001a 7047     		bx	lr
 148              	.L6:
 149              		.align	2
 150              	.L5:
 151 001c 72640040 		.word	1073767538
 152              		.cfi_endproc
 153              	.LFE1:
 154              		.size	Counter_6_Enable, .-Counter_6_Enable
 155              		.section	.text.Counter_6_Start,"ax",%progbits
 156              		.align	2
 157              		.global	Counter_6_Start
 158              		.thumb
 159              		.thumb_func
 160              		.type	Counter_6_Start, %function
 161              	Counter_6_Start:
 162              	.LFB2:
 159:Generated_Source\PSoC5/Counter_6.c **** 
 160:Generated_Source\PSoC5/Counter_6.c **** 
 161:Generated_Source\PSoC5/Counter_6.c **** /*******************************************************************************
 162:Generated_Source\PSoC5/Counter_6.c **** * Function Name: Counter_6_Start
 163:Generated_Source\PSoC5/Counter_6.c **** ********************************************************************************
 164:Generated_Source\PSoC5/Counter_6.c **** * Summary:
 165:Generated_Source\PSoC5/Counter_6.c **** *  Enables the counter for operation 
 166:Generated_Source\PSoC5/Counter_6.c **** *
 167:Generated_Source\PSoC5/Counter_6.c **** * Parameters:  
 168:Generated_Source\PSoC5/Counter_6.c **** *  void  
 169:Generated_Source\PSoC5/Counter_6.c **** *
 170:Generated_Source\PSoC5/Counter_6.c **** * Return: 
 171:Generated_Source\PSoC5/Counter_6.c **** *  void
 172:Generated_Source\PSoC5/Counter_6.c **** *
 173:Generated_Source\PSoC5/Counter_6.c **** * Global variables:
 174:Generated_Source\PSoC5/Counter_6.c **** *  Counter_6_initVar: Is modified when this function is called for the  
 175:Generated_Source\PSoC5/Counter_6.c **** *   first time. Is used to ensure that initialization happens only once.
 176:Generated_Source\PSoC5/Counter_6.c **** *
 177:Generated_Source\PSoC5/Counter_6.c **** *******************************************************************************/
 178:Generated_Source\PSoC5/Counter_6.c **** void Counter_6_Start(void) 
 179:Generated_Source\PSoC5/Counter_6.c **** {
 163              		.loc 1 179 0
ARM GAS  C:\Users\ben\AppData\Local\Temp\cchuLMgj.s 			page 7


 164              		.cfi_startproc
 165              		@ args = 0, pretend = 0, frame = 0
 166              		@ frame_needed = 1, uses_anonymous_args = 0
 167 0000 80B5     		push	{r7, lr}
 168              		.cfi_def_cfa_offset 8
 169              		.cfi_offset 7, -8
 170              		.cfi_offset 14, -4
 171 0002 00AF     		add	r7, sp, #0
 172              		.cfi_def_cfa_register 7
 180:Generated_Source\PSoC5/Counter_6.c ****     if(Counter_6_initVar == 0u)
 173              		.loc 1 180 0
 174 0004 054B     		ldr	r3, .L9
 175 0006 1B78     		ldrb	r3, [r3]	@ zero_extendqisi2
 176 0008 002B     		cmp	r3, #0
 177 000a 04D1     		bne	.L8
 181:Generated_Source\PSoC5/Counter_6.c ****     {
 182:Generated_Source\PSoC5/Counter_6.c ****         Counter_6_Init();
 178              		.loc 1 182 0
 179 000c FFF7FEFF 		bl	Counter_6_Init
 183:Generated_Source\PSoC5/Counter_6.c ****         
 184:Generated_Source\PSoC5/Counter_6.c ****         Counter_6_initVar = 1u; /* Clear this bit for Initialization */        
 180              		.loc 1 184 0
 181 0010 024B     		ldr	r3, .L9
 182 0012 0122     		movs	r2, #1
 183 0014 1A70     		strb	r2, [r3]
 184              	.L8:
 185:Generated_Source\PSoC5/Counter_6.c ****     }
 186:Generated_Source\PSoC5/Counter_6.c ****     
 187:Generated_Source\PSoC5/Counter_6.c ****     /* Enable the Counter */
 188:Generated_Source\PSoC5/Counter_6.c ****     Counter_6_Enable();        
 185              		.loc 1 188 0
 186 0016 FFF7FEFF 		bl	Counter_6_Enable
 189:Generated_Source\PSoC5/Counter_6.c **** }
 187              		.loc 1 189 0
 188 001a 80BD     		pop	{r7, pc}
 189              	.L10:
 190              		.align	2
 191              	.L9:
 192 001c 00000000 		.word	Counter_6_initVar
 193              		.cfi_endproc
 194              	.LFE2:
 195              		.size	Counter_6_Start, .-Counter_6_Start
 196              		.section	.text.Counter_6_Stop,"ax",%progbits
 197              		.align	2
 198              		.global	Counter_6_Stop
 199              		.thumb
 200              		.thumb_func
 201              		.type	Counter_6_Stop, %function
 202              	Counter_6_Stop:
 203              	.LFB3:
 190:Generated_Source\PSoC5/Counter_6.c **** 
 191:Generated_Source\PSoC5/Counter_6.c **** 
 192:Generated_Source\PSoC5/Counter_6.c **** /*******************************************************************************
 193:Generated_Source\PSoC5/Counter_6.c **** * Function Name: Counter_6_Stop
 194:Generated_Source\PSoC5/Counter_6.c **** ********************************************************************************
 195:Generated_Source\PSoC5/Counter_6.c **** * Summary:
 196:Generated_Source\PSoC5/Counter_6.c **** * Halts the counter, but does not change any modes or disable interrupts.
ARM GAS  C:\Users\ben\AppData\Local\Temp\cchuLMgj.s 			page 8


 197:Generated_Source\PSoC5/Counter_6.c **** *
 198:Generated_Source\PSoC5/Counter_6.c **** * Parameters:  
 199:Generated_Source\PSoC5/Counter_6.c **** *  void  
 200:Generated_Source\PSoC5/Counter_6.c **** *
 201:Generated_Source\PSoC5/Counter_6.c **** * Return: 
 202:Generated_Source\PSoC5/Counter_6.c **** *  void
 203:Generated_Source\PSoC5/Counter_6.c **** *
 204:Generated_Source\PSoC5/Counter_6.c **** * Side Effects: If the Enable mode is set to Hardware only then this function
 205:Generated_Source\PSoC5/Counter_6.c **** *               has no effect on the operation of the counter.
 206:Generated_Source\PSoC5/Counter_6.c **** *
 207:Generated_Source\PSoC5/Counter_6.c **** *******************************************************************************/
 208:Generated_Source\PSoC5/Counter_6.c **** void Counter_6_Stop(void) 
 209:Generated_Source\PSoC5/Counter_6.c **** {
 204              		.loc 1 209 0
 205              		.cfi_startproc
 206              		@ args = 0, pretend = 0, frame = 0
 207              		@ frame_needed = 1, uses_anonymous_args = 0
 208              		@ link register save eliminated.
 209 0000 80B4     		push	{r7}
 210              		.cfi_def_cfa_offset 4
 211              		.cfi_offset 7, -4
 212 0002 00AF     		add	r7, sp, #0
 213              		.cfi_def_cfa_register 7
 210:Generated_Source\PSoC5/Counter_6.c ****     /* Disable Counter */
 211:Generated_Source\PSoC5/Counter_6.c ****     #if(!Counter_6_ControlRegRemoved || Counter_6_UsingFixedFunction)
 212:Generated_Source\PSoC5/Counter_6.c ****         Counter_6_CONTROL &= ((uint8)(~Counter_6_CTRL_ENABLE));        
 214              		.loc 1 212 0
 215 0004 054A     		ldr	r2, .L12
 216 0006 054B     		ldr	r3, .L12
 217 0008 1B78     		ldrb	r3, [r3]
 218 000a DBB2     		uxtb	r3, r3
 219 000c 03F07F03 		and	r3, r3, #127
 220 0010 DBB2     		uxtb	r3, r3
 221 0012 1370     		strb	r3, [r2]
 213:Generated_Source\PSoC5/Counter_6.c ****     #endif /* (!Counter_6_ControlRegRemoved || Counter_6_UsingFixedFunction) */
 214:Generated_Source\PSoC5/Counter_6.c ****     
 215:Generated_Source\PSoC5/Counter_6.c ****     /* Globally disable the Fixed Function Block chosen */
 216:Generated_Source\PSoC5/Counter_6.c ****     #if (Counter_6_UsingFixedFunction)
 217:Generated_Source\PSoC5/Counter_6.c ****         Counter_6_GLOBAL_ENABLE &= ((uint8)(~Counter_6_BLOCK_EN_MASK));
 218:Generated_Source\PSoC5/Counter_6.c ****         Counter_6_GLOBAL_STBY_ENABLE &= ((uint8)(~Counter_6_BLOCK_STBY_EN_MASK));
 219:Generated_Source\PSoC5/Counter_6.c ****     #endif /* (Counter_6_UsingFixedFunction) */
 220:Generated_Source\PSoC5/Counter_6.c **** }
 222              		.loc 1 220 0
 223 0014 BD46     		mov	sp, r7
 224              		.cfi_def_cfa_register 13
 225              		@ sp needed
 226 0016 5DF8047B 		ldr	r7, [sp], #4
 227              		.cfi_restore 7
 228              		.cfi_def_cfa_offset 0
 229 001a 7047     		bx	lr
 230              	.L13:
 231              		.align	2
 232              	.L12:
 233 001c 72640040 		.word	1073767538
 234              		.cfi_endproc
 235              	.LFE3:
 236              		.size	Counter_6_Stop, .-Counter_6_Stop
ARM GAS  C:\Users\ben\AppData\Local\Temp\cchuLMgj.s 			page 9


 237              		.section	.text.Counter_6_SetInterruptMode,"ax",%progbits
 238              		.align	2
 239              		.global	Counter_6_SetInterruptMode
 240              		.thumb
 241              		.thumb_func
 242              		.type	Counter_6_SetInterruptMode, %function
 243              	Counter_6_SetInterruptMode:
 244              	.LFB4:
 221:Generated_Source\PSoC5/Counter_6.c **** 
 222:Generated_Source\PSoC5/Counter_6.c **** 
 223:Generated_Source\PSoC5/Counter_6.c **** /*******************************************************************************
 224:Generated_Source\PSoC5/Counter_6.c **** * Function Name: Counter_6_SetInterruptMode
 225:Generated_Source\PSoC5/Counter_6.c **** ********************************************************************************
 226:Generated_Source\PSoC5/Counter_6.c **** * Summary:
 227:Generated_Source\PSoC5/Counter_6.c **** * Configures which interrupt sources are enabled to generate the final interrupt
 228:Generated_Source\PSoC5/Counter_6.c **** *
 229:Generated_Source\PSoC5/Counter_6.c **** * Parameters:  
 230:Generated_Source\PSoC5/Counter_6.c **** *  InterruptsMask: This parameter is an or'd collection of the status bits
 231:Generated_Source\PSoC5/Counter_6.c **** *                   which will be allowed to generate the counters interrupt.   
 232:Generated_Source\PSoC5/Counter_6.c **** *
 233:Generated_Source\PSoC5/Counter_6.c **** * Return: 
 234:Generated_Source\PSoC5/Counter_6.c **** *  void
 235:Generated_Source\PSoC5/Counter_6.c **** *
 236:Generated_Source\PSoC5/Counter_6.c **** *******************************************************************************/
 237:Generated_Source\PSoC5/Counter_6.c **** void Counter_6_SetInterruptMode(uint8 interruptsMask) 
 238:Generated_Source\PSoC5/Counter_6.c **** {
 245              		.loc 1 238 0
 246              		.cfi_startproc
 247              		@ args = 0, pretend = 0, frame = 8
 248              		@ frame_needed = 1, uses_anonymous_args = 0
 249              		@ link register save eliminated.
 250 0000 80B4     		push	{r7}
 251              		.cfi_def_cfa_offset 4
 252              		.cfi_offset 7, -4
 253 0002 83B0     		sub	sp, sp, #12
 254              		.cfi_def_cfa_offset 16
 255 0004 00AF     		add	r7, sp, #0
 256              		.cfi_def_cfa_register 7
 257 0006 0346     		mov	r3, r0
 258 0008 FB71     		strb	r3, [r7, #7]
 239:Generated_Source\PSoC5/Counter_6.c ****     Counter_6_STATUS_MASK = interruptsMask;
 259              		.loc 1 239 0
 260 000a 044A     		ldr	r2, .L15
 261 000c FB79     		ldrb	r3, [r7, #7]
 262 000e 1370     		strb	r3, [r2]
 240:Generated_Source\PSoC5/Counter_6.c **** }
 263              		.loc 1 240 0
 264 0010 0C37     		adds	r7, r7, #12
 265              		.cfi_def_cfa_offset 4
 266 0012 BD46     		mov	sp, r7
 267              		.cfi_def_cfa_register 13
 268              		@ sp needed
 269 0014 5DF8047B 		ldr	r7, [sp], #4
 270              		.cfi_restore 7
 271              		.cfi_def_cfa_offset 0
 272 0018 7047     		bx	lr
 273              	.L16:
ARM GAS  C:\Users\ben\AppData\Local\Temp\cchuLMgj.s 			page 10


 274 001a 00BF     		.align	2
 275              	.L15:
 276 001c 82640040 		.word	1073767554
 277              		.cfi_endproc
 278              	.LFE4:
 279              		.size	Counter_6_SetInterruptMode, .-Counter_6_SetInterruptMode
 280              		.section	.text.Counter_6_ReadStatusRegister,"ax",%progbits
 281              		.align	2
 282              		.global	Counter_6_ReadStatusRegister
 283              		.thumb
 284              		.thumb_func
 285              		.type	Counter_6_ReadStatusRegister, %function
 286              	Counter_6_ReadStatusRegister:
 287              	.LFB5:
 241:Generated_Source\PSoC5/Counter_6.c **** 
 242:Generated_Source\PSoC5/Counter_6.c **** 
 243:Generated_Source\PSoC5/Counter_6.c **** /*******************************************************************************
 244:Generated_Source\PSoC5/Counter_6.c **** * Function Name: Counter_6_ReadStatusRegister
 245:Generated_Source\PSoC5/Counter_6.c **** ********************************************************************************
 246:Generated_Source\PSoC5/Counter_6.c **** * Summary:
 247:Generated_Source\PSoC5/Counter_6.c **** *   Reads the status register and returns it's state. This function should use
 248:Generated_Source\PSoC5/Counter_6.c **** *       defined types for the bit-field information as the bits in this
 249:Generated_Source\PSoC5/Counter_6.c **** *       register may be permuteable.
 250:Generated_Source\PSoC5/Counter_6.c **** *
 251:Generated_Source\PSoC5/Counter_6.c **** * Parameters:  
 252:Generated_Source\PSoC5/Counter_6.c **** *  void
 253:Generated_Source\PSoC5/Counter_6.c **** *
 254:Generated_Source\PSoC5/Counter_6.c **** * Return: 
 255:Generated_Source\PSoC5/Counter_6.c **** *  (uint8) The contents of the status register
 256:Generated_Source\PSoC5/Counter_6.c **** *
 257:Generated_Source\PSoC5/Counter_6.c **** * Side Effects:
 258:Generated_Source\PSoC5/Counter_6.c **** *   Status register bits may be clear on read. 
 259:Generated_Source\PSoC5/Counter_6.c **** *
 260:Generated_Source\PSoC5/Counter_6.c **** *******************************************************************************/
 261:Generated_Source\PSoC5/Counter_6.c **** uint8   Counter_6_ReadStatusRegister(void) 
 262:Generated_Source\PSoC5/Counter_6.c **** {
 288              		.loc 1 262 0
 289              		.cfi_startproc
 290              		@ args = 0, pretend = 0, frame = 0
 291              		@ frame_needed = 1, uses_anonymous_args = 0
 292              		@ link register save eliminated.
 293 0000 80B4     		push	{r7}
 294              		.cfi_def_cfa_offset 4
 295              		.cfi_offset 7, -4
 296 0002 00AF     		add	r7, sp, #0
 297              		.cfi_def_cfa_register 7
 263:Generated_Source\PSoC5/Counter_6.c ****     return Counter_6_STATUS;
 298              		.loc 1 263 0
 299 0004 034B     		ldr	r3, .L19
 300 0006 1B78     		ldrb	r3, [r3]
 301 0008 DBB2     		uxtb	r3, r3
 264:Generated_Source\PSoC5/Counter_6.c **** }
 302              		.loc 1 264 0
 303 000a 1846     		mov	r0, r3
 304 000c BD46     		mov	sp, r7
 305              		.cfi_def_cfa_register 13
 306              		@ sp needed
ARM GAS  C:\Users\ben\AppData\Local\Temp\cchuLMgj.s 			page 11


 307 000e 5DF8047B 		ldr	r7, [sp], #4
 308              		.cfi_restore 7
 309              		.cfi_def_cfa_offset 0
 310 0012 7047     		bx	lr
 311              	.L20:
 312              		.align	2
 313              	.L19:
 314 0014 62640040 		.word	1073767522
 315              		.cfi_endproc
 316              	.LFE5:
 317              		.size	Counter_6_ReadStatusRegister, .-Counter_6_ReadStatusRegister
 318              		.section	.text.Counter_6_ReadControlRegister,"ax",%progbits
 319              		.align	2
 320              		.global	Counter_6_ReadControlRegister
 321              		.thumb
 322              		.thumb_func
 323              		.type	Counter_6_ReadControlRegister, %function
 324              	Counter_6_ReadControlRegister:
 325              	.LFB6:
 265:Generated_Source\PSoC5/Counter_6.c **** 
 266:Generated_Source\PSoC5/Counter_6.c **** 
 267:Generated_Source\PSoC5/Counter_6.c **** #if(!Counter_6_ControlRegRemoved)
 268:Generated_Source\PSoC5/Counter_6.c **** /*******************************************************************************
 269:Generated_Source\PSoC5/Counter_6.c **** * Function Name: Counter_6_ReadControlRegister
 270:Generated_Source\PSoC5/Counter_6.c **** ********************************************************************************
 271:Generated_Source\PSoC5/Counter_6.c **** * Summary:
 272:Generated_Source\PSoC5/Counter_6.c **** *   Reads the control register and returns it's state. This function should use
 273:Generated_Source\PSoC5/Counter_6.c **** *       defined types for the bit-field information as the bits in this
 274:Generated_Source\PSoC5/Counter_6.c **** *       register may be permuteable.
 275:Generated_Source\PSoC5/Counter_6.c **** *
 276:Generated_Source\PSoC5/Counter_6.c **** * Parameters:  
 277:Generated_Source\PSoC5/Counter_6.c **** *  void
 278:Generated_Source\PSoC5/Counter_6.c **** *
 279:Generated_Source\PSoC5/Counter_6.c **** * Return: 
 280:Generated_Source\PSoC5/Counter_6.c **** *  (uint8) The contents of the control register
 281:Generated_Source\PSoC5/Counter_6.c **** *
 282:Generated_Source\PSoC5/Counter_6.c **** *******************************************************************************/
 283:Generated_Source\PSoC5/Counter_6.c **** uint8   Counter_6_ReadControlRegister(void) 
 284:Generated_Source\PSoC5/Counter_6.c **** {
 326              		.loc 1 284 0
 327              		.cfi_startproc
 328              		@ args = 0, pretend = 0, frame = 0
 329              		@ frame_needed = 1, uses_anonymous_args = 0
 330              		@ link register save eliminated.
 331 0000 80B4     		push	{r7}
 332              		.cfi_def_cfa_offset 4
 333              		.cfi_offset 7, -4
 334 0002 00AF     		add	r7, sp, #0
 335              		.cfi_def_cfa_register 7
 285:Generated_Source\PSoC5/Counter_6.c ****     return Counter_6_CONTROL;
 336              		.loc 1 285 0
 337 0004 034B     		ldr	r3, .L23
 338 0006 1B78     		ldrb	r3, [r3]
 339 0008 DBB2     		uxtb	r3, r3
 286:Generated_Source\PSoC5/Counter_6.c **** }
 340              		.loc 1 286 0
 341 000a 1846     		mov	r0, r3
ARM GAS  C:\Users\ben\AppData\Local\Temp\cchuLMgj.s 			page 12


 342 000c BD46     		mov	sp, r7
 343              		.cfi_def_cfa_register 13
 344              		@ sp needed
 345 000e 5DF8047B 		ldr	r7, [sp], #4
 346              		.cfi_restore 7
 347              		.cfi_def_cfa_offset 0
 348 0012 7047     		bx	lr
 349              	.L24:
 350              		.align	2
 351              	.L23:
 352 0014 72640040 		.word	1073767538
 353              		.cfi_endproc
 354              	.LFE6:
 355              		.size	Counter_6_ReadControlRegister, .-Counter_6_ReadControlRegister
 356              		.section	.text.Counter_6_WriteControlRegister,"ax",%progbits
 357              		.align	2
 358              		.global	Counter_6_WriteControlRegister
 359              		.thumb
 360              		.thumb_func
 361              		.type	Counter_6_WriteControlRegister, %function
 362              	Counter_6_WriteControlRegister:
 363              	.LFB7:
 287:Generated_Source\PSoC5/Counter_6.c **** 
 288:Generated_Source\PSoC5/Counter_6.c **** 
 289:Generated_Source\PSoC5/Counter_6.c **** /*******************************************************************************
 290:Generated_Source\PSoC5/Counter_6.c **** * Function Name: Counter_6_WriteControlRegister
 291:Generated_Source\PSoC5/Counter_6.c **** ********************************************************************************
 292:Generated_Source\PSoC5/Counter_6.c **** * Summary:
 293:Generated_Source\PSoC5/Counter_6.c **** *   Sets the bit-field of the control register.  This function should use
 294:Generated_Source\PSoC5/Counter_6.c **** *       defined types for the bit-field information as the bits in this
 295:Generated_Source\PSoC5/Counter_6.c **** *       register may be permuteable.
 296:Generated_Source\PSoC5/Counter_6.c **** *
 297:Generated_Source\PSoC5/Counter_6.c **** * Parameters:  
 298:Generated_Source\PSoC5/Counter_6.c **** *  void
 299:Generated_Source\PSoC5/Counter_6.c **** *
 300:Generated_Source\PSoC5/Counter_6.c **** * Return: 
 301:Generated_Source\PSoC5/Counter_6.c **** *  (uint8) The contents of the control register
 302:Generated_Source\PSoC5/Counter_6.c **** *
 303:Generated_Source\PSoC5/Counter_6.c **** *******************************************************************************/
 304:Generated_Source\PSoC5/Counter_6.c **** void    Counter_6_WriteControlRegister(uint8 control) 
 305:Generated_Source\PSoC5/Counter_6.c **** {
 364              		.loc 1 305 0
 365              		.cfi_startproc
 366              		@ args = 0, pretend = 0, frame = 8
 367              		@ frame_needed = 1, uses_anonymous_args = 0
 368              		@ link register save eliminated.
 369 0000 80B4     		push	{r7}
 370              		.cfi_def_cfa_offset 4
 371              		.cfi_offset 7, -4
 372 0002 83B0     		sub	sp, sp, #12
 373              		.cfi_def_cfa_offset 16
 374 0004 00AF     		add	r7, sp, #0
 375              		.cfi_def_cfa_register 7
 376 0006 0346     		mov	r3, r0
 377 0008 FB71     		strb	r3, [r7, #7]
 306:Generated_Source\PSoC5/Counter_6.c ****     Counter_6_CONTROL = control;
 378              		.loc 1 306 0
ARM GAS  C:\Users\ben\AppData\Local\Temp\cchuLMgj.s 			page 13


 379 000a 044A     		ldr	r2, .L26
 380 000c FB79     		ldrb	r3, [r7, #7]
 381 000e 1370     		strb	r3, [r2]
 307:Generated_Source\PSoC5/Counter_6.c **** }
 382              		.loc 1 307 0
 383 0010 0C37     		adds	r7, r7, #12
 384              		.cfi_def_cfa_offset 4
 385 0012 BD46     		mov	sp, r7
 386              		.cfi_def_cfa_register 13
 387              		@ sp needed
 388 0014 5DF8047B 		ldr	r7, [sp], #4
 389              		.cfi_restore 7
 390              		.cfi_def_cfa_offset 0
 391 0018 7047     		bx	lr
 392              	.L27:
 393 001a 00BF     		.align	2
 394              	.L26:
 395 001c 72640040 		.word	1073767538
 396              		.cfi_endproc
 397              	.LFE7:
 398              		.size	Counter_6_WriteControlRegister, .-Counter_6_WriteControlRegister
 399              		.section	.text.Counter_6_WriteCounter,"ax",%progbits
 400              		.align	2
 401              		.global	Counter_6_WriteCounter
 402              		.thumb
 403              		.thumb_func
 404              		.type	Counter_6_WriteCounter, %function
 405              	Counter_6_WriteCounter:
 406              	.LFB8:
 308:Generated_Source\PSoC5/Counter_6.c **** 
 309:Generated_Source\PSoC5/Counter_6.c **** #endif  /* (!Counter_6_ControlRegRemoved) */
 310:Generated_Source\PSoC5/Counter_6.c **** 
 311:Generated_Source\PSoC5/Counter_6.c **** 
 312:Generated_Source\PSoC5/Counter_6.c **** #if (!(Counter_6_UsingFixedFunction && (CY_PSOC5A)))
 313:Generated_Source\PSoC5/Counter_6.c **** /*******************************************************************************
 314:Generated_Source\PSoC5/Counter_6.c **** * Function Name: Counter_6_WriteCounter
 315:Generated_Source\PSoC5/Counter_6.c **** ********************************************************************************
 316:Generated_Source\PSoC5/Counter_6.c **** * Summary:
 317:Generated_Source\PSoC5/Counter_6.c **** *   This funtion is used to set the counter to a specific value
 318:Generated_Source\PSoC5/Counter_6.c **** *
 319:Generated_Source\PSoC5/Counter_6.c **** * Parameters:  
 320:Generated_Source\PSoC5/Counter_6.c **** *  counter:  New counter value. 
 321:Generated_Source\PSoC5/Counter_6.c **** *
 322:Generated_Source\PSoC5/Counter_6.c **** * Return: 
 323:Generated_Source\PSoC5/Counter_6.c **** *  void 
 324:Generated_Source\PSoC5/Counter_6.c **** *
 325:Generated_Source\PSoC5/Counter_6.c **** *******************************************************************************/
 326:Generated_Source\PSoC5/Counter_6.c **** void Counter_6_WriteCounter(uint8 counter) \
 327:Generated_Source\PSoC5/Counter_6.c ****                                    
 328:Generated_Source\PSoC5/Counter_6.c **** {
 407              		.loc 1 328 0
 408              		.cfi_startproc
 409              		@ args = 0, pretend = 0, frame = 8
 410              		@ frame_needed = 1, uses_anonymous_args = 0
 411              		@ link register save eliminated.
 412 0000 80B4     		push	{r7}
 413              		.cfi_def_cfa_offset 4
ARM GAS  C:\Users\ben\AppData\Local\Temp\cchuLMgj.s 			page 14


 414              		.cfi_offset 7, -4
 415 0002 83B0     		sub	sp, sp, #12
 416              		.cfi_def_cfa_offset 16
 417 0004 00AF     		add	r7, sp, #0
 418              		.cfi_def_cfa_register 7
 419 0006 0346     		mov	r3, r0
 420 0008 FB71     		strb	r3, [r7, #7]
 329:Generated_Source\PSoC5/Counter_6.c ****     #if(Counter_6_UsingFixedFunction)
 330:Generated_Source\PSoC5/Counter_6.c ****         /* assert if block is already enabled */
 331:Generated_Source\PSoC5/Counter_6.c ****         CYASSERT (0u == (Counter_6_GLOBAL_ENABLE & Counter_6_BLOCK_EN_MASK));
 332:Generated_Source\PSoC5/Counter_6.c ****         /* If block is disabled, enable it and then write the counter */
 333:Generated_Source\PSoC5/Counter_6.c ****         Counter_6_GLOBAL_ENABLE |= Counter_6_BLOCK_EN_MASK;
 334:Generated_Source\PSoC5/Counter_6.c ****         CY_SET_REG16(Counter_6_COUNTER_LSB_PTR, (uint16)counter);
 335:Generated_Source\PSoC5/Counter_6.c ****         Counter_6_GLOBAL_ENABLE &= ((uint8)(~Counter_6_BLOCK_EN_MASK));
 336:Generated_Source\PSoC5/Counter_6.c ****     #else
 337:Generated_Source\PSoC5/Counter_6.c ****         CY_SET_REG8(Counter_6_COUNTER_LSB_PTR, counter);
 421              		.loc 1 337 0
 422 000a 044A     		ldr	r2, .L29
 423 000c FB79     		ldrb	r3, [r7, #7]
 424 000e 1370     		strb	r3, [r2]
 338:Generated_Source\PSoC5/Counter_6.c ****     #endif /* (Counter_6_UsingFixedFunction) */
 339:Generated_Source\PSoC5/Counter_6.c **** }
 425              		.loc 1 339 0
 426 0010 0C37     		adds	r7, r7, #12
 427              		.cfi_def_cfa_offset 4
 428 0012 BD46     		mov	sp, r7
 429              		.cfi_def_cfa_register 13
 430              		@ sp needed
 431 0014 5DF8047B 		ldr	r7, [sp], #4
 432              		.cfi_restore 7
 433              		.cfi_def_cfa_offset 0
 434 0018 7047     		bx	lr
 435              	.L30:
 436 001a 00BF     		.align	2
 437              	.L29:
 438 001c 02640040 		.word	1073767426
 439              		.cfi_endproc
 440              	.LFE8:
 441              		.size	Counter_6_WriteCounter, .-Counter_6_WriteCounter
 442              		.section	.text.Counter_6_ReadCounter,"ax",%progbits
 443              		.align	2
 444              		.global	Counter_6_ReadCounter
 445              		.thumb
 446              		.thumb_func
 447              		.type	Counter_6_ReadCounter, %function
 448              	Counter_6_ReadCounter:
 449              	.LFB9:
 340:Generated_Source\PSoC5/Counter_6.c **** #endif /* (!(Counter_6_UsingFixedFunction && (CY_PSOC5A))) */
 341:Generated_Source\PSoC5/Counter_6.c **** 
 342:Generated_Source\PSoC5/Counter_6.c **** 
 343:Generated_Source\PSoC5/Counter_6.c **** /*******************************************************************************
 344:Generated_Source\PSoC5/Counter_6.c **** * Function Name: Counter_6_ReadCounter
 345:Generated_Source\PSoC5/Counter_6.c **** ********************************************************************************
 346:Generated_Source\PSoC5/Counter_6.c **** * Summary:
 347:Generated_Source\PSoC5/Counter_6.c **** * Returns the current value of the counter.  It doesn't matter
 348:Generated_Source\PSoC5/Counter_6.c **** * if the counter is enabled or running.
 349:Generated_Source\PSoC5/Counter_6.c **** *
ARM GAS  C:\Users\ben\AppData\Local\Temp\cchuLMgj.s 			page 15


 350:Generated_Source\PSoC5/Counter_6.c **** * Parameters:  
 351:Generated_Source\PSoC5/Counter_6.c **** *  void:  
 352:Generated_Source\PSoC5/Counter_6.c **** *
 353:Generated_Source\PSoC5/Counter_6.c **** * Return: 
 354:Generated_Source\PSoC5/Counter_6.c **** *  (uint8) The present value of the counter.
 355:Generated_Source\PSoC5/Counter_6.c **** *
 356:Generated_Source\PSoC5/Counter_6.c **** *******************************************************************************/
 357:Generated_Source\PSoC5/Counter_6.c **** uint8 Counter_6_ReadCounter(void) 
 358:Generated_Source\PSoC5/Counter_6.c **** {
 450              		.loc 1 358 0
 451              		.cfi_startproc
 452              		@ args = 0, pretend = 0, frame = 0
 453              		@ frame_needed = 1, uses_anonymous_args = 0
 454              		@ link register save eliminated.
 455 0000 80B4     		push	{r7}
 456              		.cfi_def_cfa_offset 4
 457              		.cfi_offset 7, -4
 458 0002 00AF     		add	r7, sp, #0
 459              		.cfi_def_cfa_register 7
 359:Generated_Source\PSoC5/Counter_6.c ****     /* Force capture by reading Accumulator */
 360:Generated_Source\PSoC5/Counter_6.c ****     /* Must first do a software capture to be able to read the counter */
 361:Generated_Source\PSoC5/Counter_6.c ****     /* It is up to the user code to make sure there isn't already captured data in the FIFO */
 362:Generated_Source\PSoC5/Counter_6.c ****     #if(Counter_6_UsingFixedFunction)
 363:Generated_Source\PSoC5/Counter_6.c **** 		(void)CY_GET_REG16(Counter_6_COUNTER_LSB_PTR);
 364:Generated_Source\PSoC5/Counter_6.c **** 	#else
 365:Generated_Source\PSoC5/Counter_6.c **** 		(void)CY_GET_REG8(Counter_6_COUNTER_LSB_PTR_8BIT);
 460              		.loc 1 365 0
 461 0004 044B     		ldr	r3, .L33
 462 0006 1B78     		ldrb	r3, [r3]
 366:Generated_Source\PSoC5/Counter_6.c **** 	#endif/* (Counter_6_UsingFixedFunction) */
 367:Generated_Source\PSoC5/Counter_6.c ****     
 368:Generated_Source\PSoC5/Counter_6.c ****     /* Read the data from the FIFO (or capture register for Fixed Function)*/
 369:Generated_Source\PSoC5/Counter_6.c ****     #if(Counter_6_UsingFixedFunction)
 370:Generated_Source\PSoC5/Counter_6.c ****         return ((uint8)CY_GET_REG16(Counter_6_STATICCOUNT_LSB_PTR));
 371:Generated_Source\PSoC5/Counter_6.c ****     #else
 372:Generated_Source\PSoC5/Counter_6.c ****         return (CY_GET_REG8(Counter_6_STATICCOUNT_LSB_PTR));
 463              		.loc 1 372 0
 464 0008 044B     		ldr	r3, .L33+4
 465 000a 1B78     		ldrb	r3, [r3]
 466 000c DBB2     		uxtb	r3, r3
 373:Generated_Source\PSoC5/Counter_6.c ****     #endif /* (Counter_6_UsingFixedFunction) */
 374:Generated_Source\PSoC5/Counter_6.c **** }
 467              		.loc 1 374 0
 468 000e 1846     		mov	r0, r3
 469 0010 BD46     		mov	sp, r7
 470              		.cfi_def_cfa_register 13
 471              		@ sp needed
 472 0012 5DF8047B 		ldr	r7, [sp], #4
 473              		.cfi_restore 7
 474              		.cfi_def_cfa_offset 0
 475 0016 7047     		bx	lr
 476              	.L34:
 477              		.align	2
 478              	.L33:
 479 0018 02640040 		.word	1073767426
 480 001c 42640040 		.word	1073767490
 481              		.cfi_endproc
ARM GAS  C:\Users\ben\AppData\Local\Temp\cchuLMgj.s 			page 16


 482              	.LFE9:
 483              		.size	Counter_6_ReadCounter, .-Counter_6_ReadCounter
 484              		.section	.text.Counter_6_ReadCapture,"ax",%progbits
 485              		.align	2
 486              		.global	Counter_6_ReadCapture
 487              		.thumb
 488              		.thumb_func
 489              		.type	Counter_6_ReadCapture, %function
 490              	Counter_6_ReadCapture:
 491              	.LFB10:
 375:Generated_Source\PSoC5/Counter_6.c **** 
 376:Generated_Source\PSoC5/Counter_6.c **** 
 377:Generated_Source\PSoC5/Counter_6.c **** /*******************************************************************************
 378:Generated_Source\PSoC5/Counter_6.c **** * Function Name: Counter_6_ReadCapture
 379:Generated_Source\PSoC5/Counter_6.c **** ********************************************************************************
 380:Generated_Source\PSoC5/Counter_6.c **** * Summary:
 381:Generated_Source\PSoC5/Counter_6.c **** *   This function returns the last value captured.
 382:Generated_Source\PSoC5/Counter_6.c **** *
 383:Generated_Source\PSoC5/Counter_6.c **** * Parameters:  
 384:Generated_Source\PSoC5/Counter_6.c **** *  void
 385:Generated_Source\PSoC5/Counter_6.c **** *
 386:Generated_Source\PSoC5/Counter_6.c **** * Return: 
 387:Generated_Source\PSoC5/Counter_6.c **** *  (uint8) Present Capture value.
 388:Generated_Source\PSoC5/Counter_6.c **** *
 389:Generated_Source\PSoC5/Counter_6.c **** *******************************************************************************/
 390:Generated_Source\PSoC5/Counter_6.c **** uint8 Counter_6_ReadCapture(void) 
 391:Generated_Source\PSoC5/Counter_6.c **** {
 492              		.loc 1 391 0
 493              		.cfi_startproc
 494              		@ args = 0, pretend = 0, frame = 0
 495              		@ frame_needed = 1, uses_anonymous_args = 0
 496              		@ link register save eliminated.
 497 0000 80B4     		push	{r7}
 498              		.cfi_def_cfa_offset 4
 499              		.cfi_offset 7, -4
 500 0002 00AF     		add	r7, sp, #0
 501              		.cfi_def_cfa_register 7
 392:Generated_Source\PSoC5/Counter_6.c ****     #if(Counter_6_UsingFixedFunction)
 393:Generated_Source\PSoC5/Counter_6.c ****         return ((uint8)CY_GET_REG16(Counter_6_STATICCOUNT_LSB_PTR));
 394:Generated_Source\PSoC5/Counter_6.c ****     #else
 395:Generated_Source\PSoC5/Counter_6.c ****         return (CY_GET_REG8(Counter_6_STATICCOUNT_LSB_PTR));
 502              		.loc 1 395 0
 503 0004 034B     		ldr	r3, .L37
 504 0006 1B78     		ldrb	r3, [r3]
 505 0008 DBB2     		uxtb	r3, r3
 396:Generated_Source\PSoC5/Counter_6.c ****     #endif /* (Counter_6_UsingFixedFunction) */
 397:Generated_Source\PSoC5/Counter_6.c **** }
 506              		.loc 1 397 0
 507 000a 1846     		mov	r0, r3
 508 000c BD46     		mov	sp, r7
 509              		.cfi_def_cfa_register 13
 510              		@ sp needed
 511 000e 5DF8047B 		ldr	r7, [sp], #4
 512              		.cfi_restore 7
 513              		.cfi_def_cfa_offset 0
 514 0012 7047     		bx	lr
 515              	.L38:
ARM GAS  C:\Users\ben\AppData\Local\Temp\cchuLMgj.s 			page 17


 516              		.align	2
 517              	.L37:
 518 0014 42640040 		.word	1073767490
 519              		.cfi_endproc
 520              	.LFE10:
 521              		.size	Counter_6_ReadCapture, .-Counter_6_ReadCapture
 522              		.section	.text.Counter_6_WritePeriod,"ax",%progbits
 523              		.align	2
 524              		.global	Counter_6_WritePeriod
 525              		.thumb
 526              		.thumb_func
 527              		.type	Counter_6_WritePeriod, %function
 528              	Counter_6_WritePeriod:
 529              	.LFB11:
 398:Generated_Source\PSoC5/Counter_6.c **** 
 399:Generated_Source\PSoC5/Counter_6.c **** 
 400:Generated_Source\PSoC5/Counter_6.c **** /*******************************************************************************
 401:Generated_Source\PSoC5/Counter_6.c **** * Function Name: Counter_6_WritePeriod
 402:Generated_Source\PSoC5/Counter_6.c **** ********************************************************************************
 403:Generated_Source\PSoC5/Counter_6.c **** * Summary:
 404:Generated_Source\PSoC5/Counter_6.c **** * Changes the period of the counter.  The new period 
 405:Generated_Source\PSoC5/Counter_6.c **** * will be loaded the next time terminal count is detected.
 406:Generated_Source\PSoC5/Counter_6.c **** *
 407:Generated_Source\PSoC5/Counter_6.c **** * Parameters:  
 408:Generated_Source\PSoC5/Counter_6.c **** *  period: (uint8) A value of 0 will result in
 409:Generated_Source\PSoC5/Counter_6.c **** *         the counter remaining at zero.  
 410:Generated_Source\PSoC5/Counter_6.c **** *
 411:Generated_Source\PSoC5/Counter_6.c **** * Return: 
 412:Generated_Source\PSoC5/Counter_6.c **** *  void
 413:Generated_Source\PSoC5/Counter_6.c **** *
 414:Generated_Source\PSoC5/Counter_6.c **** *******************************************************************************/
 415:Generated_Source\PSoC5/Counter_6.c **** void Counter_6_WritePeriod(uint8 period) 
 416:Generated_Source\PSoC5/Counter_6.c **** {
 530              		.loc 1 416 0
 531              		.cfi_startproc
 532              		@ args = 0, pretend = 0, frame = 8
 533              		@ frame_needed = 1, uses_anonymous_args = 0
 534              		@ link register save eliminated.
 535 0000 80B4     		push	{r7}
 536              		.cfi_def_cfa_offset 4
 537              		.cfi_offset 7, -4
 538 0002 83B0     		sub	sp, sp, #12
 539              		.cfi_def_cfa_offset 16
 540 0004 00AF     		add	r7, sp, #0
 541              		.cfi_def_cfa_register 7
 542 0006 0346     		mov	r3, r0
 543 0008 FB71     		strb	r3, [r7, #7]
 417:Generated_Source\PSoC5/Counter_6.c ****     #if(Counter_6_UsingFixedFunction)
 418:Generated_Source\PSoC5/Counter_6.c ****         CY_SET_REG16(Counter_6_PERIOD_LSB_PTR,(uint16)period);
 419:Generated_Source\PSoC5/Counter_6.c ****     #else
 420:Generated_Source\PSoC5/Counter_6.c ****         CY_SET_REG8(Counter_6_PERIOD_LSB_PTR, period);
 544              		.loc 1 420 0
 545 000a 044A     		ldr	r2, .L40
 546 000c FB79     		ldrb	r3, [r7, #7]
 547 000e 1370     		strb	r3, [r2]
 421:Generated_Source\PSoC5/Counter_6.c ****     #endif /* (Counter_6_UsingFixedFunction) */
 422:Generated_Source\PSoC5/Counter_6.c **** }
ARM GAS  C:\Users\ben\AppData\Local\Temp\cchuLMgj.s 			page 18


 548              		.loc 1 422 0
 549 0010 0C37     		adds	r7, r7, #12
 550              		.cfi_def_cfa_offset 4
 551 0012 BD46     		mov	sp, r7
 552              		.cfi_def_cfa_register 13
 553              		@ sp needed
 554 0014 5DF8047B 		ldr	r7, [sp], #4
 555              		.cfi_restore 7
 556              		.cfi_def_cfa_offset 0
 557 0018 7047     		bx	lr
 558              	.L41:
 559 001a 00BF     		.align	2
 560              	.L40:
 561 001c 22640040 		.word	1073767458
 562              		.cfi_endproc
 563              	.LFE11:
 564              		.size	Counter_6_WritePeriod, .-Counter_6_WritePeriod
 565              		.section	.text.Counter_6_ReadPeriod,"ax",%progbits
 566              		.align	2
 567              		.global	Counter_6_ReadPeriod
 568              		.thumb
 569              		.thumb_func
 570              		.type	Counter_6_ReadPeriod, %function
 571              	Counter_6_ReadPeriod:
 572              	.LFB12:
 423:Generated_Source\PSoC5/Counter_6.c **** 
 424:Generated_Source\PSoC5/Counter_6.c **** 
 425:Generated_Source\PSoC5/Counter_6.c **** /*******************************************************************************
 426:Generated_Source\PSoC5/Counter_6.c **** * Function Name: Counter_6_ReadPeriod
 427:Generated_Source\PSoC5/Counter_6.c **** ********************************************************************************
 428:Generated_Source\PSoC5/Counter_6.c **** * Summary:
 429:Generated_Source\PSoC5/Counter_6.c **** * Reads the current period value without affecting counter operation.
 430:Generated_Source\PSoC5/Counter_6.c **** *
 431:Generated_Source\PSoC5/Counter_6.c **** * Parameters:  
 432:Generated_Source\PSoC5/Counter_6.c **** *  void:  
 433:Generated_Source\PSoC5/Counter_6.c **** *
 434:Generated_Source\PSoC5/Counter_6.c **** * Return: 
 435:Generated_Source\PSoC5/Counter_6.c **** *  (uint8) Present period value.
 436:Generated_Source\PSoC5/Counter_6.c **** *
 437:Generated_Source\PSoC5/Counter_6.c **** *******************************************************************************/
 438:Generated_Source\PSoC5/Counter_6.c **** uint8 Counter_6_ReadPeriod(void) 
 439:Generated_Source\PSoC5/Counter_6.c **** {
 573              		.loc 1 439 0
 574              		.cfi_startproc
 575              		@ args = 0, pretend = 0, frame = 0
 576              		@ frame_needed = 1, uses_anonymous_args = 0
 577              		@ link register save eliminated.
 578 0000 80B4     		push	{r7}
 579              		.cfi_def_cfa_offset 4
 580              		.cfi_offset 7, -4
 581 0002 00AF     		add	r7, sp, #0
 582              		.cfi_def_cfa_register 7
 440:Generated_Source\PSoC5/Counter_6.c ****     #if(Counter_6_UsingFixedFunction)
 441:Generated_Source\PSoC5/Counter_6.c ****         return ((uint8)CY_GET_REG16(Counter_6_PERIOD_LSB_PTR));
 442:Generated_Source\PSoC5/Counter_6.c ****     #else
 443:Generated_Source\PSoC5/Counter_6.c ****         return (CY_GET_REG8(Counter_6_PERIOD_LSB_PTR));
 583              		.loc 1 443 0
ARM GAS  C:\Users\ben\AppData\Local\Temp\cchuLMgj.s 			page 19


 584 0004 034B     		ldr	r3, .L44
 585 0006 1B78     		ldrb	r3, [r3]
 586 0008 DBB2     		uxtb	r3, r3
 444:Generated_Source\PSoC5/Counter_6.c ****     #endif /* (Counter_6_UsingFixedFunction) */
 445:Generated_Source\PSoC5/Counter_6.c **** }
 587              		.loc 1 445 0
 588 000a 1846     		mov	r0, r3
 589 000c BD46     		mov	sp, r7
 590              		.cfi_def_cfa_register 13
 591              		@ sp needed
 592 000e 5DF8047B 		ldr	r7, [sp], #4
 593              		.cfi_restore 7
 594              		.cfi_def_cfa_offset 0
 595 0012 7047     		bx	lr
 596              	.L45:
 597              		.align	2
 598              	.L44:
 599 0014 22640040 		.word	1073767458
 600              		.cfi_endproc
 601              	.LFE12:
 602              		.size	Counter_6_ReadPeriod, .-Counter_6_ReadPeriod
 603              		.section	.text.Counter_6_WriteCompare,"ax",%progbits
 604              		.align	2
 605              		.global	Counter_6_WriteCompare
 606              		.thumb
 607              		.thumb_func
 608              		.type	Counter_6_WriteCompare, %function
 609              	Counter_6_WriteCompare:
 610              	.LFB13:
 446:Generated_Source\PSoC5/Counter_6.c **** 
 447:Generated_Source\PSoC5/Counter_6.c **** 
 448:Generated_Source\PSoC5/Counter_6.c **** #if (!Counter_6_UsingFixedFunction)
 449:Generated_Source\PSoC5/Counter_6.c **** /*******************************************************************************
 450:Generated_Source\PSoC5/Counter_6.c **** * Function Name: Counter_6_WriteCompare
 451:Generated_Source\PSoC5/Counter_6.c **** ********************************************************************************
 452:Generated_Source\PSoC5/Counter_6.c **** * Summary:
 453:Generated_Source\PSoC5/Counter_6.c **** * Changes the compare value.  The compare output will 
 454:Generated_Source\PSoC5/Counter_6.c **** * reflect the new value on the next UDB clock.  The compare output will be 
 455:Generated_Source\PSoC5/Counter_6.c **** * driven high when the present counter value compares true based on the 
 456:Generated_Source\PSoC5/Counter_6.c **** * configured compare mode setting. 
 457:Generated_Source\PSoC5/Counter_6.c **** *
 458:Generated_Source\PSoC5/Counter_6.c **** * Parameters:  
 459:Generated_Source\PSoC5/Counter_6.c **** *  Compare:  New compare value. 
 460:Generated_Source\PSoC5/Counter_6.c **** *
 461:Generated_Source\PSoC5/Counter_6.c **** * Return: 
 462:Generated_Source\PSoC5/Counter_6.c **** *  void
 463:Generated_Source\PSoC5/Counter_6.c **** *
 464:Generated_Source\PSoC5/Counter_6.c **** *******************************************************************************/
 465:Generated_Source\PSoC5/Counter_6.c **** void Counter_6_WriteCompare(uint8 compare) \
 466:Generated_Source\PSoC5/Counter_6.c ****                                    
 467:Generated_Source\PSoC5/Counter_6.c **** {
 611              		.loc 1 467 0
 612              		.cfi_startproc
 613              		@ args = 0, pretend = 0, frame = 8
 614              		@ frame_needed = 1, uses_anonymous_args = 0
 615              		@ link register save eliminated.
 616 0000 80B4     		push	{r7}
ARM GAS  C:\Users\ben\AppData\Local\Temp\cchuLMgj.s 			page 20


 617              		.cfi_def_cfa_offset 4
 618              		.cfi_offset 7, -4
 619 0002 83B0     		sub	sp, sp, #12
 620              		.cfi_def_cfa_offset 16
 621 0004 00AF     		add	r7, sp, #0
 622              		.cfi_def_cfa_register 7
 623 0006 0346     		mov	r3, r0
 624 0008 FB71     		strb	r3, [r7, #7]
 468:Generated_Source\PSoC5/Counter_6.c ****     #if(Counter_6_UsingFixedFunction)
 469:Generated_Source\PSoC5/Counter_6.c ****         CY_SET_REG16(Counter_6_COMPARE_LSB_PTR, (uint16)compare);
 470:Generated_Source\PSoC5/Counter_6.c ****     #else
 471:Generated_Source\PSoC5/Counter_6.c ****         CY_SET_REG8(Counter_6_COMPARE_LSB_PTR, compare);
 625              		.loc 1 471 0
 626 000a 044A     		ldr	r2, .L47
 627 000c FB79     		ldrb	r3, [r7, #7]
 628 000e 1370     		strb	r3, [r2]
 472:Generated_Source\PSoC5/Counter_6.c ****     #endif /* (Counter_6_UsingFixedFunction) */
 473:Generated_Source\PSoC5/Counter_6.c **** }
 629              		.loc 1 473 0
 630 0010 0C37     		adds	r7, r7, #12
 631              		.cfi_def_cfa_offset 4
 632 0012 BD46     		mov	sp, r7
 633              		.cfi_def_cfa_register 13
 634              		@ sp needed
 635 0014 5DF8047B 		ldr	r7, [sp], #4
 636              		.cfi_restore 7
 637              		.cfi_def_cfa_offset 0
 638 0018 7047     		bx	lr
 639              	.L48:
 640 001a 00BF     		.align	2
 641              	.L47:
 642 001c 32640040 		.word	1073767474
 643              		.cfi_endproc
 644              	.LFE13:
 645              		.size	Counter_6_WriteCompare, .-Counter_6_WriteCompare
 646              		.section	.text.Counter_6_ReadCompare,"ax",%progbits
 647              		.align	2
 648              		.global	Counter_6_ReadCompare
 649              		.thumb
 650              		.thumb_func
 651              		.type	Counter_6_ReadCompare, %function
 652              	Counter_6_ReadCompare:
 653              	.LFB14:
 474:Generated_Source\PSoC5/Counter_6.c **** 
 475:Generated_Source\PSoC5/Counter_6.c **** 
 476:Generated_Source\PSoC5/Counter_6.c **** /*******************************************************************************
 477:Generated_Source\PSoC5/Counter_6.c **** * Function Name: Counter_6_ReadCompare
 478:Generated_Source\PSoC5/Counter_6.c **** ********************************************************************************
 479:Generated_Source\PSoC5/Counter_6.c **** * Summary:
 480:Generated_Source\PSoC5/Counter_6.c **** * Returns the compare value.
 481:Generated_Source\PSoC5/Counter_6.c **** *
 482:Generated_Source\PSoC5/Counter_6.c **** * Parameters:  
 483:Generated_Source\PSoC5/Counter_6.c **** *  void:
 484:Generated_Source\PSoC5/Counter_6.c **** *
 485:Generated_Source\PSoC5/Counter_6.c **** * Return: 
 486:Generated_Source\PSoC5/Counter_6.c **** *  (uint8) Present compare value.
 487:Generated_Source\PSoC5/Counter_6.c **** *
ARM GAS  C:\Users\ben\AppData\Local\Temp\cchuLMgj.s 			page 21


 488:Generated_Source\PSoC5/Counter_6.c **** *******************************************************************************/
 489:Generated_Source\PSoC5/Counter_6.c **** uint8 Counter_6_ReadCompare(void) 
 490:Generated_Source\PSoC5/Counter_6.c **** {
 654              		.loc 1 490 0
 655              		.cfi_startproc
 656              		@ args = 0, pretend = 0, frame = 0
 657              		@ frame_needed = 1, uses_anonymous_args = 0
 658              		@ link register save eliminated.
 659 0000 80B4     		push	{r7}
 660              		.cfi_def_cfa_offset 4
 661              		.cfi_offset 7, -4
 662 0002 00AF     		add	r7, sp, #0
 663              		.cfi_def_cfa_register 7
 491:Generated_Source\PSoC5/Counter_6.c ****     return (CY_GET_REG8(Counter_6_COMPARE_LSB_PTR));
 664              		.loc 1 491 0
 665 0004 034B     		ldr	r3, .L51
 666 0006 1B78     		ldrb	r3, [r3]
 667 0008 DBB2     		uxtb	r3, r3
 492:Generated_Source\PSoC5/Counter_6.c **** }
 668              		.loc 1 492 0
 669 000a 1846     		mov	r0, r3
 670 000c BD46     		mov	sp, r7
 671              		.cfi_def_cfa_register 13
 672              		@ sp needed
 673 000e 5DF8047B 		ldr	r7, [sp], #4
 674              		.cfi_restore 7
 675              		.cfi_def_cfa_offset 0
 676 0012 7047     		bx	lr
 677              	.L52:
 678              		.align	2
 679              	.L51:
 680 0014 32640040 		.word	1073767474
 681              		.cfi_endproc
 682              	.LFE14:
 683              		.size	Counter_6_ReadCompare, .-Counter_6_ReadCompare
 684              		.section	.text.Counter_6_SetCompareMode,"ax",%progbits
 685              		.align	2
 686              		.global	Counter_6_SetCompareMode
 687              		.thumb
 688              		.thumb_func
 689              		.type	Counter_6_SetCompareMode, %function
 690              	Counter_6_SetCompareMode:
 691              	.LFB15:
 493:Generated_Source\PSoC5/Counter_6.c **** 
 494:Generated_Source\PSoC5/Counter_6.c **** 
 495:Generated_Source\PSoC5/Counter_6.c **** #if (Counter_6_COMPARE_MODE_SOFTWARE)
 496:Generated_Source\PSoC5/Counter_6.c **** /*******************************************************************************
 497:Generated_Source\PSoC5/Counter_6.c **** * Function Name: Counter_6_SetCompareMode
 498:Generated_Source\PSoC5/Counter_6.c **** ********************************************************************************
 499:Generated_Source\PSoC5/Counter_6.c **** * Summary:
 500:Generated_Source\PSoC5/Counter_6.c **** *  Sets the software controlled Compare Mode.
 501:Generated_Source\PSoC5/Counter_6.c **** *
 502:Generated_Source\PSoC5/Counter_6.c **** * Parameters:
 503:Generated_Source\PSoC5/Counter_6.c **** *  compareMode:  Compare Mode Enumerated Type.
 504:Generated_Source\PSoC5/Counter_6.c **** *
 505:Generated_Source\PSoC5/Counter_6.c **** * Return:
 506:Generated_Source\PSoC5/Counter_6.c **** *  void
ARM GAS  C:\Users\ben\AppData\Local\Temp\cchuLMgj.s 			page 22


 507:Generated_Source\PSoC5/Counter_6.c **** *
 508:Generated_Source\PSoC5/Counter_6.c **** *******************************************************************************/
 509:Generated_Source\PSoC5/Counter_6.c **** void Counter_6_SetCompareMode(uint8 compareMode) 
 510:Generated_Source\PSoC5/Counter_6.c **** {
 692              		.loc 1 510 0
 693              		.cfi_startproc
 694              		@ args = 0, pretend = 0, frame = 8
 695              		@ frame_needed = 1, uses_anonymous_args = 0
 696              		@ link register save eliminated.
 697 0000 80B4     		push	{r7}
 698              		.cfi_def_cfa_offset 4
 699              		.cfi_offset 7, -4
 700 0002 83B0     		sub	sp, sp, #12
 701              		.cfi_def_cfa_offset 16
 702 0004 00AF     		add	r7, sp, #0
 703              		.cfi_def_cfa_register 7
 704 0006 0346     		mov	r3, r0
 705 0008 FB71     		strb	r3, [r7, #7]
 511:Generated_Source\PSoC5/Counter_6.c ****     /* Clear the compare mode bits in the control register */
 512:Generated_Source\PSoC5/Counter_6.c ****     Counter_6_CONTROL &= ((uint8)(~Counter_6_CTRL_CMPMODE_MASK));
 706              		.loc 1 512 0
 707 000a 0A4A     		ldr	r2, .L54
 708 000c 094B     		ldr	r3, .L54
 709 000e 1B78     		ldrb	r3, [r3]
 710 0010 DBB2     		uxtb	r3, r3
 711 0012 23F00703 		bic	r3, r3, #7
 712 0016 DBB2     		uxtb	r3, r3
 713 0018 1370     		strb	r3, [r2]
 513:Generated_Source\PSoC5/Counter_6.c ****     
 514:Generated_Source\PSoC5/Counter_6.c ****     /* Write the new setting */
 515:Generated_Source\PSoC5/Counter_6.c ****     Counter_6_CONTROL |= compareMode;
 714              		.loc 1 515 0
 715 001a 0649     		ldr	r1, .L54
 716 001c 054B     		ldr	r3, .L54
 717 001e 1B78     		ldrb	r3, [r3]
 718 0020 DAB2     		uxtb	r2, r3
 719 0022 FB79     		ldrb	r3, [r7, #7]
 720 0024 1343     		orrs	r3, r3, r2
 721 0026 DBB2     		uxtb	r3, r3
 722 0028 0B70     		strb	r3, [r1]
 516:Generated_Source\PSoC5/Counter_6.c **** }
 723              		.loc 1 516 0
 724 002a 0C37     		adds	r7, r7, #12
 725              		.cfi_def_cfa_offset 4
 726 002c BD46     		mov	sp, r7
 727              		.cfi_def_cfa_register 13
 728              		@ sp needed
 729 002e 5DF8047B 		ldr	r7, [sp], #4
 730              		.cfi_restore 7
 731              		.cfi_def_cfa_offset 0
 732 0032 7047     		bx	lr
 733              	.L55:
 734              		.align	2
 735              	.L54:
 736 0034 72640040 		.word	1073767538
 737              		.cfi_endproc
 738              	.LFE15:
ARM GAS  C:\Users\ben\AppData\Local\Temp\cchuLMgj.s 			page 23


 739              		.size	Counter_6_SetCompareMode, .-Counter_6_SetCompareMode
 740              		.section	.text.Counter_6_ClearFIFO,"ax",%progbits
 741              		.align	2
 742              		.global	Counter_6_ClearFIFO
 743              		.thumb
 744              		.thumb_func
 745              		.type	Counter_6_ClearFIFO, %function
 746              	Counter_6_ClearFIFO:
 747              	.LFB16:
 517:Generated_Source\PSoC5/Counter_6.c **** #endif  /* (Counter_6_COMPARE_MODE_SOFTWARE) */
 518:Generated_Source\PSoC5/Counter_6.c **** 
 519:Generated_Source\PSoC5/Counter_6.c **** 
 520:Generated_Source\PSoC5/Counter_6.c **** #if (Counter_6_CAPTURE_MODE_SOFTWARE)
 521:Generated_Source\PSoC5/Counter_6.c **** /*******************************************************************************
 522:Generated_Source\PSoC5/Counter_6.c **** * Function Name: Counter_6_SetCaptureMode
 523:Generated_Source\PSoC5/Counter_6.c **** ********************************************************************************
 524:Generated_Source\PSoC5/Counter_6.c **** * Summary:
 525:Generated_Source\PSoC5/Counter_6.c **** *  Sets the software controlled Capture Mode.
 526:Generated_Source\PSoC5/Counter_6.c **** *
 527:Generated_Source\PSoC5/Counter_6.c **** * Parameters:
 528:Generated_Source\PSoC5/Counter_6.c **** *  captureMode:  Capture Mode Enumerated Type.
 529:Generated_Source\PSoC5/Counter_6.c **** *
 530:Generated_Source\PSoC5/Counter_6.c **** * Return:
 531:Generated_Source\PSoC5/Counter_6.c **** *  void
 532:Generated_Source\PSoC5/Counter_6.c **** *
 533:Generated_Source\PSoC5/Counter_6.c **** *******************************************************************************/
 534:Generated_Source\PSoC5/Counter_6.c **** void Counter_6_SetCaptureMode(uint8 captureMode) 
 535:Generated_Source\PSoC5/Counter_6.c **** {
 536:Generated_Source\PSoC5/Counter_6.c ****     /* Clear the capture mode bits in the control register */
 537:Generated_Source\PSoC5/Counter_6.c ****     Counter_6_CONTROL &= ((uint8)(~Counter_6_CTRL_CAPMODE_MASK));
 538:Generated_Source\PSoC5/Counter_6.c ****     
 539:Generated_Source\PSoC5/Counter_6.c ****     /* Write the new setting */
 540:Generated_Source\PSoC5/Counter_6.c ****     Counter_6_CONTROL |= ((uint8)((uint8)captureMode << Counter_6_CTRL_CAPMODE0_SHIFT));
 541:Generated_Source\PSoC5/Counter_6.c **** }
 542:Generated_Source\PSoC5/Counter_6.c **** #endif  /* (Counter_6_CAPTURE_MODE_SOFTWARE) */
 543:Generated_Source\PSoC5/Counter_6.c **** 
 544:Generated_Source\PSoC5/Counter_6.c **** 
 545:Generated_Source\PSoC5/Counter_6.c **** /*******************************************************************************
 546:Generated_Source\PSoC5/Counter_6.c **** * Function Name: Counter_6_ClearFIFO
 547:Generated_Source\PSoC5/Counter_6.c **** ********************************************************************************
 548:Generated_Source\PSoC5/Counter_6.c **** * Summary:
 549:Generated_Source\PSoC5/Counter_6.c **** *   This function clears all capture data from the capture FIFO
 550:Generated_Source\PSoC5/Counter_6.c **** *
 551:Generated_Source\PSoC5/Counter_6.c **** * Parameters:  
 552:Generated_Source\PSoC5/Counter_6.c **** *  void:
 553:Generated_Source\PSoC5/Counter_6.c **** *
 554:Generated_Source\PSoC5/Counter_6.c **** * Return: 
 555:Generated_Source\PSoC5/Counter_6.c **** *  None
 556:Generated_Source\PSoC5/Counter_6.c **** *
 557:Generated_Source\PSoC5/Counter_6.c **** *******************************************************************************/
 558:Generated_Source\PSoC5/Counter_6.c **** void Counter_6_ClearFIFO(void) 
 559:Generated_Source\PSoC5/Counter_6.c **** {
 748              		.loc 1 559 0
 749              		.cfi_startproc
 750              		@ args = 0, pretend = 0, frame = 0
 751              		@ frame_needed = 1, uses_anonymous_args = 0
 752 0000 80B5     		push	{r7, lr}
ARM GAS  C:\Users\ben\AppData\Local\Temp\cchuLMgj.s 			page 24


 753              		.cfi_def_cfa_offset 8
 754              		.cfi_offset 7, -8
 755              		.cfi_offset 14, -4
 756 0002 00AF     		add	r7, sp, #0
 757              		.cfi_def_cfa_register 7
 560:Generated_Source\PSoC5/Counter_6.c **** 
 561:Generated_Source\PSoC5/Counter_6.c ****     while(0u != (Counter_6_ReadStatusRegister() & Counter_6_STATUS_FIFONEMP))
 758              		.loc 1 561 0
 759 0004 01E0     		b	.L57
 760              	.L58:
 562:Generated_Source\PSoC5/Counter_6.c ****     {
 563:Generated_Source\PSoC5/Counter_6.c ****         (void)Counter_6_ReadCapture();
 761              		.loc 1 563 0
 762 0006 FFF7FEFF 		bl	Counter_6_ReadCapture
 763              	.L57:
 561:Generated_Source\PSoC5/Counter_6.c ****     {
 764              		.loc 1 561 0
 765 000a FFF7FEFF 		bl	Counter_6_ReadStatusRegister
 766 000e 0346     		mov	r3, r0
 767 0010 03F04003 		and	r3, r3, #64
 768 0014 002B     		cmp	r3, #0
 769 0016 F6D1     		bne	.L58
 564:Generated_Source\PSoC5/Counter_6.c ****     }
 565:Generated_Source\PSoC5/Counter_6.c **** 
 566:Generated_Source\PSoC5/Counter_6.c **** }
 770              		.loc 1 566 0
 771 0018 80BD     		pop	{r7, pc}
 772              		.cfi_endproc
 773              	.LFE16:
 774              		.size	Counter_6_ClearFIFO, .-Counter_6_ClearFIFO
 775 001a 00BF     		.text
 776              	.Letext0:
 777              		.file 2 "Generated_Source\\PSoC5\\cytypes.h"