ARM GAS  C:\Users\ben\AppData\Local\Temp\ccnBLHGm.s 			page 1


   1              		.syntax unified
   2              		.cpu cortex-m3
   3              		.fpu softvfp
   4              		.eabi_attribute 20, 1
   5              		.eabi_attribute 21, 1
   6              		.eabi_attribute 23, 3
   7              		.eabi_attribute 24, 1
   8              		.eabi_attribute 25, 1
   9              		.eabi_attribute 26, 1
  10              		.eabi_attribute 30, 6
  11              		.eabi_attribute 34, 1
  12              		.eabi_attribute 18, 4
  13              		.thumb
  14              		.file	"CyLib.c"
  15              		.text
  16              	.Ltext0:
  17              		.cfi_sections	.debug_frame
  18              		.global	CyResetStatus
  19              		.section	.noinit,"aw",%progbits
  20              		.type	CyResetStatus, %object
  21              		.size	CyResetStatus, 1
  22              	CyResetStatus:
  23 0000 00       		.space	1
  24              		.global	cydelay_freq_hz
  25              		.data
  26              		.align	2
  27              		.type	cydelay_freq_hz, %object
  28              		.size	cydelay_freq_hz, 4
  29              	cydelay_freq_hz:
  30 0000 006CDC02 		.word	48000000
  31              		.global	cydelay_freq_khz
  32              		.align	2
  33              		.type	cydelay_freq_khz, %object
  34              		.size	cydelay_freq_khz, 4
  35              	cydelay_freq_khz:
  36 0004 80BB0000 		.word	48000
  37              		.global	cydelay_freq_mhz
  38              		.type	cydelay_freq_mhz, %object
  39              		.size	cydelay_freq_mhz, 1
  40              	cydelay_freq_mhz:
  41 0008 30       		.byte	48
  42              		.global	cydelay_32k_ms
  43 0009 000000   		.align	2
  44              		.type	cydelay_32k_ms, %object
  45              		.size	cydelay_32k_ms, 4
  46              	cydelay_32k_ms:
  47 000c 0000C05D 		.word	1572864000
  48              		.bss
  49              		.align	2
  50              	CySysTickCallbacks:
  51 0000 00000000 		.space	20
  51      00000000 
  51      00000000 
  51      00000000 
  51      00000000 
  52              		.global	CySysTickInitVar
  53              		.align	2
ARM GAS  C:\Users\ben\AppData\Local\Temp\ccnBLHGm.s 			page 2


  54              		.type	CySysTickInitVar, %object
  55              		.size	CySysTickInitVar, 4
  56              	CySysTickInitVar:
  57 0014 00000000 		.space	4
  58              		.section	.text.CyPLL_OUT_Start,"ax",%progbits
  59              		.align	2
  60              		.global	CyPLL_OUT_Start
  61              		.thumb
  62              		.thumb_func
  63              		.type	CyPLL_OUT_Start, %function
  64              	CyPLL_OUT_Start:
  65              	.LFB0:
  66              		.file 1 "Generated_Source\\PSoC5\\CyLib.c"
   1:Generated_Source\PSoC5/CyLib.c **** /***************************************************************************//**
   2:Generated_Source\PSoC5/CyLib.c **** * \file CyLib.c
   3:Generated_Source\PSoC5/CyLib.c **** * \version 5.50
   4:Generated_Source\PSoC5/CyLib.c **** *
   5:Generated_Source\PSoC5/CyLib.c **** * \brief Provides a system API for the clocking, interrupts and watchdog timer.
   6:Generated_Source\PSoC5/CyLib.c **** *
   7:Generated_Source\PSoC5/CyLib.c **** * \note Documentation of the API's in this file is located in the System
   8:Generated_Source\PSoC5/CyLib.c **** * Reference Guide provided with PSoC Creator.
   9:Generated_Source\PSoC5/CyLib.c **** *
  10:Generated_Source\PSoC5/CyLib.c **** ********************************************************************************
  11:Generated_Source\PSoC5/CyLib.c **** * \copyright
  12:Generated_Source\PSoC5/CyLib.c **** * Copyright 2008-2016, Cypress Semiconductor Corporation.  All rights reserved.
  13:Generated_Source\PSoC5/CyLib.c **** * You may use this file only in accordance with the license, terms, conditions,
  14:Generated_Source\PSoC5/CyLib.c **** * disclaimers, and limitations in the end user license agreement accompanying
  15:Generated_Source\PSoC5/CyLib.c **** * the software package with which this file was provided.
  16:Generated_Source\PSoC5/CyLib.c **** *******************************************************************************/
  17:Generated_Source\PSoC5/CyLib.c **** 
  18:Generated_Source\PSoC5/CyLib.c **** #include "CyLib.h"
  19:Generated_Source\PSoC5/CyLib.c **** 
  20:Generated_Source\PSoC5/CyLib.c **** 
  21:Generated_Source\PSoC5/CyLib.c **** /*******************************************************************************
  22:Generated_Source\PSoC5/CyLib.c **** * The CyResetStatus variable is used to obtain value of RESET_SR0 register after
  23:Generated_Source\PSoC5/CyLib.c **** * a device reset. It is set from initialize_psoc() at the early initialization
  24:Generated_Source\PSoC5/CyLib.c **** * stage. In case of IAR EW IDE, initialize_psoc() is executed before the data
  25:Generated_Source\PSoC5/CyLib.c **** * sections are initialized. To avoid zeroing, CyResetStatus should be placed
  26:Generated_Source\PSoC5/CyLib.c **** * to the .noinit section.
  27:Generated_Source\PSoC5/CyLib.c **** *******************************************************************************/
  28:Generated_Source\PSoC5/CyLib.c **** CY_NOINIT uint8 CYXDATA CyResetStatus;
  29:Generated_Source\PSoC5/CyLib.c **** 
  30:Generated_Source\PSoC5/CyLib.c **** 
  31:Generated_Source\PSoC5/CyLib.c **** /* Variable Vdda */
  32:Generated_Source\PSoC5/CyLib.c **** #if(CYDEV_VARIABLE_VDDA == 1)
  33:Generated_Source\PSoC5/CyLib.c **** 
  34:Generated_Source\PSoC5/CyLib.c ****     uint8 CyScPumpEnabled = (uint8)(CYDEV_VDDA_MV < 2700);
  35:Generated_Source\PSoC5/CyLib.c **** 
  36:Generated_Source\PSoC5/CyLib.c **** #endif  /* (CYDEV_VARIABLE_VDDA == 1) */
  37:Generated_Source\PSoC5/CyLib.c **** 
  38:Generated_Source\PSoC5/CyLib.c **** 
  39:Generated_Source\PSoC5/CyLib.c **** /* Do not use these definitions directly in your application */
  40:Generated_Source\PSoC5/CyLib.c **** uint32 cydelay_freq_hz  = BCLK__BUS_CLK__HZ;
  41:Generated_Source\PSoC5/CyLib.c **** uint32 cydelay_freq_khz = (BCLK__BUS_CLK__HZ + 999u) / 1000u;
  42:Generated_Source\PSoC5/CyLib.c **** uint8  cydelay_freq_mhz = (uint8)((BCLK__BUS_CLK__HZ + 999999u) / 1000000u);
  43:Generated_Source\PSoC5/CyLib.c **** uint32 cydelay_32k_ms   = 32768u * ((BCLK__BUS_CLK__HZ + 999u) / 1000u);
  44:Generated_Source\PSoC5/CyLib.c **** 
ARM GAS  C:\Users\ben\AppData\Local\Temp\ccnBLHGm.s 			page 3


  45:Generated_Source\PSoC5/CyLib.c **** 
  46:Generated_Source\PSoC5/CyLib.c **** /* Function Prototypes */
  47:Generated_Source\PSoC5/CyLib.c **** static uint8 CyUSB_PowerOnCheck(void)  ;
  48:Generated_Source\PSoC5/CyLib.c **** static void CyIMO_SetTrimValue(uint8 freq) ;
  49:Generated_Source\PSoC5/CyLib.c **** static void CyBusClk_Internal_SetDivider(uint16 divider);
  50:Generated_Source\PSoC5/CyLib.c **** 
  51:Generated_Source\PSoC5/CyLib.c **** #if(CY_PSOC5)
  52:Generated_Source\PSoC5/CyLib.c ****     static cySysTickCallback CySysTickCallbacks[CY_SYS_SYST_NUM_OF_CALLBACKS];
  53:Generated_Source\PSoC5/CyLib.c ****     static void CySysTickServiceCallbacks(void);
  54:Generated_Source\PSoC5/CyLib.c ****     uint32 CySysTickInitVar = 0u;
  55:Generated_Source\PSoC5/CyLib.c **** #endif  /* (CY_PSOC5) */
  56:Generated_Source\PSoC5/CyLib.c **** 
  57:Generated_Source\PSoC5/CyLib.c **** 
  58:Generated_Source\PSoC5/CyLib.c **** #if(CY_PSOC3)
  59:Generated_Source\PSoC5/CyLib.c ****     CY_ISR_PROTO(IntDefaultHandler);
  60:Generated_Source\PSoC5/CyLib.c **** #endif /* (CY_PSOC3) */
  61:Generated_Source\PSoC5/CyLib.c **** 
  62:Generated_Source\PSoC5/CyLib.c **** 
  63:Generated_Source\PSoC5/CyLib.c **** /*******************************************************************************
  64:Generated_Source\PSoC5/CyLib.c **** * Function Name: CyPLL_OUT_Start
  65:Generated_Source\PSoC5/CyLib.c **** ****************************************************************************//**
  66:Generated_Source\PSoC5/CyLib.c **** *
  67:Generated_Source\PSoC5/CyLib.c **** *   Enables the PLL.  Optionally waits for it to become stable.
  68:Generated_Source\PSoC5/CyLib.c **** *   Waits at least 250 us or until it is detected that the PLL is stable.
  69:Generated_Source\PSoC5/CyLib.c **** *
  70:Generated_Source\PSoC5/CyLib.c **** *   \param wait:
  71:Generated_Source\PSoC5/CyLib.c **** *    \param 0: Return immediately after configuration
  72:Generated_Source\PSoC5/CyLib.c **** *    \param 1: Wait for PLL lock or timeout.
  73:Generated_Source\PSoC5/CyLib.c **** *
  74:Generated_Source\PSoC5/CyLib.c **** * \return
  75:Generated_Source\PSoC5/CyLib.c **** *   Status
  76:Generated_Source\PSoC5/CyLib.c **** *    CYRET_SUCCESS - Completed successfully
  77:Generated_Source\PSoC5/CyLib.c **** *    CYRET_TIMEOUT - Timeout occurred without detecting a stable clock.
  78:Generated_Source\PSoC5/CyLib.c **** *     If the input source of the clock is jittery, then the lock indication
  79:Generated_Source\PSoC5/CyLib.c **** *     may not occur.  However, after the timeout has expired the generated PLL
  80:Generated_Source\PSoC5/CyLib.c **** *     clock can still be used.
  81:Generated_Source\PSoC5/CyLib.c **** *
  82:Generated_Source\PSoC5/CyLib.c **** * \sideeffect
  83:Generated_Source\PSoC5/CyLib.c **** *  If wait is enabled: This function uses the Fast Time Wheel to time the wait.
  84:Generated_Source\PSoC5/CyLib.c **** *  Any other use of the Fast Time Wheel will be stopped during the period of
  85:Generated_Source\PSoC5/CyLib.c **** *  this function and then restored. This function also uses the 100 KHz ILO.
  86:Generated_Source\PSoC5/CyLib.c **** *  If not enabled, this function will enable the 100 KHz ILO for the period of
  87:Generated_Source\PSoC5/CyLib.c **** *  this function.
  88:Generated_Source\PSoC5/CyLib.c **** *
  89:Generated_Source\PSoC5/CyLib.c **** *  No changes to the setup of the ILO, Fast Time Wheel, Central Time Wheel or
  90:Generated_Source\PSoC5/CyLib.c **** *  Once Per Second interrupt may be made by interrupt routines during the period
  91:Generated_Source\PSoC5/CyLib.c **** *  of this function execution. The current operation of the ILO, Central Time
  92:Generated_Source\PSoC5/CyLib.c **** *  Wheel and Once Per Second interrupt are maintained during the operation of
  93:Generated_Source\PSoC5/CyLib.c **** *  this function provided the reading of the Power Manager Interrupt Status
  94:Generated_Source\PSoC5/CyLib.c **** *  Register is only done using the CyPmReadStatus() function.
  95:Generated_Source\PSoC5/CyLib.c **** *
  96:Generated_Source\PSoC5/CyLib.c **** *******************************************************************************/
  97:Generated_Source\PSoC5/CyLib.c **** cystatus CyPLL_OUT_Start(uint8 wait) 
  98:Generated_Source\PSoC5/CyLib.c **** {
  67              		.loc 1 98 0
  68              		.cfi_startproc
  69              		@ args = 0, pretend = 0, frame = 16
ARM GAS  C:\Users\ben\AppData\Local\Temp\ccnBLHGm.s 			page 4


  70              		@ frame_needed = 1, uses_anonymous_args = 0
  71 0000 80B5     		push	{r7, lr}
  72              		.cfi_def_cfa_offset 8
  73              		.cfi_offset 7, -8
  74              		.cfi_offset 14, -4
  75 0002 84B0     		sub	sp, sp, #16
  76              		.cfi_def_cfa_offset 24
  77 0004 00AF     		add	r7, sp, #0
  78              		.cfi_def_cfa_register 7
  79 0006 0346     		mov	r3, r0
  80 0008 FB71     		strb	r3, [r7, #7]
  99:Generated_Source\PSoC5/CyLib.c ****     cystatus status = CYRET_SUCCESS;
  81              		.loc 1 99 0
  82 000a 0023     		movs	r3, #0
  83 000c FB60     		str	r3, [r7, #12]
 100:Generated_Source\PSoC5/CyLib.c **** 
 101:Generated_Source\PSoC5/CyLib.c ****     uint8 iloEnableState;
 102:Generated_Source\PSoC5/CyLib.c ****     uint8 pmTwCfg0State;
 103:Generated_Source\PSoC5/CyLib.c ****     uint8 pmTwCfg2State;
 104:Generated_Source\PSoC5/CyLib.c **** 
 105:Generated_Source\PSoC5/CyLib.c **** 
 106:Generated_Source\PSoC5/CyLib.c ****     /* Enables PLL circuit  */
 107:Generated_Source\PSoC5/CyLib.c ****     CY_CLK_PLL_CFG0_REG |= CY_CLK_PLL_ENABLE;
  84              		.loc 1 107 0
  85 000e 234A     		ldr	r2, .L8
  86 0010 224B     		ldr	r3, .L8
  87 0012 1B78     		ldrb	r3, [r3]
  88 0014 DBB2     		uxtb	r3, r3
  89 0016 43F00103 		orr	r3, r3, #1
  90 001a DBB2     		uxtb	r3, r3
  91 001c 1370     		strb	r3, [r2]
 108:Generated_Source\PSoC5/CyLib.c **** 
 109:Generated_Source\PSoC5/CyLib.c ****     if(wait != 0u)
  92              		.loc 1 109 0
  93 001e FB79     		ldrb	r3, [r7, #7]	@ zero_extendqisi2
  94 0020 002B     		cmp	r3, #0
  95 0022 36D0     		beq	.L2
 110:Generated_Source\PSoC5/CyLib.c ****     {
 111:Generated_Source\PSoC5/CyLib.c ****         /* Save 100 KHz ILO, FTW interval, enable and interrupt enable */
 112:Generated_Source\PSoC5/CyLib.c ****         iloEnableState = CY_LIB_SLOWCLK_ILO_CR0_REG & CY_LIB_SLOWCLK_ILO_CR0_EN_100KHZ;
  96              		.loc 1 112 0
  97 0024 1E4B     		ldr	r3, .L8+4
  98 0026 1B78     		ldrb	r3, [r3]
  99 0028 DBB2     		uxtb	r3, r3
 100 002a 03F00403 		and	r3, r3, #4
 101 002e FB72     		strb	r3, [r7, #11]
 113:Generated_Source\PSoC5/CyLib.c ****         pmTwCfg0State = CY_LIB_PM_TW_CFG0_REG;
 102              		.loc 1 113 0
 103 0030 1C4B     		ldr	r3, .L8+8
 104 0032 1B78     		ldrb	r3, [r3]
 105 0034 BB72     		strb	r3, [r7, #10]
 114:Generated_Source\PSoC5/CyLib.c ****         pmTwCfg2State = CY_LIB_PM_TW_CFG2_REG;
 106              		.loc 1 114 0
 107 0036 1C4B     		ldr	r3, .L8+12
 108 0038 1B78     		ldrb	r3, [r3]
 109 003a 7B72     		strb	r3, [r7, #9]
 115:Generated_Source\PSoC5/CyLib.c **** 
ARM GAS  C:\Users\ben\AppData\Local\Temp\ccnBLHGm.s 			page 5


 116:Generated_Source\PSoC5/CyLib.c ****         CyPmFtwSetInterval(CY_CLK_PLL_FTW_INTERVAL);
 110              		.loc 1 116 0
 111 003c 1820     		movs	r0, #24
 112 003e FFF7FEFF 		bl	CyPmFtwSetInterval
 117:Generated_Source\PSoC5/CyLib.c **** 
 118:Generated_Source\PSoC5/CyLib.c ****         status = CYRET_TIMEOUT;
 113              		.loc 1 118 0
 114 0042 1023     		movs	r3, #16
 115 0044 FB60     		str	r3, [r7, #12]
 119:Generated_Source\PSoC5/CyLib.c **** 
 120:Generated_Source\PSoC5/CyLib.c ****         while(0u == (CY_PM_FTW_INT & CyPmReadStatus(CY_PM_FTW_INT)))
 116              		.loc 1 120 0
 117 0046 10E0     		b	.L3
 118              	.L5:
 121:Generated_Source\PSoC5/CyLib.c ****         {
 122:Generated_Source\PSoC5/CyLib.c ****             /* Wait for interrupt status */
 123:Generated_Source\PSoC5/CyLib.c ****             if(0u != (CY_CLK_PLL_SR_REG & CY_CLK_PLL_LOCK_STATUS))
 119              		.loc 1 123 0
 120 0048 184B     		ldr	r3, .L8+16
 121 004a 1B78     		ldrb	r3, [r3]
 122 004c DBB2     		uxtb	r3, r3
 123 004e 03F00103 		and	r3, r3, #1
 124 0052 002B     		cmp	r3, #0
 125 0054 09D0     		beq	.L3
 124:Generated_Source\PSoC5/CyLib.c ****             {
 125:Generated_Source\PSoC5/CyLib.c ****                 if(0u != (CY_CLK_PLL_SR_REG & CY_CLK_PLL_LOCK_STATUS))
 126              		.loc 1 125 0
 127 0056 154B     		ldr	r3, .L8+16
 128 0058 1B78     		ldrb	r3, [r3]
 129 005a DBB2     		uxtb	r3, r3
 130 005c 03F00103 		and	r3, r3, #1
 131 0060 002B     		cmp	r3, #0
 132 0062 02D0     		beq	.L3
 126:Generated_Source\PSoC5/CyLib.c ****                 {
 127:Generated_Source\PSoC5/CyLib.c ****                     status = CYRET_SUCCESS;
 133              		.loc 1 127 0
 134 0064 0023     		movs	r3, #0
 135 0066 FB60     		str	r3, [r7, #12]
 128:Generated_Source\PSoC5/CyLib.c ****                     break;
 136              		.loc 1 128 0
 137 0068 08E0     		b	.L4
 138              	.L3:
 120:Generated_Source\PSoC5/CyLib.c ****         {
 139              		.loc 1 120 0
 140 006a 0120     		movs	r0, #1
 141 006c FFF7FEFF 		bl	CyPmReadStatus
 142 0070 0346     		mov	r3, r0
 143 0072 03F00103 		and	r3, r3, #1
 144 0076 DBB2     		uxtb	r3, r3
 145 0078 002B     		cmp	r3, #0
 146 007a E5D0     		beq	.L5
 147              	.L4:
 129:Generated_Source\PSoC5/CyLib.c ****                 }
 130:Generated_Source\PSoC5/CyLib.c ****             }
 131:Generated_Source\PSoC5/CyLib.c ****         }
 132:Generated_Source\PSoC5/CyLib.c **** 
 133:Generated_Source\PSoC5/CyLib.c ****         /* Restore 100 KHz ILO, FTW interval, enable and interrupt enable */
ARM GAS  C:\Users\ben\AppData\Local\Temp\ccnBLHGm.s 			page 6


 134:Generated_Source\PSoC5/CyLib.c ****         if(0u == iloEnableState)
 148              		.loc 1 134 0
 149 007c FB7A     		ldrb	r3, [r7, #11]	@ zero_extendqisi2
 150 007e 002B     		cmp	r3, #0
 151 0080 01D1     		bne	.L6
 135:Generated_Source\PSoC5/CyLib.c ****         {
 136:Generated_Source\PSoC5/CyLib.c ****             CyILO_Stop100K();
 152              		.loc 1 136 0
 153 0082 FFF7FEFF 		bl	CyILO_Stop100K
 154              	.L6:
 137:Generated_Source\PSoC5/CyLib.c ****         }
 138:Generated_Source\PSoC5/CyLib.c **** 
 139:Generated_Source\PSoC5/CyLib.c ****         CY_LIB_PM_TW_CFG0_REG = pmTwCfg0State;
 155              		.loc 1 139 0
 156 0086 074A     		ldr	r2, .L8+8
 157 0088 BB7A     		ldrb	r3, [r7, #10]
 158 008a 1370     		strb	r3, [r2]
 140:Generated_Source\PSoC5/CyLib.c ****         CY_LIB_PM_TW_CFG2_REG = pmTwCfg2State;
 159              		.loc 1 140 0
 160 008c 064A     		ldr	r2, .L8+12
 161 008e 7B7A     		ldrb	r3, [r7, #9]
 162 0090 1370     		strb	r3, [r2]
 163              	.L2:
 141:Generated_Source\PSoC5/CyLib.c ****     }
 142:Generated_Source\PSoC5/CyLib.c **** 
 143:Generated_Source\PSoC5/CyLib.c ****     return(status);
 164              		.loc 1 143 0
 165 0092 FB68     		ldr	r3, [r7, #12]
 144:Generated_Source\PSoC5/CyLib.c **** }
 166              		.loc 1 144 0
 167 0094 1846     		mov	r0, r3
 168 0096 1037     		adds	r7, r7, #16
 169              		.cfi_def_cfa_offset 8
 170 0098 BD46     		mov	sp, r7
 171              		.cfi_def_cfa_register 13
 172              		@ sp needed
 173 009a 80BD     		pop	{r7, pc}
 174              	.L9:
 175              		.align	2
 176              	.L8:
 177 009c 20420040 		.word	1073758752
 178 00a0 00430040 		.word	1073758976
 179 00a4 80430040 		.word	1073759104
 180 00a8 82430040 		.word	1073759106
 181 00ac 25420040 		.word	1073758757
 182              		.cfi_endproc
 183              	.LFE0:
 184              		.size	CyPLL_OUT_Start, .-CyPLL_OUT_Start
 185              		.section	.text.CyPLL_OUT_Stop,"ax",%progbits
 186              		.align	2
 187              		.global	CyPLL_OUT_Stop
 188              		.thumb
 189              		.thumb_func
 190              		.type	CyPLL_OUT_Stop, %function
 191              	CyPLL_OUT_Stop:
 192              	.LFB1:
 145:Generated_Source\PSoC5/CyLib.c **** 
ARM GAS  C:\Users\ben\AppData\Local\Temp\ccnBLHGm.s 			page 7


 146:Generated_Source\PSoC5/CyLib.c **** 
 147:Generated_Source\PSoC5/CyLib.c **** /*******************************************************************************
 148:Generated_Source\PSoC5/CyLib.c **** * Function Name: CyPLL_OUT_Stop
 149:Generated_Source\PSoC5/CyLib.c **** ****************************************************************************//**
 150:Generated_Source\PSoC5/CyLib.c **** *
 151:Generated_Source\PSoC5/CyLib.c **** *  Disables the PLL.
 152:Generated_Source\PSoC5/CyLib.c **** *
 153:Generated_Source\PSoC5/CyLib.c **** *******************************************************************************/
 154:Generated_Source\PSoC5/CyLib.c **** void CyPLL_OUT_Stop(void) 
 155:Generated_Source\PSoC5/CyLib.c **** {
 193              		.loc 1 155 0
 194              		.cfi_startproc
 195              		@ args = 0, pretend = 0, frame = 0
 196              		@ frame_needed = 1, uses_anonymous_args = 0
 197              		@ link register save eliminated.
 198 0000 80B4     		push	{r7}
 199              		.cfi_def_cfa_offset 4
 200              		.cfi_offset 7, -4
 201 0002 00AF     		add	r7, sp, #0
 202              		.cfi_def_cfa_register 7
 156:Generated_Source\PSoC5/CyLib.c ****     CY_CLK_PLL_CFG0_REG &= ((uint8)(~CY_CLK_PLL_ENABLE));
 203              		.loc 1 156 0
 204 0004 054A     		ldr	r2, .L11
 205 0006 054B     		ldr	r3, .L11
 206 0008 1B78     		ldrb	r3, [r3]
 207 000a DBB2     		uxtb	r3, r3
 208 000c 23F00103 		bic	r3, r3, #1
 209 0010 DBB2     		uxtb	r3, r3
 210 0012 1370     		strb	r3, [r2]
 157:Generated_Source\PSoC5/CyLib.c **** }
 211              		.loc 1 157 0
 212 0014 BD46     		mov	sp, r7
 213              		.cfi_def_cfa_register 13
 214              		@ sp needed
 215 0016 5DF8047B 		ldr	r7, [sp], #4
 216              		.cfi_restore 7
 217              		.cfi_def_cfa_offset 0
 218 001a 7047     		bx	lr
 219              	.L12:
 220              		.align	2
 221              	.L11:
 222 001c 20420040 		.word	1073758752
 223              		.cfi_endproc
 224              	.LFE1:
 225              		.size	CyPLL_OUT_Stop, .-CyPLL_OUT_Stop
 226              		.section	.text.CyPLL_OUT_SetPQ,"ax",%progbits
 227              		.align	2
 228              		.global	CyPLL_OUT_SetPQ
 229              		.thumb
 230              		.thumb_func
 231              		.type	CyPLL_OUT_SetPQ, %function
 232              	CyPLL_OUT_SetPQ:
 233              	.LFB2:
 158:Generated_Source\PSoC5/CyLib.c **** 
 159:Generated_Source\PSoC5/CyLib.c **** 
 160:Generated_Source\PSoC5/CyLib.c **** /*******************************************************************************
 161:Generated_Source\PSoC5/CyLib.c **** * Function Name: CyPLL_OUT_SetPQ
ARM GAS  C:\Users\ben\AppData\Local\Temp\ccnBLHGm.s 			page 8


 162:Generated_Source\PSoC5/CyLib.c **** ****************************************************************************//**
 163:Generated_Source\PSoC5/CyLib.c **** *
 164:Generated_Source\PSoC5/CyLib.c **** *  Sets the P and Q dividers and the charge pump current.
 165:Generated_Source\PSoC5/CyLib.c **** *  The Frequency Out will be P/Q * Frequency In.
 166:Generated_Source\PSoC5/CyLib.c **** *  The PLL must be disabled before calling this function.
 167:Generated_Source\PSoC5/CyLib.c **** *
 168:Generated_Source\PSoC5/CyLib.c **** *  \param uint8 pDiv:
 169:Generated_Source\PSoC5/CyLib.c **** *   Valid range [8 - 255].
 170:Generated_Source\PSoC5/CyLib.c **** *
 171:Generated_Source\PSoC5/CyLib.c **** *  \param uint8 qDiv:
 172:Generated_Source\PSoC5/CyLib.c **** *   Valid range [1 - 16]. Input Frequency / Q must be in range of 1 to 3 MHz.
 173:Generated_Source\PSoC5/CyLib.c **** 
 174:Generated_Source\PSoC5/CyLib.c **** *  \param uint8 current:
 175:Generated_Source\PSoC5/CyLib.c **** *   Valid range [1 - 7]. Charge pump current in uA. Refer to the device TRM and
 176:Generated_Source\PSoC5/CyLib.c **** *   datasheet for more information.
 177:Generated_Source\PSoC5/CyLib.c **** *
 178:Generated_Source\PSoC5/CyLib.c **** * \sideeffect
 179:Generated_Source\PSoC5/CyLib.c **** *  If this function execution results in the CPU clock frequency increasing,
 180:Generated_Source\PSoC5/CyLib.c **** *  then the number of clock cycles the cache will wait before it samples data
 181:Generated_Source\PSoC5/CyLib.c **** *  coming back from the Flash must be adjusted by calling
 182:Generated_Source\PSoC5/CyLib.c **** *  CyFlash_SetWaitCycles() with an appropriate parameter. It can be optionally
 183:Generated_Source\PSoC5/CyLib.c **** *  called if the CPU clock frequency is lowered in order to improve the CPU
 184:Generated_Source\PSoC5/CyLib.c **** *  performance. See CyFlash_SetWaitCycles() description for more information.
 185:Generated_Source\PSoC5/CyLib.c **** *
 186:Generated_Source\PSoC5/CyLib.c **** *******************************************************************************/
 187:Generated_Source\PSoC5/CyLib.c **** void CyPLL_OUT_SetPQ(uint8 pDiv, uint8 qDiv, uint8 current) 
 188:Generated_Source\PSoC5/CyLib.c **** {
 234              		.loc 1 188 0
 235              		.cfi_startproc
 236              		@ args = 0, pretend = 0, frame = 8
 237              		@ frame_needed = 1, uses_anonymous_args = 0
 238              		@ link register save eliminated.
 239 0000 80B4     		push	{r7}
 240              		.cfi_def_cfa_offset 4
 241              		.cfi_offset 7, -4
 242 0002 83B0     		sub	sp, sp, #12
 243              		.cfi_def_cfa_offset 16
 244 0004 00AF     		add	r7, sp, #0
 245              		.cfi_def_cfa_register 7
 246 0006 0346     		mov	r3, r0
 247 0008 FB71     		strb	r3, [r7, #7]
 248 000a 0B46     		mov	r3, r1
 249 000c BB71     		strb	r3, [r7, #6]
 250 000e 1346     		mov	r3, r2
 251 0010 7B71     		strb	r3, [r7, #5]
 189:Generated_Source\PSoC5/CyLib.c ****     /* Halt CPU in debug mode if PLL is enabled */
 190:Generated_Source\PSoC5/CyLib.c ****     CYASSERT(0u == (CY_CLK_PLL_CFG0_REG & CY_CLK_PLL_ENABLE));
 191:Generated_Source\PSoC5/CyLib.c **** 
 192:Generated_Source\PSoC5/CyLib.c ****     if((pDiv    >= CY_CLK_PLL_MIN_P_VALUE  ) &&
 252              		.loc 1 192 0
 253 0012 FB79     		ldrb	r3, [r7, #7]	@ zero_extendqisi2
 254 0014 072B     		cmp	r3, #7
 255 0016 22D9     		bls	.L13
 256              		.loc 1 192 0 is_stmt 0 discriminator 1
 257 0018 BB79     		ldrb	r3, [r7, #6]	@ zero_extendqisi2
 258 001a 102B     		cmp	r3, #16
 259 001c 1FD8     		bhi	.L13
ARM GAS  C:\Users\ben\AppData\Local\Temp\ccnBLHGm.s 			page 9


 193:Generated_Source\PSoC5/CyLib.c ****        (qDiv    <= CY_CLK_PLL_MAX_Q_VALUE  ) && (qDiv    >= CY_CLK_PLL_MIN_Q_VALUE  ) &&
 260              		.loc 1 193 0 is_stmt 1
 261 001e BB79     		ldrb	r3, [r7, #6]	@ zero_extendqisi2
 262 0020 002B     		cmp	r3, #0
 263 0022 1CD0     		beq	.L13
 264              		.loc 1 193 0 is_stmt 0 discriminator 1
 265 0024 7B79     		ldrb	r3, [r7, #5]	@ zero_extendqisi2
 266 0026 002B     		cmp	r3, #0
 267 0028 19D0     		beq	.L13
 194:Generated_Source\PSoC5/CyLib.c ****        (current >= CY_CLK_PLL_MIN_CUR_VALUE) && (current <= CY_CLK_PLL_MAX_CUR_VALUE))
 268              		.loc 1 194 0 is_stmt 1
 269 002a 7B79     		ldrb	r3, [r7, #5]	@ zero_extendqisi2
 270 002c 072B     		cmp	r3, #7
 271 002e 16D8     		bhi	.L13
 195:Generated_Source\PSoC5/CyLib.c ****     {
 196:Generated_Source\PSoC5/CyLib.c ****         /* Set new values */
 197:Generated_Source\PSoC5/CyLib.c ****         CY_CLK_PLL_P_REG = pDiv;
 272              		.loc 1 197 0
 273 0030 0D4A     		ldr	r2, .L15
 274 0032 FB79     		ldrb	r3, [r7, #7]
 275 0034 1370     		strb	r3, [r2]
 198:Generated_Source\PSoC5/CyLib.c ****         CY_CLK_PLL_Q_REG = ((uint8)(qDiv - 1u));
 276              		.loc 1 198 0
 277 0036 0D4A     		ldr	r2, .L15+4
 278 0038 BB79     		ldrb	r3, [r7, #6]
 279 003a 013B     		subs	r3, r3, #1
 280 003c DBB2     		uxtb	r3, r3
 281 003e 1370     		strb	r3, [r2]
 199:Generated_Source\PSoC5/CyLib.c ****         CY_CLK_PLL_CFG1_REG = (CY_CLK_PLL_CFG1_REG & CY_CLK_PLL_CURRENT_MASK) |
 282              		.loc 1 199 0
 283 0040 0B49     		ldr	r1, .L15+8
 284 0042 0B4B     		ldr	r3, .L15+8
 285 0044 1B78     		ldrb	r3, [r3]
 286 0046 DBB2     		uxtb	r3, r3
 287 0048 23F07003 		bic	r3, r3, #112
 288 004c DAB2     		uxtb	r2, r3
 200:Generated_Source\PSoC5/CyLib.c ****                                 ((uint8)(((uint8)(current - 1u)) << CY_CLK_PLL_CURRENT_POSITION));
 289              		.loc 1 200 0
 290 004e 7B79     		ldrb	r3, [r7, #5]
 291 0050 013B     		subs	r3, r3, #1
 292 0052 DBB2     		uxtb	r3, r3
 293 0054 1B01     		lsls	r3, r3, #4
 294 0056 DBB2     		uxtb	r3, r3
 199:Generated_Source\PSoC5/CyLib.c ****         CY_CLK_PLL_CFG1_REG = (CY_CLK_PLL_CFG1_REG & CY_CLK_PLL_CURRENT_MASK) |
 295              		.loc 1 199 0
 296 0058 1343     		orrs	r3, r3, r2
 297 005a DBB2     		uxtb	r3, r3
 298 005c 0B70     		strb	r3, [r1]
 299              	.L13:
 201:Generated_Source\PSoC5/CyLib.c ****     }
 202:Generated_Source\PSoC5/CyLib.c ****     else
 203:Generated_Source\PSoC5/CyLib.c ****     {
 204:Generated_Source\PSoC5/CyLib.c ****         /***********************************************************************
 205:Generated_Source\PSoC5/CyLib.c ****         * Halt CPU in debug mode if:
 206:Generated_Source\PSoC5/CyLib.c ****         * - P divider is less than required
 207:Generated_Source\PSoC5/CyLib.c ****         * - Q divider is out of range
 208:Generated_Source\PSoC5/CyLib.c ****         * - pump current is out of range
ARM GAS  C:\Users\ben\AppData\Local\Temp\ccnBLHGm.s 			page 10


 209:Generated_Source\PSoC5/CyLib.c ****         ***********************************************************************/
 210:Generated_Source\PSoC5/CyLib.c ****         CYASSERT(0u != 0u);
 211:Generated_Source\PSoC5/CyLib.c ****     }
 212:Generated_Source\PSoC5/CyLib.c **** 
 213:Generated_Source\PSoC5/CyLib.c **** }
 300              		.loc 1 213 0
 301 005e 0C37     		adds	r7, r7, #12
 302              		.cfi_def_cfa_offset 4
 303 0060 BD46     		mov	sp, r7
 304              		.cfi_def_cfa_register 13
 305              		@ sp needed
 306 0062 5DF8047B 		ldr	r7, [sp], #4
 307              		.cfi_restore 7
 308              		.cfi_def_cfa_offset 0
 309 0066 7047     		bx	lr
 310              	.L16:
 311              		.align	2
 312              	.L15:
 313 0068 22420040 		.word	1073758754
 314 006c 23420040 		.word	1073758755
 315 0070 21420040 		.word	1073758753
 316              		.cfi_endproc
 317              	.LFE2:
 318              		.size	CyPLL_OUT_SetPQ, .-CyPLL_OUT_SetPQ
 319              		.section	.text.CyPLL_OUT_SetSource,"ax",%progbits
 320              		.align	2
 321              		.global	CyPLL_OUT_SetSource
 322              		.thumb
 323              		.thumb_func
 324              		.type	CyPLL_OUT_SetSource, %function
 325              	CyPLL_OUT_SetSource:
 326              	.LFB3:
 214:Generated_Source\PSoC5/CyLib.c **** 
 215:Generated_Source\PSoC5/CyLib.c **** 
 216:Generated_Source\PSoC5/CyLib.c **** /*******************************************************************************
 217:Generated_Source\PSoC5/CyLib.c **** * Function Name: CyPLL_OUT_SetSource
 218:Generated_Source\PSoC5/CyLib.c **** ****************************************************************************//**
 219:Generated_Source\PSoC5/CyLib.c **** *
 220:Generated_Source\PSoC5/CyLib.c **** *  Sets the input clock source to the PLL. The PLL must be disabled before
 221:Generated_Source\PSoC5/CyLib.c **** *  calling this function.
 222:Generated_Source\PSoC5/CyLib.c **** *
 223:Generated_Source\PSoC5/CyLib.c **** *   \param source: One of the three available PLL clock sources
 224:Generated_Source\PSoC5/CyLib.c **** *    \param CY_PLL_SOURCE_IMO  :   IMO
 225:Generated_Source\PSoC5/CyLib.c **** *    \param CY_PLL_SOURCE_XTAL :   MHz Crystal
 226:Generated_Source\PSoC5/CyLib.c **** *    \param CY_PLL_SOURCE_DSI  :   DSI
 227:Generated_Source\PSoC5/CyLib.c **** *
 228:Generated_Source\PSoC5/CyLib.c **** * \sideeffect
 229:Generated_Source\PSoC5/CyLib.c **** *  If this function execution results in the CPU clock frequency increasing,
 230:Generated_Source\PSoC5/CyLib.c **** *  then the number of clock cycles the cache will wait before it samples data
 231:Generated_Source\PSoC5/CyLib.c **** *  coming back from the3 Flash must be adjusted by calling
 232:Generated_Source\PSoC5/CyLib.c **** *  CyFlash_SetWaitCycles() with an appropriate parameter. It can be optionally
 233:Generated_Source\PSoC5/CyLib.c **** *  called if the CPU clock frequency is lowered in order to improve the CPU
 234:Generated_Source\PSoC5/CyLib.c **** *  performance. See CyFlash_SetWaitCycles() description for more information.
 235:Generated_Source\PSoC5/CyLib.c **** *
 236:Generated_Source\PSoC5/CyLib.c **** *******************************************************************************/
 237:Generated_Source\PSoC5/CyLib.c **** void CyPLL_OUT_SetSource(uint8 source) 
 238:Generated_Source\PSoC5/CyLib.c **** {
ARM GAS  C:\Users\ben\AppData\Local\Temp\ccnBLHGm.s 			page 11


 327              		.loc 1 238 0
 328              		.cfi_startproc
 329              		@ args = 0, pretend = 0, frame = 8
 330              		@ frame_needed = 1, uses_anonymous_args = 0
 331              		@ link register save eliminated.
 332 0000 80B4     		push	{r7}
 333              		.cfi_def_cfa_offset 4
 334              		.cfi_offset 7, -4
 335 0002 83B0     		sub	sp, sp, #12
 336              		.cfi_def_cfa_offset 16
 337 0004 00AF     		add	r7, sp, #0
 338              		.cfi_def_cfa_register 7
 339 0006 0346     		mov	r3, r0
 340 0008 FB71     		strb	r3, [r7, #7]
 239:Generated_Source\PSoC5/CyLib.c ****     /* Halt CPU in debug mode if PLL is enabled */
 240:Generated_Source\PSoC5/CyLib.c ****     CYASSERT(0u == (CY_CLK_PLL_CFG0_REG & CY_CLK_PLL_ENABLE));
 241:Generated_Source\PSoC5/CyLib.c **** 
 242:Generated_Source\PSoC5/CyLib.c ****     switch(source)
 341              		.loc 1 242 0
 342 000a FB79     		ldrb	r3, [r7, #7]	@ zero_extendqisi2
 343 000c 0033     		adds	r3, r3, #0
 344 000e 022B     		cmp	r3, #2
 345 0010 0DD8     		bhi	.L21
 243:Generated_Source\PSoC5/CyLib.c ****     {
 244:Generated_Source\PSoC5/CyLib.c ****         case CY_PLL_SOURCE_IMO:
 245:Generated_Source\PSoC5/CyLib.c ****         case CY_PLL_SOURCE_XTAL:
 246:Generated_Source\PSoC5/CyLib.c ****         case CY_PLL_SOURCE_DSI:
 247:Generated_Source\PSoC5/CyLib.c ****             CY_LIB_CLKDIST_CR_REG = ((CY_LIB_CLKDIST_CR_REG & CY_LIB_CLKDIST_CR_PLL_SCR_MASK) | sou
 346              		.loc 1 247 0
 347 0012 4FF04021 		mov	r1, #1073758208
 348 0016 4FF04023 		mov	r3, #1073758208
 349 001a 1B78     		ldrb	r3, [r3]
 350 001c DBB2     		uxtb	r3, r3
 351 001e 23F00303 		bic	r3, r3, #3
 352 0022 DAB2     		uxtb	r2, r3
 353 0024 FB79     		ldrb	r3, [r7, #7]
 354 0026 1343     		orrs	r3, r3, r2
 355 0028 DBB2     		uxtb	r3, r3
 356 002a 0B70     		strb	r3, [r1]
 248:Generated_Source\PSoC5/CyLib.c ****         break;
 357              		.loc 1 248 0
 358 002c 00E0     		b	.L17
 359              	.L21:
 249:Generated_Source\PSoC5/CyLib.c **** 
 250:Generated_Source\PSoC5/CyLib.c ****         default:
 251:Generated_Source\PSoC5/CyLib.c ****             CYASSERT(0u != 0u);
 252:Generated_Source\PSoC5/CyLib.c ****         break;
 360              		.loc 1 252 0
 361 002e 00BF     		nop
 362              	.L17:
 253:Generated_Source\PSoC5/CyLib.c ****     }
 254:Generated_Source\PSoC5/CyLib.c **** }
 363              		.loc 1 254 0
 364 0030 0C37     		adds	r7, r7, #12
 365              		.cfi_def_cfa_offset 4
 366 0032 BD46     		mov	sp, r7
 367              		.cfi_def_cfa_register 13
ARM GAS  C:\Users\ben\AppData\Local\Temp\ccnBLHGm.s 			page 12


 368              		@ sp needed
 369 0034 5DF8047B 		ldr	r7, [sp], #4
 370              		.cfi_restore 7
 371              		.cfi_def_cfa_offset 0
 372 0038 7047     		bx	lr
 373              		.cfi_endproc
 374              	.LFE3:
 375              		.size	CyPLL_OUT_SetSource, .-CyPLL_OUT_SetSource
 376 003a 00BF     		.section	.text.CyIMO_Start,"ax",%progbits
 377              		.align	2
 378              		.global	CyIMO_Start
 379              		.thumb
 380              		.thumb_func
 381              		.type	CyIMO_Start, %function
 382              	CyIMO_Start:
 383              	.LFB4:
 255:Generated_Source\PSoC5/CyLib.c **** 
 256:Generated_Source\PSoC5/CyLib.c **** 
 257:Generated_Source\PSoC5/CyLib.c **** /*******************************************************************************
 258:Generated_Source\PSoC5/CyLib.c **** * Function Name: CyIMO_Start
 259:Generated_Source\PSoC5/CyLib.c **** ****************************************************************************//**
 260:Generated_Source\PSoC5/CyLib.c **** *
 261:Generated_Source\PSoC5/CyLib.c **** *  Enables the IMO. Optionally waits at least 6 us for it to settle.
 262:Generated_Source\PSoC5/CyLib.c **** *
 263:Generated_Source\PSoC5/CyLib.c **** *  \param uint8 wait:
 264:Generated_Source\PSoC5/CyLib.c **** *   \param 0: Return immediately after configuration
 265:Generated_Source\PSoC5/CyLib.c **** *   \param 1: Wait for at least 6 us for the IMO to settle.
 266:Generated_Source\PSoC5/CyLib.c **** *
 267:Generated_Source\PSoC5/CyLib.c **** * \sideeffect
 268:Generated_Source\PSoC5/CyLib.c **** *  If wait is enabled: This function uses the Fast Time Wheel to time the wait.
 269:Generated_Source\PSoC5/CyLib.c **** *  Any other use of the Fast Time Wheel will be stopped during the period of
 270:Generated_Source\PSoC5/CyLib.c **** *  this function and then restored. This function also uses the 100 KHz ILO.
 271:Generated_Source\PSoC5/CyLib.c **** *  If not enabled, this function will enable the 100 KHz ILO for the period of
 272:Generated_Source\PSoC5/CyLib.c **** *  this function.
 273:Generated_Source\PSoC5/CyLib.c **** *
 274:Generated_Source\PSoC5/CyLib.c **** *  No changes to the setup of the ILO, Fast Time Wheel, Central Time Wheel or
 275:Generated_Source\PSoC5/CyLib.c **** *  Once Per Second interrupt may be made by interrupt routines during the period
 276:Generated_Source\PSoC5/CyLib.c **** *  of this function execution. The current operation of the ILO, Central Time
 277:Generated_Source\PSoC5/CyLib.c **** *  Wheel and Once Per Second interrupt are maintained during the operation of
 278:Generated_Source\PSoC5/CyLib.c **** *  this function provided the reading of the Power Manager Interrupt Status
 279:Generated_Source\PSoC5/CyLib.c **** *  Register is only done using the CyPmReadStatus() function.
 280:Generated_Source\PSoC5/CyLib.c **** *
 281:Generated_Source\PSoC5/CyLib.c **** *******************************************************************************/
 282:Generated_Source\PSoC5/CyLib.c **** void CyIMO_Start(uint8 wait) 
 283:Generated_Source\PSoC5/CyLib.c **** {
 384              		.loc 1 283 0
 385              		.cfi_startproc
 386              		@ args = 0, pretend = 0, frame = 16
 387              		@ frame_needed = 1, uses_anonymous_args = 0
 388 0000 80B5     		push	{r7, lr}
 389              		.cfi_def_cfa_offset 8
 390              		.cfi_offset 7, -8
 391              		.cfi_offset 14, -4
 392 0002 84B0     		sub	sp, sp, #16
 393              		.cfi_def_cfa_offset 24
 394 0004 00AF     		add	r7, sp, #0
 395              		.cfi_def_cfa_register 7
ARM GAS  C:\Users\ben\AppData\Local\Temp\ccnBLHGm.s 			page 13


 396 0006 0346     		mov	r3, r0
 397 0008 FB71     		strb	r3, [r7, #7]
 284:Generated_Source\PSoC5/CyLib.c ****     uint8 pmFtwCfg2Reg;
 285:Generated_Source\PSoC5/CyLib.c ****     uint8 pmFtwCfg0Reg;
 286:Generated_Source\PSoC5/CyLib.c ****     uint8 ilo100KhzEnable;
 287:Generated_Source\PSoC5/CyLib.c **** 
 288:Generated_Source\PSoC5/CyLib.c **** 
 289:Generated_Source\PSoC5/CyLib.c ****     CY_LIB_PM_ACT_CFG0_REG  |= CY_LIB_PM_ACT_CFG0_IMO_EN;
 398              		.loc 1 289 0
 399 000a 1D4A     		ldr	r2, .L26
 400 000c 1C4B     		ldr	r3, .L26
 401 000e 1B78     		ldrb	r3, [r3]
 402 0010 DBB2     		uxtb	r3, r3
 403 0012 43F01003 		orr	r3, r3, #16
 404 0016 DBB2     		uxtb	r3, r3
 405 0018 1370     		strb	r3, [r2]
 290:Generated_Source\PSoC5/CyLib.c ****     CY_LIB_PM_STBY_CFG0_REG |= CY_LIB_PM_STBY_CFG0_IMO_EN;
 406              		.loc 1 290 0
 407 001a 1A4A     		ldr	r2, .L26+4
 408 001c 194B     		ldr	r3, .L26+4
 409 001e 1B78     		ldrb	r3, [r3]
 410 0020 DBB2     		uxtb	r3, r3
 411 0022 43F01003 		orr	r3, r3, #16
 412 0026 DBB2     		uxtb	r3, r3
 413 0028 1370     		strb	r3, [r2]
 291:Generated_Source\PSoC5/CyLib.c **** 
 292:Generated_Source\PSoC5/CyLib.c ****     if(0u != wait)
 414              		.loc 1 292 0
 415 002a FB79     		ldrb	r3, [r7, #7]	@ zero_extendqisi2
 416 002c 002B     		cmp	r3, #0
 417 002e 23D0     		beq	.L22
 293:Generated_Source\PSoC5/CyLib.c ****     {
 294:Generated_Source\PSoC5/CyLib.c ****         /* Need to turn on 100KHz ILO if it happens to not already be running.*/
 295:Generated_Source\PSoC5/CyLib.c ****         ilo100KhzEnable = CY_LIB_SLOWCLK_ILO_CR0_REG & CY_LIB_SLOWCLK_ILO_CR0_EN_100KHZ;
 418              		.loc 1 295 0
 419 0030 154B     		ldr	r3, .L26+8
 420 0032 1B78     		ldrb	r3, [r3]
 421 0034 DBB2     		uxtb	r3, r3
 422 0036 03F00403 		and	r3, r3, #4
 423 003a FB73     		strb	r3, [r7, #15]
 296:Generated_Source\PSoC5/CyLib.c ****         pmFtwCfg0Reg = CY_LIB_PM_TW_CFG0_REG;
 424              		.loc 1 296 0
 425 003c 134B     		ldr	r3, .L26+12
 426 003e 1B78     		ldrb	r3, [r3]
 427 0040 BB73     		strb	r3, [r7, #14]
 297:Generated_Source\PSoC5/CyLib.c ****         pmFtwCfg2Reg = CY_LIB_PM_TW_CFG2_REG;
 428              		.loc 1 297 0
 429 0042 134B     		ldr	r3, .L26+16
 430 0044 1B78     		ldrb	r3, [r3]
 431 0046 7B73     		strb	r3, [r7, #13]
 298:Generated_Source\PSoC5/CyLib.c **** 
 299:Generated_Source\PSoC5/CyLib.c ****         CyPmFtwSetInterval(CY_LIB_CLK_IMO_FTW_TIMEOUT);
 432              		.loc 1 299 0
 433 0048 0020     		movs	r0, #0
 434 004a FFF7FEFF 		bl	CyPmFtwSetInterval
 300:Generated_Source\PSoC5/CyLib.c **** 
 301:Generated_Source\PSoC5/CyLib.c ****         while (0u == (CY_PM_FTW_INT & CyPmReadStatus(CY_PM_FTW_INT)))
ARM GAS  C:\Users\ben\AppData\Local\Temp\ccnBLHGm.s 			page 14


 435              		.loc 1 301 0
 436 004e 00BF     		nop
 437              	.L24:
 438              		.loc 1 301 0 is_stmt 0 discriminator 1
 439 0050 0120     		movs	r0, #1
 440 0052 FFF7FEFF 		bl	CyPmReadStatus
 441 0056 0346     		mov	r3, r0
 442 0058 03F00103 		and	r3, r3, #1
 443 005c DBB2     		uxtb	r3, r3
 444 005e 002B     		cmp	r3, #0
 445 0060 F6D0     		beq	.L24
 302:Generated_Source\PSoC5/CyLib.c ****         {
 303:Generated_Source\PSoC5/CyLib.c ****             /* Wait for interrupt status */
 304:Generated_Source\PSoC5/CyLib.c ****         }
 305:Generated_Source\PSoC5/CyLib.c **** 
 306:Generated_Source\PSoC5/CyLib.c ****         if(0u == ilo100KhzEnable)
 446              		.loc 1 306 0 is_stmt 1
 447 0062 FB7B     		ldrb	r3, [r7, #15]	@ zero_extendqisi2
 448 0064 002B     		cmp	r3, #0
 449 0066 01D1     		bne	.L25
 307:Generated_Source\PSoC5/CyLib.c ****         {
 308:Generated_Source\PSoC5/CyLib.c ****             CyILO_Stop100K();
 450              		.loc 1 308 0
 451 0068 FFF7FEFF 		bl	CyILO_Stop100K
 452              	.L25:
 309:Generated_Source\PSoC5/CyLib.c ****         }
 310:Generated_Source\PSoC5/CyLib.c **** 
 311:Generated_Source\PSoC5/CyLib.c ****         CY_LIB_PM_TW_CFG0_REG = pmFtwCfg0Reg;
 453              		.loc 1 311 0
 454 006c 074A     		ldr	r2, .L26+12
 455 006e BB7B     		ldrb	r3, [r7, #14]
 456 0070 1370     		strb	r3, [r2]
 312:Generated_Source\PSoC5/CyLib.c ****         CY_LIB_PM_TW_CFG2_REG = pmFtwCfg2Reg;
 457              		.loc 1 312 0
 458 0072 074A     		ldr	r2, .L26+16
 459 0074 7B7B     		ldrb	r3, [r7, #13]
 460 0076 1370     		strb	r3, [r2]
 461              	.L22:
 313:Generated_Source\PSoC5/CyLib.c ****     }
 314:Generated_Source\PSoC5/CyLib.c **** }
 462              		.loc 1 314 0
 463 0078 1037     		adds	r7, r7, #16
 464              		.cfi_def_cfa_offset 8
 465 007a BD46     		mov	sp, r7
 466              		.cfi_def_cfa_register 13
 467              		@ sp needed
 468 007c 80BD     		pop	{r7, pc}
 469              	.L27:
 470 007e 00BF     		.align	2
 471              	.L26:
 472 0080 A0430040 		.word	1073759136
 473 0084 B0430040 		.word	1073759152
 474 0088 00430040 		.word	1073758976
 475 008c 80430040 		.word	1073759104
 476 0090 82430040 		.word	1073759106
 477              		.cfi_endproc
 478              	.LFE4:
ARM GAS  C:\Users\ben\AppData\Local\Temp\ccnBLHGm.s 			page 15


 479              		.size	CyIMO_Start, .-CyIMO_Start
 480              		.section	.text.CyIMO_Stop,"ax",%progbits
 481              		.align	2
 482              		.global	CyIMO_Stop
 483              		.thumb
 484              		.thumb_func
 485              		.type	CyIMO_Stop, %function
 486              	CyIMO_Stop:
 487              	.LFB5:
 315:Generated_Source\PSoC5/CyLib.c **** 
 316:Generated_Source\PSoC5/CyLib.c **** 
 317:Generated_Source\PSoC5/CyLib.c **** /*******************************************************************************
 318:Generated_Source\PSoC5/CyLib.c **** * Function Name: CyIMO_Stop
 319:Generated_Source\PSoC5/CyLib.c **** ****************************************************************************//**
 320:Generated_Source\PSoC5/CyLib.c **** *
 321:Generated_Source\PSoC5/CyLib.c **** *   Disables the IMO.
 322:Generated_Source\PSoC5/CyLib.c **** *
 323:Generated_Source\PSoC5/CyLib.c **** *******************************************************************************/
 324:Generated_Source\PSoC5/CyLib.c **** void CyIMO_Stop(void) 
 325:Generated_Source\PSoC5/CyLib.c **** {
 488              		.loc 1 325 0
 489              		.cfi_startproc
 490              		@ args = 0, pretend = 0, frame = 0
 491              		@ frame_needed = 1, uses_anonymous_args = 0
 492              		@ link register save eliminated.
 493 0000 80B4     		push	{r7}
 494              		.cfi_def_cfa_offset 4
 495              		.cfi_offset 7, -4
 496 0002 00AF     		add	r7, sp, #0
 497              		.cfi_def_cfa_register 7
 326:Generated_Source\PSoC5/CyLib.c ****     CY_LIB_PM_ACT_CFG0_REG  &= ((uint8) (~CY_LIB_PM_ACT_CFG0_IMO_EN));
 498              		.loc 1 326 0
 499 0004 094A     		ldr	r2, .L29
 500 0006 094B     		ldr	r3, .L29
 501 0008 1B78     		ldrb	r3, [r3]
 502 000a DBB2     		uxtb	r3, r3
 503 000c 23F01003 		bic	r3, r3, #16
 504 0010 DBB2     		uxtb	r3, r3
 505 0012 1370     		strb	r3, [r2]
 327:Generated_Source\PSoC5/CyLib.c ****     CY_LIB_PM_STBY_CFG0_REG &= ((uint8) (~CY_LIB_PM_STBY_CFG0_IMO_EN));
 506              		.loc 1 327 0
 507 0014 064A     		ldr	r2, .L29+4
 508 0016 064B     		ldr	r3, .L29+4
 509 0018 1B78     		ldrb	r3, [r3]
 510 001a DBB2     		uxtb	r3, r3
 511 001c 23F01003 		bic	r3, r3, #16
 512 0020 DBB2     		uxtb	r3, r3
 513 0022 1370     		strb	r3, [r2]
 328:Generated_Source\PSoC5/CyLib.c **** }
 514              		.loc 1 328 0
 515 0024 BD46     		mov	sp, r7
 516              		.cfi_def_cfa_register 13
 517              		@ sp needed
 518 0026 5DF8047B 		ldr	r7, [sp], #4
 519              		.cfi_restore 7
 520              		.cfi_def_cfa_offset 0
 521 002a 7047     		bx	lr
ARM GAS  C:\Users\ben\AppData\Local\Temp\ccnBLHGm.s 			page 16


 522              	.L30:
 523              		.align	2
 524              	.L29:
 525 002c A0430040 		.word	1073759136
 526 0030 B0430040 		.word	1073759152
 527              		.cfi_endproc
 528              	.LFE5:
 529              		.size	CyIMO_Stop, .-CyIMO_Stop
 530              		.section	.text.CyUSB_PowerOnCheck,"ax",%progbits
 531              		.align	2
 532              		.thumb
 533              		.thumb_func
 534              		.type	CyUSB_PowerOnCheck, %function
 535              	CyUSB_PowerOnCheck:
 536              	.LFB6:
 329:Generated_Source\PSoC5/CyLib.c **** 
 330:Generated_Source\PSoC5/CyLib.c **** 
 331:Generated_Source\PSoC5/CyLib.c **** /*******************************************************************************
 332:Generated_Source\PSoC5/CyLib.c **** * Function Name: CyUSB_PowerOnCheck
 333:Generated_Source\PSoC5/CyLib.c **** ****************************************************************************//**
 334:Generated_Source\PSoC5/CyLib.c **** *
 335:Generated_Source\PSoC5/CyLib.c **** *  Returns the USB power status value. A private function to cy_boot.
 336:Generated_Source\PSoC5/CyLib.c **** *
 337:Generated_Source\PSoC5/CyLib.c **** * \return
 338:Generated_Source\PSoC5/CyLib.c **** *   uint8: one if the USB is enabled, 0 if not enabled.
 339:Generated_Source\PSoC5/CyLib.c **** *
 340:Generated_Source\PSoC5/CyLib.c **** *******************************************************************************/
 341:Generated_Source\PSoC5/CyLib.c **** static uint8 CyUSB_PowerOnCheck(void)  
 342:Generated_Source\PSoC5/CyLib.c **** {
 537              		.loc 1 342 0
 538              		.cfi_startproc
 539              		@ args = 0, pretend = 0, frame = 8
 540              		@ frame_needed = 1, uses_anonymous_args = 0
 541              		@ link register save eliminated.
 542 0000 80B4     		push	{r7}
 543              		.cfi_def_cfa_offset 4
 544              		.cfi_offset 7, -4
 545 0002 83B0     		sub	sp, sp, #12
 546              		.cfi_def_cfa_offset 16
 547 0004 00AF     		add	r7, sp, #0
 548              		.cfi_def_cfa_register 7
 343:Generated_Source\PSoC5/CyLib.c ****     uint8 poweredOn = 0u;
 549              		.loc 1 343 0
 550 0006 0023     		movs	r3, #0
 551 0008 FB71     		strb	r3, [r7, #7]
 344:Generated_Source\PSoC5/CyLib.c **** 
 345:Generated_Source\PSoC5/CyLib.c ****     /* Check whether device is in Active or AltActive and if USB is powered on */
 346:Generated_Source\PSoC5/CyLib.c ****     if((((CY_PM_MODE_CSR_REG & CY_PM_MODE_CSR_MASK) == CY_PM_MODE_CSR_ACTIVE ) &&
 552              		.loc 1 346 0
 553 000a 124B     		ldr	r3, .L36
 554 000c 1B78     		ldrb	r3, [r3]
 555 000e DBB2     		uxtb	r3, r3
 556 0010 03F00703 		and	r3, r3, #7
 557 0014 002B     		cmp	r3, #0
 558 0016 06D1     		bne	.L32
 347:Generated_Source\PSoC5/CyLib.c ****        (0u != (CY_LIB_PM_ACT_CFG5_REG & CY_ACT_USB_ENABLED     )))  ||
 559              		.loc 1 347 0 discriminator 1
ARM GAS  C:\Users\ben\AppData\Local\Temp\ccnBLHGm.s 			page 17


 560 0018 0F4B     		ldr	r3, .L36+4
 561 001a 1B78     		ldrb	r3, [r3]
 562 001c DBB2     		uxtb	r3, r3
 563 001e 03F00103 		and	r3, r3, #1
 346:Generated_Source\PSoC5/CyLib.c ****        (0u != (CY_LIB_PM_ACT_CFG5_REG & CY_ACT_USB_ENABLED     )))  ||
 564              		.loc 1 346 0 discriminator 1
 565 0022 002B     		cmp	r3, #0
 566 0024 0DD1     		bne	.L33
 567              	.L32:
 348:Generated_Source\PSoC5/CyLib.c ****        (((CY_PM_MODE_CSR_REG & CY_PM_MODE_CSR_MASK) == CY_PM_MODE_CSR_ALT_ACT) &&
 568              		.loc 1 348 0
 569 0026 0B4B     		ldr	r3, .L36
 570 0028 1B78     		ldrb	r3, [r3]
 571 002a DBB2     		uxtb	r3, r3
 572 002c 03F00703 		and	r3, r3, #7
 347:Generated_Source\PSoC5/CyLib.c ****        (0u != (CY_LIB_PM_ACT_CFG5_REG & CY_ACT_USB_ENABLED     )))  ||
 573              		.loc 1 347 0
 574 0030 012B     		cmp	r3, #1
 575 0032 08D1     		bne	.L34
 349:Generated_Source\PSoC5/CyLib.c ****        (0u != (CY_LIB_PM_STBY_CFG5_REG & CY_ALT_ACT_USB_ENABLED))))
 576              		.loc 1 349 0
 577 0034 094B     		ldr	r3, .L36+8
 578 0036 1B78     		ldrb	r3, [r3]
 579 0038 DBB2     		uxtb	r3, r3
 580 003a 03F00103 		and	r3, r3, #1
 348:Generated_Source\PSoC5/CyLib.c ****        (((CY_PM_MODE_CSR_REG & CY_PM_MODE_CSR_MASK) == CY_PM_MODE_CSR_ALT_ACT) &&
 581              		.loc 1 348 0
 582 003e 002B     		cmp	r3, #0
 583 0040 01D0     		beq	.L34
 584              	.L33:
 350:Generated_Source\PSoC5/CyLib.c ****     {
 351:Generated_Source\PSoC5/CyLib.c ****         poweredOn = 1u;
 585              		.loc 1 351 0
 586 0042 0123     		movs	r3, #1
 587 0044 FB71     		strb	r3, [r7, #7]
 588              	.L34:
 352:Generated_Source\PSoC5/CyLib.c ****     }
 353:Generated_Source\PSoC5/CyLib.c **** 
 354:Generated_Source\PSoC5/CyLib.c ****     return (poweredOn);
 589              		.loc 1 354 0
 590 0046 FB79     		ldrb	r3, [r7, #7]	@ zero_extendqisi2
 355:Generated_Source\PSoC5/CyLib.c **** }
 591              		.loc 1 355 0
 592 0048 1846     		mov	r0, r3
 593 004a 0C37     		adds	r7, r7, #12
 594              		.cfi_def_cfa_offset 4
 595 004c BD46     		mov	sp, r7
 596              		.cfi_def_cfa_register 13
 597              		@ sp needed
 598 004e 5DF8047B 		ldr	r7, [sp], #4
 599              		.cfi_restore 7
 600              		.cfi_def_cfa_offset 0
 601 0052 7047     		bx	lr
 602              	.L37:
 603              		.align	2
 604              	.L36:
 605 0054 93430040 		.word	1073759123
ARM GAS  C:\Users\ben\AppData\Local\Temp\ccnBLHGm.s 			page 18


 606 0058 A5430040 		.word	1073759141
 607 005c B5430040 		.word	1073759157
 608              		.cfi_endproc
 609              	.LFE6:
 610              		.size	CyUSB_PowerOnCheck, .-CyUSB_PowerOnCheck
 611              		.section	.text.CyIMO_SetTrimValue,"ax",%progbits
 612              		.align	2
 613              		.thumb
 614              		.thumb_func
 615              		.type	CyIMO_SetTrimValue, %function
 616              	CyIMO_SetTrimValue:
 617              	.LFB7:
 356:Generated_Source\PSoC5/CyLib.c **** 
 357:Generated_Source\PSoC5/CyLib.c **** 
 358:Generated_Source\PSoC5/CyLib.c **** /*******************************************************************************
 359:Generated_Source\PSoC5/CyLib.c **** * Function Name: CyIMO_SetTrimValue
 360:Generated_Source\PSoC5/CyLib.c **** ****************************************************************************//**
 361:Generated_Source\PSoC5/CyLib.c **** *
 362:Generated_Source\PSoC5/CyLib.c **** *  Sets the IMO factory trim values.
 363:Generated_Source\PSoC5/CyLib.c **** *
 364:Generated_Source\PSoC5/CyLib.c **** *  uint8 freq - frequency for which trims must be set
 365:Generated_Source\PSoC5/CyLib.c **** *
 366:Generated_Source\PSoC5/CyLib.c **** *******************************************************************************/
 367:Generated_Source\PSoC5/CyLib.c **** static void CyIMO_SetTrimValue(uint8 freq) 
 368:Generated_Source\PSoC5/CyLib.c **** {
 618              		.loc 1 368 0
 619              		.cfi_startproc
 620              		@ args = 0, pretend = 0, frame = 16
 621              		@ frame_needed = 1, uses_anonymous_args = 0
 622 0000 80B5     		push	{r7, lr}
 623              		.cfi_def_cfa_offset 8
 624              		.cfi_offset 7, -8
 625              		.cfi_offset 14, -4
 626 0002 84B0     		sub	sp, sp, #16
 627              		.cfi_def_cfa_offset 24
 628 0004 00AF     		add	r7, sp, #0
 629              		.cfi_def_cfa_register 7
 630 0006 0346     		mov	r3, r0
 631 0008 FB71     		strb	r3, [r7, #7]
 369:Generated_Source\PSoC5/CyLib.c ****     uint8 usbPowerOn = CyUSB_PowerOnCheck();
 632              		.loc 1 369 0
 633 000a FFF7FEFF 		bl	CyUSB_PowerOnCheck
 634 000e 0346     		mov	r3, r0
 635 0010 FB73     		strb	r3, [r7, #15]
 370:Generated_Source\PSoC5/CyLib.c **** 
 371:Generated_Source\PSoC5/CyLib.c ****     /* If USB is powered */
 372:Generated_Source\PSoC5/CyLib.c ****     if(usbPowerOn == 1u)
 636              		.loc 1 372 0
 637 0012 FB7B     		ldrb	r3, [r7, #15]	@ zero_extendqisi2
 638 0014 012B     		cmp	r3, #1
 639 0016 07D1     		bne	.L39
 373:Generated_Source\PSoC5/CyLib.c ****     {
 374:Generated_Source\PSoC5/CyLib.c ****         /* Unlock USB write */
 375:Generated_Source\PSoC5/CyLib.c ****         CY_LIB_USB_CR1_REG &= ((uint8)(~CY_LIB_USB_CLK_EN));
 640              		.loc 1 375 0
 641 0018 2F4A     		ldr	r2, .L53
 642 001a 2F4B     		ldr	r3, .L53
ARM GAS  C:\Users\ben\AppData\Local\Temp\ccnBLHGm.s 			page 19


 643 001c 1B78     		ldrb	r3, [r3]
 644 001e DBB2     		uxtb	r3, r3
 645 0020 23F00203 		bic	r3, r3, #2
 646 0024 DBB2     		uxtb	r3, r3
 647 0026 1370     		strb	r3, [r2]
 648              	.L39:
 376:Generated_Source\PSoC5/CyLib.c ****     }
 377:Generated_Source\PSoC5/CyLib.c ****     switch(freq)
 649              		.loc 1 377 0
 650 0028 FB79     		ldrb	r3, [r7, #7]	@ zero_extendqisi2
 651 002a 082B     		cmp	r3, #8
 652 002c 50D8     		bhi	.L52
 653 002e 01A2     		adr	r2, .L42
 654 0030 52F823F0 		ldr	pc, [r2, r3, lsl #2]
 655              		.p2align 2
 656              	.L42:
 657 0034 59000000 		.word	.L41+1
 658 0038 65000000 		.word	.L43+1
 659 003c 71000000 		.word	.L44+1
 660 0040 7D000000 		.word	.L45+1
 661 0044 89000000 		.word	.L46+1
 662 0048 95000000 		.word	.L47+1
 663 004c A1000000 		.word	.L48+1
 664 0050 D1000000 		.word	.L52+1
 665 0054 AD000000 		.word	.L49+1
 666              		.p2align 1
 667              	.L41:
 378:Generated_Source\PSoC5/CyLib.c ****     {
 379:Generated_Source\PSoC5/CyLib.c ****     case CY_IMO_FREQ_3MHZ:
 380:Generated_Source\PSoC5/CyLib.c ****         CY_LIB_IMO_TR1_REG = CY_GET_XTND_REG8(CY_LIB_TRIM_IMO_3MHZ_PTR);
 668              		.loc 1 380 0
 669 0058 204B     		ldr	r3, .L53+4
 670 005a 214A     		ldr	r2, .L53+8
 671 005c 1278     		ldrb	r2, [r2]
 672 005e D2B2     		uxtb	r2, r2
 673 0060 1A70     		strb	r2, [r3]
 381:Generated_Source\PSoC5/CyLib.c ****         break;
 674              		.loc 1 381 0
 675 0062 36E0     		b	.L38
 676              	.L43:
 382:Generated_Source\PSoC5/CyLib.c **** 
 383:Generated_Source\PSoC5/CyLib.c ****     case CY_IMO_FREQ_6MHZ:
 384:Generated_Source\PSoC5/CyLib.c ****         CY_LIB_IMO_TR1_REG = CY_GET_XTND_REG8(CY_LIB_TRIM_IMO_6MHZ_PTR);
 677              		.loc 1 384 0
 678 0064 1D4B     		ldr	r3, .L53+4
 679 0066 1F4A     		ldr	r2, .L53+12
 680 0068 1278     		ldrb	r2, [r2]
 681 006a D2B2     		uxtb	r2, r2
 682 006c 1A70     		strb	r2, [r3]
 385:Generated_Source\PSoC5/CyLib.c ****         break;
 683              		.loc 1 385 0
 684 006e 30E0     		b	.L38
 685              	.L44:
 386:Generated_Source\PSoC5/CyLib.c **** 
 387:Generated_Source\PSoC5/CyLib.c ****     case CY_IMO_FREQ_12MHZ:
 388:Generated_Source\PSoC5/CyLib.c ****         CY_LIB_IMO_TR1_REG = CY_GET_XTND_REG8(CY_LIB_TRIM_IMO_12MHZ_PTR);
 686              		.loc 1 388 0
ARM GAS  C:\Users\ben\AppData\Local\Temp\ccnBLHGm.s 			page 20


 687 0070 1A4B     		ldr	r3, .L53+4
 688 0072 1D4A     		ldr	r2, .L53+16
 689 0074 1278     		ldrb	r2, [r2]
 690 0076 D2B2     		uxtb	r2, r2
 691 0078 1A70     		strb	r2, [r3]
 389:Generated_Source\PSoC5/CyLib.c ****         break;
 692              		.loc 1 389 0
 693 007a 2AE0     		b	.L38
 694              	.L45:
 390:Generated_Source\PSoC5/CyLib.c **** 
 391:Generated_Source\PSoC5/CyLib.c ****     case CY_IMO_FREQ_24MHZ:
 392:Generated_Source\PSoC5/CyLib.c ****         CY_LIB_IMO_TR1_REG = CY_GET_XTND_REG8(CY_LIB_TRIM_IMO_24MHZ_PTR);
 695              		.loc 1 392 0
 696 007c 174B     		ldr	r3, .L53+4
 697 007e 1B4A     		ldr	r2, .L53+20
 698 0080 1278     		ldrb	r2, [r2]
 699 0082 D2B2     		uxtb	r2, r2
 700 0084 1A70     		strb	r2, [r3]
 393:Generated_Source\PSoC5/CyLib.c ****         break;
 701              		.loc 1 393 0
 702 0086 24E0     		b	.L38
 703              	.L46:
 394:Generated_Source\PSoC5/CyLib.c **** 
 395:Generated_Source\PSoC5/CyLib.c ****     case CY_IMO_FREQ_48MHZ:
 396:Generated_Source\PSoC5/CyLib.c ****         CY_LIB_IMO_TR1_REG = CY_GET_XTND_REG8(CY_LIB_TRIM_IMO_TR1_PTR);
 704              		.loc 1 396 0
 705 0088 144B     		ldr	r3, .L53+4
 706 008a 194A     		ldr	r2, .L53+24
 707 008c 1278     		ldrb	r2, [r2]
 708 008e D2B2     		uxtb	r2, r2
 709 0090 1A70     		strb	r2, [r3]
 397:Generated_Source\PSoC5/CyLib.c ****         break;
 710              		.loc 1 397 0
 711 0092 1EE0     		b	.L38
 712              	.L47:
 398:Generated_Source\PSoC5/CyLib.c **** 
 399:Generated_Source\PSoC5/CyLib.c ****     case CY_IMO_FREQ_62MHZ:
 400:Generated_Source\PSoC5/CyLib.c ****         CY_LIB_IMO_TR1_REG = CY_GET_XTND_REG8(CY_LIB_TRIM_IMO_67MHZ_PTR);
 713              		.loc 1 400 0
 714 0094 114B     		ldr	r3, .L53+4
 715 0096 174A     		ldr	r2, .L53+28
 716 0098 1278     		ldrb	r2, [r2]
 717 009a D2B2     		uxtb	r2, r2
 718 009c 1A70     		strb	r2, [r3]
 401:Generated_Source\PSoC5/CyLib.c ****         break;
 719              		.loc 1 401 0
 720 009e 18E0     		b	.L38
 721              	.L48:
 402:Generated_Source\PSoC5/CyLib.c **** 
 403:Generated_Source\PSoC5/CyLib.c **** #if(CY_PSOC5)
 404:Generated_Source\PSoC5/CyLib.c ****     case CY_IMO_FREQ_74MHZ:
 405:Generated_Source\PSoC5/CyLib.c ****         CY_LIB_IMO_TR1_REG = CY_GET_XTND_REG8(CY_LIB_TRIM_IMO_80MHZ_PTR);
 722              		.loc 1 405 0
 723 00a0 0E4B     		ldr	r3, .L53+4
 724 00a2 154A     		ldr	r2, .L53+32
 725 00a4 1278     		ldrb	r2, [r2]
 726 00a6 D2B2     		uxtb	r2, r2
ARM GAS  C:\Users\ben\AppData\Local\Temp\ccnBLHGm.s 			page 21


 727 00a8 1A70     		strb	r2, [r3]
 406:Generated_Source\PSoC5/CyLib.c ****         break;
 728              		.loc 1 406 0
 729 00aa 12E0     		b	.L38
 730              	.L49:
 407:Generated_Source\PSoC5/CyLib.c **** #endif  /* (CY_PSOC5) */
 408:Generated_Source\PSoC5/CyLib.c **** 
 409:Generated_Source\PSoC5/CyLib.c ****     case CY_IMO_FREQ_USB:
 410:Generated_Source\PSoC5/CyLib.c ****         CY_LIB_IMO_TR1_REG = CY_GET_XTND_REG8(CY_LIB_TRIM_IMO_USB_PTR);
 731              		.loc 1 410 0
 732 00ac 0B4B     		ldr	r3, .L53+4
 733 00ae 134A     		ldr	r2, .L53+36
 734 00b0 1278     		ldrb	r2, [r2]
 735 00b2 D2B2     		uxtb	r2, r2
 736 00b4 1A70     		strb	r2, [r3]
 411:Generated_Source\PSoC5/CyLib.c **** 
 412:Generated_Source\PSoC5/CyLib.c ****         /* If USB is powered */
 413:Generated_Source\PSoC5/CyLib.c ****         if(usbPowerOn == 1u)
 737              		.loc 1 413 0
 738 00b6 FB7B     		ldrb	r3, [r7, #15]	@ zero_extendqisi2
 739 00b8 012B     		cmp	r3, #1
 740 00ba 08D1     		bne	.L51
 414:Generated_Source\PSoC5/CyLib.c ****         {
 415:Generated_Source\PSoC5/CyLib.c ****             /* Lock USB Oscillator */
 416:Generated_Source\PSoC5/CyLib.c ****             CY_LIB_USB_CR1_REG |= CY_LIB_USB_CLK_EN;
 741              		.loc 1 416 0
 742 00bc 064A     		ldr	r2, .L53
 743 00be 064B     		ldr	r3, .L53
 744 00c0 1B78     		ldrb	r3, [r3]
 745 00c2 DBB2     		uxtb	r3, r3
 746 00c4 43F00203 		orr	r3, r3, #2
 747 00c8 DBB2     		uxtb	r3, r3
 748 00ca 1370     		strb	r3, [r2]
 417:Generated_Source\PSoC5/CyLib.c ****         }
 418:Generated_Source\PSoC5/CyLib.c ****         break;
 749              		.loc 1 418 0
 750 00cc 01E0     		b	.L38
 751              	.L51:
 752 00ce 00E0     		b	.L38
 753              	.L52:
 419:Generated_Source\PSoC5/CyLib.c **** 
 420:Generated_Source\PSoC5/CyLib.c ****     default:
 421:Generated_Source\PSoC5/CyLib.c ****             CYASSERT(0u != 0u);
 422:Generated_Source\PSoC5/CyLib.c ****         break;
 754              		.loc 1 422 0
 755 00d0 00BF     		nop
 756              	.L38:
 423:Generated_Source\PSoC5/CyLib.c ****     }
 424:Generated_Source\PSoC5/CyLib.c **** 
 425:Generated_Source\PSoC5/CyLib.c **** }
 757              		.loc 1 425 0
 758 00d2 1037     		adds	r7, r7, #16
 759              		.cfi_def_cfa_offset 8
 760 00d4 BD46     		mov	sp, r7
 761              		.cfi_def_cfa_register 13
 762              		@ sp needed
 763 00d6 80BD     		pop	{r7, pc}
ARM GAS  C:\Users\ben\AppData\Local\Temp\ccnBLHGm.s 			page 22


 764              	.L54:
 765              		.align	2
 766              	.L53:
 767 00d8 09600040 		.word	1073766409
 768 00dc A1460040 		.word	1073759905
 769 00e0 08010049 		.word	1224737032
 770 00e4 09010049 		.word	1224737033
 771 00e8 0A010049 		.word	1224737034
 772 00ec 0B010049 		.word	1224737035
 773 00f0 89010049 		.word	1224737161
 774 00f4 0C010049 		.word	1224737036
 775 00f8 0D010049 		.word	1224737037
 776 00fc 0F010049 		.word	1224737039
 777              		.cfi_endproc
 778              	.LFE7:
 779              		.size	CyIMO_SetTrimValue, .-CyIMO_SetTrimValue
 780              		.section	.text.CyIMO_SetFreq,"ax",%progbits
 781              		.align	2
 782              		.global	CyIMO_SetFreq
 783              		.thumb
 784              		.thumb_func
 785              		.type	CyIMO_SetFreq, %function
 786              	CyIMO_SetFreq:
 787              	.LFB8:
 426:Generated_Source\PSoC5/CyLib.c **** 
 427:Generated_Source\PSoC5/CyLib.c **** 
 428:Generated_Source\PSoC5/CyLib.c **** /*******************************************************************************
 429:Generated_Source\PSoC5/CyLib.c **** * Function Name: CyIMO_SetFreq
 430:Generated_Source\PSoC5/CyLib.c **** ****************************************************************************//**
 431:Generated_Source\PSoC5/CyLib.c **** *
 432:Generated_Source\PSoC5/CyLib.c **** *  Sets the frequency of the IMO. Changes may be made while the IMO is running.
 433:Generated_Source\PSoC5/CyLib.c **** *
 434:Generated_Source\PSoC5/CyLib.c **** *  \param freq: Frequency of IMO operation
 435:Generated_Source\PSoC5/CyLib.c **** *       CY_IMO_FREQ_3MHZ  to set  3   MHz
 436:Generated_Source\PSoC5/CyLib.c **** *       CY_IMO_FREQ_6MHZ  to set  6   MHz
 437:Generated_Source\PSoC5/CyLib.c **** *       CY_IMO_FREQ_12MHZ to set 12   MHz
 438:Generated_Source\PSoC5/CyLib.c **** *       CY_IMO_FREQ_24MHZ to set 24   MHz
 439:Generated_Source\PSoC5/CyLib.c **** *       CY_IMO_FREQ_48MHZ to set 48   MHz
 440:Generated_Source\PSoC5/CyLib.c **** *       CY_IMO_FREQ_62MHZ to set 62.6 MHz
 441:Generated_Source\PSoC5/CyLib.c **** *       CY_IMO_FREQ_74MHZ to set 74.7 MHz (not applicable for PSoC 3)
 442:Generated_Source\PSoC5/CyLib.c **** *       CY_IMO_FREQ_USB   to set 24   MHz (Trimmed for USB operation)
 443:Generated_Source\PSoC5/CyLib.c **** *
 444:Generated_Source\PSoC5/CyLib.c **** * \sideeffect
 445:Generated_Source\PSoC5/CyLib.c **** *  If this function execution results in the CPU clock frequency increasing,
 446:Generated_Source\PSoC5/CyLib.c **** *  then the number of clock cycles the cache will wait before it samples data
 447:Generated_Source\PSoC5/CyLib.c **** *  coming back from the Flash must be adjusted by calling
 448:Generated_Source\PSoC5/CyLib.c **** *  CyFlash_SetWaitCycles() with an appropriate parameter. It can be optionally
 449:Generated_Source\PSoC5/CyLib.c **** *  called if the CPU clock frequency is lowered in order to improve the CPU
 450:Generated_Source\PSoC5/CyLib.c **** *  performance. See CyFlash_SetWaitCycles() description for more information.
 451:Generated_Source\PSoC5/CyLib.c **** *
 452:Generated_Source\PSoC5/CyLib.c **** *  When the USB setting is chosen, the USB clock locking circuit is enabled.
 453:Generated_Source\PSoC5/CyLib.c **** *  Otherwise this circuit is disabled. The USB block must be powered before
 454:Generated_Source\PSoC5/CyLib.c **** *  selecting the USB setting.
 455:Generated_Source\PSoC5/CyLib.c **** *
 456:Generated_Source\PSoC5/CyLib.c **** *******************************************************************************/
 457:Generated_Source\PSoC5/CyLib.c **** void CyIMO_SetFreq(uint8 freq) 
 458:Generated_Source\PSoC5/CyLib.c **** {
ARM GAS  C:\Users\ben\AppData\Local\Temp\ccnBLHGm.s 			page 23


 788              		.loc 1 458 0
 789              		.cfi_startproc
 790              		@ args = 0, pretend = 0, frame = 16
 791              		@ frame_needed = 1, uses_anonymous_args = 0
 792 0000 80B5     		push	{r7, lr}
 793              		.cfi_def_cfa_offset 8
 794              		.cfi_offset 7, -8
 795              		.cfi_offset 14, -4
 796 0002 84B0     		sub	sp, sp, #16
 797              		.cfi_def_cfa_offset 24
 798 0004 00AF     		add	r7, sp, #0
 799              		.cfi_def_cfa_register 7
 800 0006 0346     		mov	r3, r0
 801 0008 FB71     		strb	r3, [r7, #7]
 459:Generated_Source\PSoC5/CyLib.c ****     uint8 currentFreq;
 460:Generated_Source\PSoC5/CyLib.c ****     uint8 nextFreq;
 461:Generated_Source\PSoC5/CyLib.c **** 
 462:Generated_Source\PSoC5/CyLib.c ****     /***************************************************************************
 463:Generated_Source\PSoC5/CyLib.c ****     * If the IMO frequency is changed,the Trim values must also be set
 464:Generated_Source\PSoC5/CyLib.c ****     * accordingly.This requires reading the current frequency. If the new
 465:Generated_Source\PSoC5/CyLib.c ****     * frequency is faster, then set a new trim and then change the frequency,
 466:Generated_Source\PSoC5/CyLib.c ****     * otherwise change the frequency and then set new trim values.
 467:Generated_Source\PSoC5/CyLib.c ****     ***************************************************************************/
 468:Generated_Source\PSoC5/CyLib.c **** 
 469:Generated_Source\PSoC5/CyLib.c ****     currentFreq = CY_LIB_FASTCLK_IMO_CR_REG & ((uint8)(~CY_LIB_FASTCLK_IMO_CR_RANGE_MASK));
 802              		.loc 1 469 0
 803 000a 644B     		ldr	r3, .L85
 804 000c 1B78     		ldrb	r3, [r3]
 805 000e DBB2     		uxtb	r3, r3
 806 0010 03F00703 		and	r3, r3, #7
 807 0014 FB73     		strb	r3, [r7, #15]
 470:Generated_Source\PSoC5/CyLib.c **** 
 471:Generated_Source\PSoC5/CyLib.c ****     /* Check if requested frequency is USB. */
 472:Generated_Source\PSoC5/CyLib.c ****     nextFreq = (freq == CY_IMO_FREQ_USB) ? CY_IMO_FREQ_24MHZ : freq;
 808              		.loc 1 472 0
 809 0016 FB79     		ldrb	r3, [r7, #7]	@ zero_extendqisi2
 810 0018 082B     		cmp	r3, #8
 811 001a 01D0     		beq	.L56
 812              		.loc 1 472 0 is_stmt 0 discriminator 1
 813 001c FB79     		ldrb	r3, [r7, #7]	@ zero_extendqisi2
 814 001e 00E0     		b	.L57
 815              	.L56:
 816              		.loc 1 472 0 discriminator 2
 817 0020 0323     		movs	r3, #3
 818              	.L57:
 819              		.loc 1 472 0 discriminator 4
 820 0022 BB73     		strb	r3, [r7, #14]
 473:Generated_Source\PSoC5/CyLib.c **** 
 474:Generated_Source\PSoC5/CyLib.c ****     switch (currentFreq)
 821              		.loc 1 474 0 is_stmt 1 discriminator 4
 822 0024 FB7B     		ldrb	r3, [r7, #15]	@ zero_extendqisi2
 823 0026 062B     		cmp	r3, #6
 824 0028 25D8     		bhi	.L83
 825 002a 01A2     		adr	r2, .L60
 826 002c 52F823F0 		ldr	pc, [r2, r3, lsl #2]
 827              		.p2align 2
 828              	.L60:
ARM GAS  C:\Users\ben\AppData\Local\Temp\ccnBLHGm.s 			page 24


 829 0030 4D000000 		.word	.L59+1
 830 0034 53000000 		.word	.L61+1
 831 0038 59000000 		.word	.L62+1
 832 003c 5F000000 		.word	.L63+1
 833 0040 65000000 		.word	.L64+1
 834 0044 6B000000 		.word	.L65+1
 835 0048 71000000 		.word	.L66+1
 836              		.p2align 1
 837              	.L59:
 475:Generated_Source\PSoC5/CyLib.c ****     {
 476:Generated_Source\PSoC5/CyLib.c ****     case 0u:
 477:Generated_Source\PSoC5/CyLib.c ****         currentFreq = CY_IMO_FREQ_12MHZ;
 838              		.loc 1 477 0
 839 004c 0223     		movs	r3, #2
 840 004e FB73     		strb	r3, [r7, #15]
 478:Generated_Source\PSoC5/CyLib.c ****         break;
 841              		.loc 1 478 0
 842 0050 12E0     		b	.L67
 843              	.L61:
 479:Generated_Source\PSoC5/CyLib.c **** 
 480:Generated_Source\PSoC5/CyLib.c ****     case 1u:
 481:Generated_Source\PSoC5/CyLib.c ****         currentFreq = CY_IMO_FREQ_6MHZ;
 844              		.loc 1 481 0
 845 0052 0123     		movs	r3, #1
 846 0054 FB73     		strb	r3, [r7, #15]
 482:Generated_Source\PSoC5/CyLib.c ****         break;
 847              		.loc 1 482 0
 848 0056 0FE0     		b	.L67
 849              	.L62:
 483:Generated_Source\PSoC5/CyLib.c **** 
 484:Generated_Source\PSoC5/CyLib.c ****     case 2u:
 485:Generated_Source\PSoC5/CyLib.c ****         currentFreq = CY_IMO_FREQ_24MHZ;
 850              		.loc 1 485 0
 851 0058 0323     		movs	r3, #3
 852 005a FB73     		strb	r3, [r7, #15]
 486:Generated_Source\PSoC5/CyLib.c ****         break;
 853              		.loc 1 486 0
 854 005c 0CE0     		b	.L67
 855              	.L63:
 487:Generated_Source\PSoC5/CyLib.c **** 
 488:Generated_Source\PSoC5/CyLib.c ****     case 3u:
 489:Generated_Source\PSoC5/CyLib.c ****         currentFreq = CY_IMO_FREQ_3MHZ;
 856              		.loc 1 489 0
 857 005e 0023     		movs	r3, #0
 858 0060 FB73     		strb	r3, [r7, #15]
 490:Generated_Source\PSoC5/CyLib.c ****         break;
 859              		.loc 1 490 0
 860 0062 09E0     		b	.L67
 861              	.L64:
 491:Generated_Source\PSoC5/CyLib.c **** 
 492:Generated_Source\PSoC5/CyLib.c ****     case 4u:
 493:Generated_Source\PSoC5/CyLib.c ****         currentFreq = CY_IMO_FREQ_48MHZ;
 862              		.loc 1 493 0
 863 0064 0423     		movs	r3, #4
 864 0066 FB73     		strb	r3, [r7, #15]
 494:Generated_Source\PSoC5/CyLib.c ****         break;
 865              		.loc 1 494 0
ARM GAS  C:\Users\ben\AppData\Local\Temp\ccnBLHGm.s 			page 25


 866 0068 06E0     		b	.L67
 867              	.L65:
 495:Generated_Source\PSoC5/CyLib.c **** 
 496:Generated_Source\PSoC5/CyLib.c ****     case 5u:
 497:Generated_Source\PSoC5/CyLib.c ****         currentFreq = CY_IMO_FREQ_62MHZ;
 868              		.loc 1 497 0
 869 006a 0523     		movs	r3, #5
 870 006c FB73     		strb	r3, [r7, #15]
 498:Generated_Source\PSoC5/CyLib.c ****         break;
 871              		.loc 1 498 0
 872 006e 03E0     		b	.L67
 873              	.L66:
 499:Generated_Source\PSoC5/CyLib.c **** 
 500:Generated_Source\PSoC5/CyLib.c **** #if(CY_PSOC5)
 501:Generated_Source\PSoC5/CyLib.c ****     case 6u:
 502:Generated_Source\PSoC5/CyLib.c ****         currentFreq = CY_IMO_FREQ_74MHZ;
 874              		.loc 1 502 0
 875 0070 0623     		movs	r3, #6
 876 0072 FB73     		strb	r3, [r7, #15]
 503:Generated_Source\PSoC5/CyLib.c ****         break;
 877              		.loc 1 503 0
 878 0074 00E0     		b	.L67
 879              	.L83:
 504:Generated_Source\PSoC5/CyLib.c **** #endif  /* (CY_PSOC5) */
 505:Generated_Source\PSoC5/CyLib.c **** 
 506:Generated_Source\PSoC5/CyLib.c ****     default:
 507:Generated_Source\PSoC5/CyLib.c ****         CYASSERT(0u != 0u);
 508:Generated_Source\PSoC5/CyLib.c ****         break;
 880              		.loc 1 508 0
 881 0076 00BF     		nop
 882              	.L67:
 509:Generated_Source\PSoC5/CyLib.c ****     }
 510:Generated_Source\PSoC5/CyLib.c **** 
 511:Generated_Source\PSoC5/CyLib.c ****     if (nextFreq >= currentFreq)
 883              		.loc 1 511 0
 884 0078 BA7B     		ldrb	r2, [r7, #14]	@ zero_extendqisi2
 885 007a FB7B     		ldrb	r3, [r7, #15]	@ zero_extendqisi2
 886 007c 9A42     		cmp	r2, r3
 887 007e 03D3     		bcc	.L68
 512:Generated_Source\PSoC5/CyLib.c ****     {
 513:Generated_Source\PSoC5/CyLib.c ****         /* Set new trim first */
 514:Generated_Source\PSoC5/CyLib.c ****         CyIMO_SetTrimValue(freq);
 888              		.loc 1 514 0
 889 0080 FB79     		ldrb	r3, [r7, #7]	@ zero_extendqisi2
 890 0082 1846     		mov	r0, r3
 891 0084 FFF7FEFF 		bl	CyIMO_SetTrimValue
 892              	.L68:
 515:Generated_Source\PSoC5/CyLib.c ****     }
 516:Generated_Source\PSoC5/CyLib.c **** 
 517:Generated_Source\PSoC5/CyLib.c ****     /* Set usbclk_on bit when using CY_IMO_FREQ_USB, if not clear it */
 518:Generated_Source\PSoC5/CyLib.c ****     switch(freq)
 893              		.loc 1 518 0
 894 0088 FB79     		ldrb	r3, [r7, #7]	@ zero_extendqisi2
 895 008a 082B     		cmp	r3, #8
 896 008c 71D8     		bhi	.L84
 897 008e 01A2     		adr	r2, .L71
 898 0090 52F823F0 		ldr	pc, [r2, r3, lsl #2]
ARM GAS  C:\Users\ben\AppData\Local\Temp\ccnBLHGm.s 			page 26


 899              		.p2align 2
 900              	.L71:
 901 0094 B9000000 		.word	.L70+1
 902 0098 D1000000 		.word	.L72+1
 903 009c E9000000 		.word	.L73+1
 904 00a0 FB000000 		.word	.L74+1
 905 00a4 13010000 		.word	.L75+1
 906 00a8 2B010000 		.word	.L76+1
 907 00ac 43010000 		.word	.L77+1
 908 00b0 73010000 		.word	.L84+1
 909 00b4 5B010000 		.word	.L78+1
 910              		.p2align 1
 911              	.L70:
 519:Generated_Source\PSoC5/CyLib.c ****     {
 520:Generated_Source\PSoC5/CyLib.c ****     case CY_IMO_FREQ_3MHZ:
 521:Generated_Source\PSoC5/CyLib.c ****         CY_LIB_FASTCLK_IMO_CR_REG = ((CY_LIB_FASTCLK_IMO_CR_REG & CY_LIB_FASTCLK_IMO_CR_RANGE_MASK)
 912              		.loc 1 521 0
 913 00b8 384A     		ldr	r2, .L85
 914 00ba 384B     		ldr	r3, .L85
 915 00bc 1B78     		ldrb	r3, [r3]
 916 00be DBB2     		uxtb	r3, r3
 917 00c0 23F04703 		bic	r3, r3, #71
 918 00c4 DBB2     		uxtb	r3, r3
 919 00c6 43F00303 		orr	r3, r3, #3
 920 00ca DBB2     		uxtb	r3, r3
 921 00cc 1370     		strb	r3, [r2]
 522:Generated_Source\PSoC5/CyLib.c ****             CY_LIB_IMO_3MHZ_VALUE) & ((uint8)(~CY_LIB_IMO_USBCLK_ON_SET));
 523:Generated_Source\PSoC5/CyLib.c ****         break;
 922              		.loc 1 523 0
 923 00ce 51E0     		b	.L79
 924              	.L72:
 524:Generated_Source\PSoC5/CyLib.c **** 
 525:Generated_Source\PSoC5/CyLib.c ****     case CY_IMO_FREQ_6MHZ:
 526:Generated_Source\PSoC5/CyLib.c ****         CY_LIB_FASTCLK_IMO_CR_REG = ((CY_LIB_FASTCLK_IMO_CR_REG & CY_LIB_FASTCLK_IMO_CR_RANGE_MASK)
 925              		.loc 1 526 0
 926 00d0 324A     		ldr	r2, .L85
 927 00d2 324B     		ldr	r3, .L85
 928 00d4 1B78     		ldrb	r3, [r3]
 929 00d6 DBB2     		uxtb	r3, r3
 930 00d8 23F04703 		bic	r3, r3, #71
 931 00dc DBB2     		uxtb	r3, r3
 932 00de 43F00103 		orr	r3, r3, #1
 933 00e2 DBB2     		uxtb	r3, r3
 934 00e4 1370     		strb	r3, [r2]
 527:Generated_Source\PSoC5/CyLib.c ****             CY_LIB_IMO_6MHZ_VALUE) & ((uint8)(~CY_LIB_IMO_USBCLK_ON_SET));
 528:Generated_Source\PSoC5/CyLib.c ****         break;
 935              		.loc 1 528 0
 936 00e6 45E0     		b	.L79
 937              	.L73:
 529:Generated_Source\PSoC5/CyLib.c **** 
 530:Generated_Source\PSoC5/CyLib.c ****     case CY_IMO_FREQ_12MHZ:
 531:Generated_Source\PSoC5/CyLib.c ****         CY_LIB_FASTCLK_IMO_CR_REG = ((CY_LIB_FASTCLK_IMO_CR_REG & CY_LIB_FASTCLK_IMO_CR_RANGE_MASK)
 938              		.loc 1 531 0
 939 00e8 2C4A     		ldr	r2, .L85
 940 00ea 2C4B     		ldr	r3, .L85
 941 00ec 1B78     		ldrb	r3, [r3]
 942 00ee DBB2     		uxtb	r3, r3
ARM GAS  C:\Users\ben\AppData\Local\Temp\ccnBLHGm.s 			page 27


 943 00f0 23F04703 		bic	r3, r3, #71
 944 00f4 DBB2     		uxtb	r3, r3
 945 00f6 1370     		strb	r3, [r2]
 532:Generated_Source\PSoC5/CyLib.c ****             CY_LIB_IMO_12MHZ_VALUE) & ((uint8)(~CY_LIB_IMO_USBCLK_ON_SET));
 533:Generated_Source\PSoC5/CyLib.c ****         break;
 946              		.loc 1 533 0
 947 00f8 3CE0     		b	.L79
 948              	.L74:
 534:Generated_Source\PSoC5/CyLib.c **** 
 535:Generated_Source\PSoC5/CyLib.c ****     case CY_IMO_FREQ_24MHZ:
 536:Generated_Source\PSoC5/CyLib.c ****         CY_LIB_FASTCLK_IMO_CR_REG = ((CY_LIB_FASTCLK_IMO_CR_REG & CY_LIB_FASTCLK_IMO_CR_RANGE_MASK)
 949              		.loc 1 536 0
 950 00fa 284A     		ldr	r2, .L85
 951 00fc 274B     		ldr	r3, .L85
 952 00fe 1B78     		ldrb	r3, [r3]
 953 0100 DBB2     		uxtb	r3, r3
 954 0102 23F04703 		bic	r3, r3, #71
 955 0106 DBB2     		uxtb	r3, r3
 956 0108 43F00203 		orr	r3, r3, #2
 957 010c DBB2     		uxtb	r3, r3
 958 010e 1370     		strb	r3, [r2]
 537:Generated_Source\PSoC5/CyLib.c ****             CY_LIB_IMO_24MHZ_VALUE) & ((uint8)(~CY_LIB_IMO_USBCLK_ON_SET));
 538:Generated_Source\PSoC5/CyLib.c ****         break;
 959              		.loc 1 538 0
 960 0110 30E0     		b	.L79
 961              	.L75:
 539:Generated_Source\PSoC5/CyLib.c **** 
 540:Generated_Source\PSoC5/CyLib.c ****     case CY_IMO_FREQ_48MHZ:
 541:Generated_Source\PSoC5/CyLib.c ****         CY_LIB_FASTCLK_IMO_CR_REG = ((CY_LIB_FASTCLK_IMO_CR_REG & CY_LIB_FASTCLK_IMO_CR_RANGE_MASK)
 962              		.loc 1 541 0
 963 0112 224A     		ldr	r2, .L85
 964 0114 214B     		ldr	r3, .L85
 965 0116 1B78     		ldrb	r3, [r3]
 966 0118 DBB2     		uxtb	r3, r3
 967 011a 23F04703 		bic	r3, r3, #71
 968 011e DBB2     		uxtb	r3, r3
 969 0120 43F00403 		orr	r3, r3, #4
 970 0124 DBB2     		uxtb	r3, r3
 971 0126 1370     		strb	r3, [r2]
 542:Generated_Source\PSoC5/CyLib.c ****             CY_LIB_IMO_48MHZ_VALUE) & ((uint8)(~CY_LIB_IMO_USBCLK_ON_SET));
 543:Generated_Source\PSoC5/CyLib.c ****         break;
 972              		.loc 1 543 0
 973 0128 24E0     		b	.L79
 974              	.L76:
 544:Generated_Source\PSoC5/CyLib.c **** 
 545:Generated_Source\PSoC5/CyLib.c ****     case CY_IMO_FREQ_62MHZ:
 546:Generated_Source\PSoC5/CyLib.c ****         CY_LIB_FASTCLK_IMO_CR_REG = ((CY_LIB_FASTCLK_IMO_CR_REG & CY_LIB_FASTCLK_IMO_CR_RANGE_MASK)
 975              		.loc 1 546 0
 976 012a 1C4A     		ldr	r2, .L85
 977 012c 1B4B     		ldr	r3, .L85
 978 012e 1B78     		ldrb	r3, [r3]
 979 0130 DBB2     		uxtb	r3, r3
 980 0132 23F04703 		bic	r3, r3, #71
 981 0136 DBB2     		uxtb	r3, r3
 982 0138 43F00503 		orr	r3, r3, #5
 983 013c DBB2     		uxtb	r3, r3
 984 013e 1370     		strb	r3, [r2]
ARM GAS  C:\Users\ben\AppData\Local\Temp\ccnBLHGm.s 			page 28


 547:Generated_Source\PSoC5/CyLib.c ****             CY_LIB_IMO_62MHZ_VALUE) & ((uint8)(~CY_LIB_IMO_USBCLK_ON_SET));
 548:Generated_Source\PSoC5/CyLib.c ****         break;
 985              		.loc 1 548 0
 986 0140 18E0     		b	.L79
 987              	.L77:
 549:Generated_Source\PSoC5/CyLib.c **** 
 550:Generated_Source\PSoC5/CyLib.c **** #if(CY_PSOC5)
 551:Generated_Source\PSoC5/CyLib.c ****     case CY_IMO_FREQ_74MHZ:
 552:Generated_Source\PSoC5/CyLib.c ****         CY_LIB_FASTCLK_IMO_CR_REG = ((CY_LIB_FASTCLK_IMO_CR_REG & CY_LIB_FASTCLK_IMO_CR_RANGE_MASK)
 988              		.loc 1 552 0
 989 0142 164A     		ldr	r2, .L85
 990 0144 154B     		ldr	r3, .L85
 991 0146 1B78     		ldrb	r3, [r3]
 992 0148 DBB2     		uxtb	r3, r3
 993 014a 23F04703 		bic	r3, r3, #71
 994 014e DBB2     		uxtb	r3, r3
 995 0150 43F00603 		orr	r3, r3, #6
 996 0154 DBB2     		uxtb	r3, r3
 997 0156 1370     		strb	r3, [r2]
 553:Generated_Source\PSoC5/CyLib.c ****             CY_LIB_IMO_74MHZ_VALUE) & ((uint8)(~CY_LIB_IMO_USBCLK_ON_SET));
 554:Generated_Source\PSoC5/CyLib.c ****         break;
 998              		.loc 1 554 0
 999 0158 0CE0     		b	.L79
 1000              	.L78:
 555:Generated_Source\PSoC5/CyLib.c **** #endif  /* (CY_PSOC5) */
 556:Generated_Source\PSoC5/CyLib.c **** 
 557:Generated_Source\PSoC5/CyLib.c ****     case CY_IMO_FREQ_USB:
 558:Generated_Source\PSoC5/CyLib.c ****         CY_LIB_FASTCLK_IMO_CR_REG = ((CY_LIB_FASTCLK_IMO_CR_REG & CY_LIB_FASTCLK_IMO_CR_RANGE_MASK)
 1001              		.loc 1 558 0
 1002 015a 104A     		ldr	r2, .L85
 1003 015c 0F4B     		ldr	r3, .L85
 1004 015e 1B78     		ldrb	r3, [r3]
 1005 0160 DBB2     		uxtb	r3, r3
 1006 0162 23F04703 		bic	r3, r3, #71
 1007 0166 DBB2     		uxtb	r3, r3
 1008 0168 43F04203 		orr	r3, r3, #66
 1009 016c DBB2     		uxtb	r3, r3
 1010 016e 1370     		strb	r3, [r2]
 559:Generated_Source\PSoC5/CyLib.c ****             CY_LIB_IMO_24MHZ_VALUE) | CY_LIB_IMO_USBCLK_ON_SET;
 560:Generated_Source\PSoC5/CyLib.c ****         break;
 1011              		.loc 1 560 0
 1012 0170 00E0     		b	.L79
 1013              	.L84:
 561:Generated_Source\PSoC5/CyLib.c **** 
 562:Generated_Source\PSoC5/CyLib.c ****     default:
 563:Generated_Source\PSoC5/CyLib.c ****         CYASSERT(0u != 0u);
 564:Generated_Source\PSoC5/CyLib.c ****         break;
 1014              		.loc 1 564 0
 1015 0172 00BF     		nop
 1016              	.L79:
 565:Generated_Source\PSoC5/CyLib.c ****     }
 566:Generated_Source\PSoC5/CyLib.c **** 
 567:Generated_Source\PSoC5/CyLib.c ****     /* Tu rn onIMO Doubler, if switching to CY_IMO_FREQ_USB */
 568:Generated_Source\PSoC5/CyLib.c ****     if (freq == CY_IMO_FREQ_USB)
 1017              		.loc 1 568 0
 1018 0174 FB79     		ldrb	r3, [r7, #7]	@ zero_extendqisi2
 1019 0176 082B     		cmp	r3, #8
ARM GAS  C:\Users\ben\AppData\Local\Temp\ccnBLHGm.s 			page 29


 1020 0178 02D1     		bne	.L80
 569:Generated_Source\PSoC5/CyLib.c ****     {
 570:Generated_Source\PSoC5/CyLib.c ****         CyIMO_EnableDoubler();
 1021              		.loc 1 570 0
 1022 017a FFF7FEFF 		bl	CyIMO_EnableDoubler
 1023 017e 01E0     		b	.L81
 1024              	.L80:
 571:Generated_Source\PSoC5/CyLib.c ****     }
 572:Generated_Source\PSoC5/CyLib.c ****     else
 573:Generated_Source\PSoC5/CyLib.c ****     {
 574:Generated_Source\PSoC5/CyLib.c ****         CyIMO_DisableDoubler();
 1025              		.loc 1 574 0
 1026 0180 FFF7FEFF 		bl	CyIMO_DisableDoubler
 1027              	.L81:
 575:Generated_Source\PSoC5/CyLib.c ****     }
 576:Generated_Source\PSoC5/CyLib.c **** 
 577:Generated_Source\PSoC5/CyLib.c ****     if (nextFreq < currentFreq)
 1028              		.loc 1 577 0
 1029 0184 BA7B     		ldrb	r2, [r7, #14]	@ zero_extendqisi2
 1030 0186 FB7B     		ldrb	r3, [r7, #15]	@ zero_extendqisi2
 1031 0188 9A42     		cmp	r2, r3
 1032 018a 03D2     		bcs	.L55
 578:Generated_Source\PSoC5/CyLib.c ****     {
 579:Generated_Source\PSoC5/CyLib.c ****         /* Set the trim after setting frequency */
 580:Generated_Source\PSoC5/CyLib.c ****         CyIMO_SetTrimValue(freq);
 1033              		.loc 1 580 0
 1034 018c FB79     		ldrb	r3, [r7, #7]	@ zero_extendqisi2
 1035 018e 1846     		mov	r0, r3
 1036 0190 FFF7FEFF 		bl	CyIMO_SetTrimValue
 1037              	.L55:
 581:Generated_Source\PSoC5/CyLib.c ****     }
 582:Generated_Source\PSoC5/CyLib.c **** }
 1038              		.loc 1 582 0
 1039 0194 1037     		adds	r7, r7, #16
 1040              		.cfi_def_cfa_offset 8
 1041 0196 BD46     		mov	sp, r7
 1042              		.cfi_def_cfa_register 13
 1043              		@ sp needed
 1044 0198 80BD     		pop	{r7, pc}
 1045              	.L86:
 1046 019a 00BF     		.align	2
 1047              	.L85:
 1048 019c 00420040 		.word	1073758720
 1049              		.cfi_endproc
 1050              	.LFE8:
 1051              		.size	CyIMO_SetFreq, .-CyIMO_SetFreq
 1052              		.section	.text.CyIMO_SetSource,"ax",%progbits
 1053              		.align	2
 1054              		.global	CyIMO_SetSource
 1055              		.thumb
 1056              		.thumb_func
 1057              		.type	CyIMO_SetSource, %function
 1058              	CyIMO_SetSource:
 1059              	.LFB9:
 583:Generated_Source\PSoC5/CyLib.c **** 
 584:Generated_Source\PSoC5/CyLib.c **** 
 585:Generated_Source\PSoC5/CyLib.c **** /*******************************************************************************
ARM GAS  C:\Users\ben\AppData\Local\Temp\ccnBLHGm.s 			page 30


 586:Generated_Source\PSoC5/CyLib.c **** * Function Name: CyIMO_SetSource
 587:Generated_Source\PSoC5/CyLib.c **** ****************************************************************************//**
 588:Generated_Source\PSoC5/CyLib.c **** *
 589:Generated_Source\PSoC5/CyLib.c **** *  Sets the source of the clock output from the IMO block.
 590:Generated_Source\PSoC5/CyLib.c **** *
 591:Generated_Source\PSoC5/CyLib.c **** *  The output from the IMO is by default the IMO itself. Optionally the MHz
 592:Generated_Source\PSoC5/CyLib.c **** *  Crystal or DSI input can be the source of the IMO output instead.
 593:Generated_Source\PSoC5/CyLib.c **** *
 594:Generated_Source\PSoC5/CyLib.c **** *   \param source: CY_IMO_SOURCE_DSI to set the DSI as source.
 595:Generated_Source\PSoC5/CyLib.c **** *           CY_IMO_SOURCE_XTAL to set the MHz as source.
 596:Generated_Source\PSoC5/CyLib.c **** *           CY_IMO_SOURCE_IMO to set the IMO itself.
 597:Generated_Source\PSoC5/CyLib.c **** *
 598:Generated_Source\PSoC5/CyLib.c **** * \sideeffect
 599:Generated_Source\PSoC5/CyLib.c **** *  If this function execution resulted in the CPU clock frequency increasing,
 600:Generated_Source\PSoC5/CyLib.c **** *  then the number of clock cycles the cache will wait before it samples data
 601:Generated_Source\PSoC5/CyLib.c **** *  coming back from the Flash must be adjusted by calling
 602:Generated_Source\PSoC5/CyLib.c **** *  CyFlash_SetWaitCycles() with an appropriate parameter. It can be optionally
 603:Generated_Source\PSoC5/CyLib.c **** *  called if the CPU clock frequency is lowered in order to improve the CPU
 604:Generated_Source\PSoC5/CyLib.c **** *  performance. See CyFlash_SetWaitCycles() description for more information.
 605:Generated_Source\PSoC5/CyLib.c **** *
 606:Generated_Source\PSoC5/CyLib.c **** *******************************************************************************/
 607:Generated_Source\PSoC5/CyLib.c **** void CyIMO_SetSource(uint8 source) 
 608:Generated_Source\PSoC5/CyLib.c **** {
 1060              		.loc 1 608 0
 1061              		.cfi_startproc
 1062              		@ args = 0, pretend = 0, frame = 8
 1063              		@ frame_needed = 1, uses_anonymous_args = 0
 1064              		@ link register save eliminated.
 1065 0000 80B4     		push	{r7}
 1066              		.cfi_def_cfa_offset 4
 1067              		.cfi_offset 7, -4
 1068 0002 83B0     		sub	sp, sp, #12
 1069              		.cfi_def_cfa_offset 16
 1070 0004 00AF     		add	r7, sp, #0
 1071              		.cfi_def_cfa_register 7
 1072 0006 0346     		mov	r3, r0
 1073 0008 FB71     		strb	r3, [r7, #7]
 609:Generated_Source\PSoC5/CyLib.c ****     switch(source)
 1074              		.loc 1 609 0
 1075 000a FB79     		ldrb	r3, [r7, #7]	@ zero_extendqisi2
 1076 000c 012B     		cmp	r3, #1
 1077 000e 17D0     		beq	.L89
 1078 0010 022B     		cmp	r3, #2
 1079 0012 02D0     		beq	.L90
 1080 0014 002B     		cmp	r3, #0
 1081 0016 26D0     		beq	.L91
 610:Generated_Source\PSoC5/CyLib.c ****     {
 611:Generated_Source\PSoC5/CyLib.c ****     case CY_IMO_SOURCE_DSI:
 612:Generated_Source\PSoC5/CyLib.c ****         CY_LIB_CLKDIST_CR_REG     &= ((uint8)(~CY_LIB_CLKDIST_CR_IMO2X));
 613:Generated_Source\PSoC5/CyLib.c ****         CY_LIB_FASTCLK_IMO_CR_REG |= CY_LIB_FASTCLK_IMO_IMO;
 614:Generated_Source\PSoC5/CyLib.c ****         break;
 615:Generated_Source\PSoC5/CyLib.c **** 
 616:Generated_Source\PSoC5/CyLib.c ****     case CY_IMO_SOURCE_XTAL:
 617:Generated_Source\PSoC5/CyLib.c ****         CY_LIB_CLKDIST_CR_REG     |= CY_LIB_CLKDIST_CR_IMO2X;
 618:Generated_Source\PSoC5/CyLib.c ****         CY_LIB_FASTCLK_IMO_CR_REG |= CY_LIB_FASTCLK_IMO_IMO;
 619:Generated_Source\PSoC5/CyLib.c ****         break;
 620:Generated_Source\PSoC5/CyLib.c **** 
ARM GAS  C:\Users\ben\AppData\Local\Temp\ccnBLHGm.s 			page 31


 621:Generated_Source\PSoC5/CyLib.c ****     case CY_IMO_SOURCE_IMO:
 622:Generated_Source\PSoC5/CyLib.c ****         CY_LIB_FASTCLK_IMO_CR_REG &= ((uint8)(~CY_LIB_FASTCLK_IMO_IMO));
 623:Generated_Source\PSoC5/CyLib.c ****         break;
 624:Generated_Source\PSoC5/CyLib.c **** 
 625:Generated_Source\PSoC5/CyLib.c ****     default:
 626:Generated_Source\PSoC5/CyLib.c ****         /* Incorrect source value */
 627:Generated_Source\PSoC5/CyLib.c ****         CYASSERT(0u != 0u);
 628:Generated_Source\PSoC5/CyLib.c ****         break;
 1082              		.loc 1 628 0
 1083 0018 2EE0     		b	.L87
 1084              	.L90:
 612:Generated_Source\PSoC5/CyLib.c ****         CY_LIB_FASTCLK_IMO_CR_REG |= CY_LIB_FASTCLK_IMO_IMO;
 1085              		.loc 1 612 0
 1086 001a 4FF04022 		mov	r2, #1073758208
 1087 001e 4FF04023 		mov	r3, #1073758208
 1088 0022 1B78     		ldrb	r3, [r3]
 1089 0024 DBB2     		uxtb	r3, r3
 1090 0026 23F04003 		bic	r3, r3, #64
 1091 002a DBB2     		uxtb	r3, r3
 1092 002c 1370     		strb	r3, [r2]
 613:Generated_Source\PSoC5/CyLib.c ****         break;
 1093              		.loc 1 613 0
 1094 002e 154A     		ldr	r2, .L93
 1095 0030 144B     		ldr	r3, .L93
 1096 0032 1B78     		ldrb	r3, [r3]
 1097 0034 DBB2     		uxtb	r3, r3
 1098 0036 43F02003 		orr	r3, r3, #32
 1099 003a DBB2     		uxtb	r3, r3
 1100 003c 1370     		strb	r3, [r2]
 614:Generated_Source\PSoC5/CyLib.c **** 
 1101              		.loc 1 614 0
 1102 003e 1BE0     		b	.L87
 1103              	.L89:
 617:Generated_Source\PSoC5/CyLib.c ****         CY_LIB_FASTCLK_IMO_CR_REG |= CY_LIB_FASTCLK_IMO_IMO;
 1104              		.loc 1 617 0
 1105 0040 4FF04022 		mov	r2, #1073758208
 1106 0044 4FF04023 		mov	r3, #1073758208
 1107 0048 1B78     		ldrb	r3, [r3]
 1108 004a DBB2     		uxtb	r3, r3
 1109 004c 43F04003 		orr	r3, r3, #64
 1110 0050 DBB2     		uxtb	r3, r3
 1111 0052 1370     		strb	r3, [r2]
 618:Generated_Source\PSoC5/CyLib.c ****         break;
 1112              		.loc 1 618 0
 1113 0054 0B4A     		ldr	r2, .L93
 1114 0056 0B4B     		ldr	r3, .L93
 1115 0058 1B78     		ldrb	r3, [r3]
 1116 005a DBB2     		uxtb	r3, r3
 1117 005c 43F02003 		orr	r3, r3, #32
 1118 0060 DBB2     		uxtb	r3, r3
 1119 0062 1370     		strb	r3, [r2]
 619:Generated_Source\PSoC5/CyLib.c **** 
 1120              		.loc 1 619 0
 1121 0064 08E0     		b	.L87
 1122              	.L91:
 622:Generated_Source\PSoC5/CyLib.c ****         break;
 1123              		.loc 1 622 0
ARM GAS  C:\Users\ben\AppData\Local\Temp\ccnBLHGm.s 			page 32


 1124 0066 074A     		ldr	r2, .L93
 1125 0068 064B     		ldr	r3, .L93
 1126 006a 1B78     		ldrb	r3, [r3]
 1127 006c DBB2     		uxtb	r3, r3
 1128 006e 23F02003 		bic	r3, r3, #32
 1129 0072 DBB2     		uxtb	r3, r3
 1130 0074 1370     		strb	r3, [r2]
 623:Generated_Source\PSoC5/CyLib.c **** 
 1131              		.loc 1 623 0
 1132 0076 00BF     		nop
 1133              	.L87:
 629:Generated_Source\PSoC5/CyLib.c ****     }
 630:Generated_Source\PSoC5/CyLib.c **** }
 1134              		.loc 1 630 0
 1135 0078 0C37     		adds	r7, r7, #12
 1136              		.cfi_def_cfa_offset 4
 1137 007a BD46     		mov	sp, r7
 1138              		.cfi_def_cfa_register 13
 1139              		@ sp needed
 1140 007c 5DF8047B 		ldr	r7, [sp], #4
 1141              		.cfi_restore 7
 1142              		.cfi_def_cfa_offset 0
 1143 0080 7047     		bx	lr
 1144              	.L94:
 1145 0082 00BF     		.align	2
 1146              	.L93:
 1147 0084 00420040 		.word	1073758720
 1148              		.cfi_endproc
 1149              	.LFE9:
 1150              		.size	CyIMO_SetSource, .-CyIMO_SetSource
 1151              		.section	.text.CyIMO_EnableDoubler,"ax",%progbits
 1152              		.align	2
 1153              		.global	CyIMO_EnableDoubler
 1154              		.thumb
 1155              		.thumb_func
 1156              		.type	CyIMO_EnableDoubler, %function
 1157              	CyIMO_EnableDoubler:
 1158              	.LFB10:
 631:Generated_Source\PSoC5/CyLib.c **** 
 632:Generated_Source\PSoC5/CyLib.c **** 
 633:Generated_Source\PSoC5/CyLib.c **** /*******************************************************************************
 634:Generated_Source\PSoC5/CyLib.c **** * Function Name: CyIMO_EnableDoubler
 635:Generated_Source\PSoC5/CyLib.c **** ****************************************************************************//**
 636:Generated_Source\PSoC5/CyLib.c **** *
 637:Generated_Source\PSoC5/CyLib.c **** *  Enables the IMO doubler.  The 2x frequency clock is used to convert a 24 MHz
 638:Generated_Source\PSoC5/CyLib.c **** *  input to a 48 MHz output for use by the USB block.
 639:Generated_Source\PSoC5/CyLib.c **** *
 640:Generated_Source\PSoC5/CyLib.c **** *******************************************************************************/
 641:Generated_Source\PSoC5/CyLib.c **** void CyIMO_EnableDoubler(void) 
 642:Generated_Source\PSoC5/CyLib.c **** {
 1159              		.loc 1 642 0
 1160              		.cfi_startproc
 1161              		@ args = 0, pretend = 0, frame = 0
 1162              		@ frame_needed = 1, uses_anonymous_args = 0
 1163              		@ link register save eliminated.
 1164 0000 80B4     		push	{r7}
 1165              		.cfi_def_cfa_offset 4
ARM GAS  C:\Users\ben\AppData\Local\Temp\ccnBLHGm.s 			page 33


 1166              		.cfi_offset 7, -4
 1167 0002 00AF     		add	r7, sp, #0
 1168              		.cfi_def_cfa_register 7
 643:Generated_Source\PSoC5/CyLib.c ****     /* Set FASTCLK_IMO_CR_PTR regigster's 4th bit */
 644:Generated_Source\PSoC5/CyLib.c ****     CY_LIB_FASTCLK_IMO_CR_REG |= CY_LIB_FASTCLK_IMO_DOUBLER;
 1169              		.loc 1 644 0
 1170 0004 054A     		ldr	r2, .L96
 1171 0006 054B     		ldr	r3, .L96
 1172 0008 1B78     		ldrb	r3, [r3]
 1173 000a DBB2     		uxtb	r3, r3
 1174 000c 43F01003 		orr	r3, r3, #16
 1175 0010 DBB2     		uxtb	r3, r3
 1176 0012 1370     		strb	r3, [r2]
 645:Generated_Source\PSoC5/CyLib.c **** }
 1177              		.loc 1 645 0
 1178 0014 BD46     		mov	sp, r7
 1179              		.cfi_def_cfa_register 13
 1180              		@ sp needed
 1181 0016 5DF8047B 		ldr	r7, [sp], #4
 1182              		.cfi_restore 7
 1183              		.cfi_def_cfa_offset 0
 1184 001a 7047     		bx	lr
 1185              	.L97:
 1186              		.align	2
 1187              	.L96:
 1188 001c 00420040 		.word	1073758720
 1189              		.cfi_endproc
 1190              	.LFE10:
 1191              		.size	CyIMO_EnableDoubler, .-CyIMO_EnableDoubler
 1192              		.section	.text.CyIMO_DisableDoubler,"ax",%progbits
 1193              		.align	2
 1194              		.global	CyIMO_DisableDoubler
 1195              		.thumb
 1196              		.thumb_func
 1197              		.type	CyIMO_DisableDoubler, %function
 1198              	CyIMO_DisableDoubler:
 1199              	.LFB11:
 646:Generated_Source\PSoC5/CyLib.c **** 
 647:Generated_Source\PSoC5/CyLib.c **** 
 648:Generated_Source\PSoC5/CyLib.c **** /*******************************************************************************
 649:Generated_Source\PSoC5/CyLib.c **** * Function Name: CyIMO_DisableDoubler
 650:Generated_Source\PSoC5/CyLib.c **** ****************************************************************************//**
 651:Generated_Source\PSoC5/CyLib.c **** *
 652:Generated_Source\PSoC5/CyLib.c **** *   Disables the IMO doubler.
 653:Generated_Source\PSoC5/CyLib.c **** *
 654:Generated_Source\PSoC5/CyLib.c **** *******************************************************************************/
 655:Generated_Source\PSoC5/CyLib.c **** void CyIMO_DisableDoubler(void) 
 656:Generated_Source\PSoC5/CyLib.c **** {
 1200              		.loc 1 656 0
 1201              		.cfi_startproc
 1202              		@ args = 0, pretend = 0, frame = 0
 1203              		@ frame_needed = 1, uses_anonymous_args = 0
 1204              		@ link register save eliminated.
 1205 0000 80B4     		push	{r7}
 1206              		.cfi_def_cfa_offset 4
 1207              		.cfi_offset 7, -4
 1208 0002 00AF     		add	r7, sp, #0
ARM GAS  C:\Users\ben\AppData\Local\Temp\ccnBLHGm.s 			page 34


 1209              		.cfi_def_cfa_register 7
 657:Generated_Source\PSoC5/CyLib.c ****     CY_LIB_FASTCLK_IMO_CR_REG &= ((uint8)(~CY_LIB_FASTCLK_IMO_DOUBLER));
 1210              		.loc 1 657 0
 1211 0004 054A     		ldr	r2, .L99
 1212 0006 054B     		ldr	r3, .L99
 1213 0008 1B78     		ldrb	r3, [r3]
 1214 000a DBB2     		uxtb	r3, r3
 1215 000c 23F01003 		bic	r3, r3, #16
 1216 0010 DBB2     		uxtb	r3, r3
 1217 0012 1370     		strb	r3, [r2]
 658:Generated_Source\PSoC5/CyLib.c **** }
 1218              		.loc 1 658 0
 1219 0014 BD46     		mov	sp, r7
 1220              		.cfi_def_cfa_register 13
 1221              		@ sp needed
 1222 0016 5DF8047B 		ldr	r7, [sp], #4
 1223              		.cfi_restore 7
 1224              		.cfi_def_cfa_offset 0
 1225 001a 7047     		bx	lr
 1226              	.L100:
 1227              		.align	2
 1228              	.L99:
 1229 001c 00420040 		.word	1073758720
 1230              		.cfi_endproc
 1231              	.LFE11:
 1232              		.size	CyIMO_DisableDoubler, .-CyIMO_DisableDoubler
 1233              		.section	.text.CyMasterClk_SetSource,"ax",%progbits
 1234              		.align	2
 1235              		.global	CyMasterClk_SetSource
 1236              		.thumb
 1237              		.thumb_func
 1238              		.type	CyMasterClk_SetSource, %function
 1239              	CyMasterClk_SetSource:
 1240              	.LFB12:
 659:Generated_Source\PSoC5/CyLib.c **** 
 660:Generated_Source\PSoC5/CyLib.c **** 
 661:Generated_Source\PSoC5/CyLib.c **** /*******************************************************************************
 662:Generated_Source\PSoC5/CyLib.c **** * Function Name: CyMasterClk_SetSource
 663:Generated_Source\PSoC5/CyLib.c **** ****************************************************************************//**
 664:Generated_Source\PSoC5/CyLib.c **** *
 665:Generated_Source\PSoC5/CyLib.c **** *  Sets the source of the master clock.
 666:Generated_Source\PSoC5/CyLib.c **** *
 667:Generated_Source\PSoC5/CyLib.c **** *   \param source: One of the four available Master clock sources.
 668:Generated_Source\PSoC5/CyLib.c **** *     CY_MASTER_SOURCE_IMO
 669:Generated_Source\PSoC5/CyLib.c **** *     CY_MASTER_SOURCE_PLL
 670:Generated_Source\PSoC5/CyLib.c **** *     CY_MASTER_SOURCE_XTAL
 671:Generated_Source\PSoC5/CyLib.c **** *     CY_MASTER_SOURCE_DSI
 672:Generated_Source\PSoC5/CyLib.c **** *
 673:Generated_Source\PSoC5/CyLib.c **** * \sideeffect
 674:Generated_Source\PSoC5/CyLib.c **** *  The current source and the new source must both be running and stable before
 675:Generated_Source\PSoC5/CyLib.c **** *  calling this function.
 676:Generated_Source\PSoC5/CyLib.c **** *
 677:Generated_Source\PSoC5/CyLib.c **** *  If this function execution resulted in the CPU clock frequency increasing,
 678:Generated_Source\PSoC5/CyLib.c **** *  then the number of clock cycles the cache will wait before it samples data
 679:Generated_Source\PSoC5/CyLib.c **** *  coming back from the Flash must be adjusted by calling
 680:Generated_Source\PSoC5/CyLib.c **** *  CyFlash_SetWaitCycles() with an appropriate parameter. It can be optionally
 681:Generated_Source\PSoC5/CyLib.c **** *  called if the CPU clock frequency is lowered in order to improve the CPU
ARM GAS  C:\Users\ben\AppData\Local\Temp\ccnBLHGm.s 			page 35


 682:Generated_Source\PSoC5/CyLib.c **** *  performance. See CyFlash_SetWaitCycles() description for more information.
 683:Generated_Source\PSoC5/CyLib.c **** *
 684:Generated_Source\PSoC5/CyLib.c **** *******************************************************************************/
 685:Generated_Source\PSoC5/CyLib.c **** void CyMasterClk_SetSource(uint8 source) 
 686:Generated_Source\PSoC5/CyLib.c **** {
 1241              		.loc 1 686 0
 1242              		.cfi_startproc
 1243              		@ args = 0, pretend = 0, frame = 8
 1244              		@ frame_needed = 1, uses_anonymous_args = 0
 1245              		@ link register save eliminated.
 1246 0000 80B4     		push	{r7}
 1247              		.cfi_def_cfa_offset 4
 1248              		.cfi_offset 7, -4
 1249 0002 83B0     		sub	sp, sp, #12
 1250              		.cfi_def_cfa_offset 16
 1251 0004 00AF     		add	r7, sp, #0
 1252              		.cfi_def_cfa_register 7
 1253 0006 0346     		mov	r3, r0
 1254 0008 FB71     		strb	r3, [r7, #7]
 687:Generated_Source\PSoC5/CyLib.c ****     CY_LIB_CLKDIST_MSTR1_REG = (CY_LIB_CLKDIST_MSTR1_REG & MASTER_CLK_SRC_CLEAR) |
 1255              		.loc 1 687 0
 1256 000a 0949     		ldr	r1, .L102
 1257 000c 084B     		ldr	r3, .L102
 1258 000e 1B78     		ldrb	r3, [r3]
 1259 0010 DBB2     		uxtb	r3, r3
 1260 0012 23F00303 		bic	r3, r3, #3
 1261 0016 DAB2     		uxtb	r2, r3
 1262 0018 FB79     		ldrb	r3, [r7, #7]
 1263 001a 03F00303 		and	r3, r3, #3
 1264 001e DBB2     		uxtb	r3, r3
 1265 0020 1343     		orrs	r3, r3, r2
 1266 0022 DBB2     		uxtb	r3, r3
 1267 0024 0B70     		strb	r3, [r1]
 688:Generated_Source\PSoC5/CyLib.c ****                                 (source & ((uint8)(~MASTER_CLK_SRC_CLEAR)));
 689:Generated_Source\PSoC5/CyLib.c **** }
 1268              		.loc 1 689 0
 1269 0026 0C37     		adds	r7, r7, #12
 1270              		.cfi_def_cfa_offset 4
 1271 0028 BD46     		mov	sp, r7
 1272              		.cfi_def_cfa_register 13
 1273              		@ sp needed
 1274 002a 5DF8047B 		ldr	r7, [sp], #4
 1275              		.cfi_restore 7
 1276              		.cfi_def_cfa_offset 0
 1277 002e 7047     		bx	lr
 1278              	.L103:
 1279              		.align	2
 1280              	.L102:
 1281 0030 05400040 		.word	1073758213
 1282              		.cfi_endproc
 1283              	.LFE12:
 1284              		.size	CyMasterClk_SetSource, .-CyMasterClk_SetSource
 1285              		.section	.text.CyMasterClk_SetDivider,"ax",%progbits
 1286              		.align	2
 1287              		.global	CyMasterClk_SetDivider
 1288              		.thumb
 1289              		.thumb_func
ARM GAS  C:\Users\ben\AppData\Local\Temp\ccnBLHGm.s 			page 36


 1290              		.type	CyMasterClk_SetDivider, %function
 1291              	CyMasterClk_SetDivider:
 1292              	.LFB13:
 690:Generated_Source\PSoC5/CyLib.c **** 
 691:Generated_Source\PSoC5/CyLib.c **** 
 692:Generated_Source\PSoC5/CyLib.c **** /*******************************************************************************
 693:Generated_Source\PSoC5/CyLib.c **** * Function Name: CyMasterClk_SetDivider
 694:Generated_Source\PSoC5/CyLib.c **** ****************************************************************************//**
 695:Generated_Source\PSoC5/CyLib.c **** *
 696:Generated_Source\PSoC5/CyLib.c **** *  Sets the divider value used to generate Master Clock.
 697:Generated_Source\PSoC5/CyLib.c **** *
 698:Generated_Source\PSoC5/CyLib.c **** *  \param uint8 divider:
 699:Generated_Source\PSoC5/CyLib.c **** *   The valid range is [0-255]. The clock will be divided by this value + 1.
 700:Generated_Source\PSoC5/CyLib.c **** *   For example to divide this parameter by two should be set to 1.
 701:Generated_Source\PSoC5/CyLib.c **** *
 702:Generated_Source\PSoC5/CyLib.c **** * \sideeffect
 703:Generated_Source\PSoC5/CyLib.c **** *  If this function execution resulted in the CPU clock frequency increasing,
 704:Generated_Source\PSoC5/CyLib.c **** *  then the number of clock cycles the cache will wait before it samples data
 705:Generated_Source\PSoC5/CyLib.c **** *  coming back from the Flash must be adjusted by calling
 706:Generated_Source\PSoC5/CyLib.c **** *  CyFlash_SetWaitCycles() with an appropriate parameter. It can be optionally
 707:Generated_Source\PSoC5/CyLib.c **** *  called if the CPU clock frequency is lowered in order to improve the CPU
 708:Generated_Source\PSoC5/CyLib.c **** *  performance. See CyFlash_SetWaitCycles() description for more information.
 709:Generated_Source\PSoC5/CyLib.c **** *
 710:Generated_Source\PSoC5/CyLib.c **** *  When changing the Master or Bus clock divider value from div-by-n to div-by-1
 711:Generated_Source\PSoC5/CyLib.c **** *  the first clock cycle output after the div-by-1 can be up to 4 ns shorter
 712:Generated_Source\PSoC5/CyLib.c **** *  than the final/expected div-by-1 period.
 713:Generated_Source\PSoC5/CyLib.c **** *
 714:Generated_Source\PSoC5/CyLib.c **** *******************************************************************************/
 715:Generated_Source\PSoC5/CyLib.c **** void CyMasterClk_SetDivider(uint8 divider) 
 716:Generated_Source\PSoC5/CyLib.c **** {
 1293              		.loc 1 716 0
 1294              		.cfi_startproc
 1295              		@ args = 0, pretend = 0, frame = 8
 1296              		@ frame_needed = 1, uses_anonymous_args = 0
 1297              		@ link register save eliminated.
 1298 0000 80B4     		push	{r7}
 1299              		.cfi_def_cfa_offset 4
 1300              		.cfi_offset 7, -4
 1301 0002 83B0     		sub	sp, sp, #12
 1302              		.cfi_def_cfa_offset 16
 1303 0004 00AF     		add	r7, sp, #0
 1304              		.cfi_def_cfa_register 7
 1305 0006 0346     		mov	r3, r0
 1306 0008 FB71     		strb	r3, [r7, #7]
 717:Generated_Source\PSoC5/CyLib.c ****     CY_LIB_CLKDIST_MSTR0_REG = divider;
 1307              		.loc 1 717 0
 1308 000a 044A     		ldr	r2, .L105
 1309 000c FB79     		ldrb	r3, [r7, #7]
 1310 000e 1370     		strb	r3, [r2]
 718:Generated_Source\PSoC5/CyLib.c **** }
 1311              		.loc 1 718 0
 1312 0010 0C37     		adds	r7, r7, #12
 1313              		.cfi_def_cfa_offset 4
 1314 0012 BD46     		mov	sp, r7
 1315              		.cfi_def_cfa_register 13
 1316              		@ sp needed
 1317 0014 5DF8047B 		ldr	r7, [sp], #4
ARM GAS  C:\Users\ben\AppData\Local\Temp\ccnBLHGm.s 			page 37


 1318              		.cfi_restore 7
 1319              		.cfi_def_cfa_offset 0
 1320 0018 7047     		bx	lr
 1321              	.L106:
 1322 001a 00BF     		.align	2
 1323              	.L105:
 1324 001c 04400040 		.word	1073758212
 1325              		.cfi_endproc
 1326              	.LFE13:
 1327              		.size	CyMasterClk_SetDivider, .-CyMasterClk_SetDivider
 1328              		.section	.text.CyBusClk_Internal_SetDivider,"ax",%progbits
 1329              		.align	2
 1330              		.thumb
 1331              		.thumb_func
 1332              		.type	CyBusClk_Internal_SetDivider, %function
 1333              	CyBusClk_Internal_SetDivider:
 1334              	.LFB14:
 719:Generated_Source\PSoC5/CyLib.c **** 
 720:Generated_Source\PSoC5/CyLib.c **** 
 721:Generated_Source\PSoC5/CyLib.c **** /*******************************************************************************
 722:Generated_Source\PSoC5/CyLib.c **** * Function Name: CyBusClk_Internal_SetDivider
 723:Generated_Source\PSoC5/CyLib.c **** ****************************************************************************//**
 724:Generated_Source\PSoC5/CyLib.c **** *
 725:Generated_Source\PSoC5/CyLib.c **** *  The function used by CyBusClk_SetDivider(). For internal use only.
 726:Generated_Source\PSoC5/CyLib.c **** *
 727:Generated_Source\PSoC5/CyLib.c **** *   \param divider: Valid range [0-65535].
 728:Generated_Source\PSoC5/CyLib.c **** *   The clock will be divided by this value + 1.
 729:Generated_Source\PSoC5/CyLib.c **** *   For example, to divide this parameter by two should be set to 1.
 730:Generated_Source\PSoC5/CyLib.c **** *
 731:Generated_Source\PSoC5/CyLib.c **** *******************************************************************************/
 732:Generated_Source\PSoC5/CyLib.c **** static void CyBusClk_Internal_SetDivider(uint16 divider)
 733:Generated_Source\PSoC5/CyLib.c **** {
 1335              		.loc 1 733 0
 1336              		.cfi_startproc
 1337              		@ args = 0, pretend = 0, frame = 8
 1338              		@ frame_needed = 1, uses_anonymous_args = 0
 1339              		@ link register save eliminated.
 1340 0000 80B4     		push	{r7}
 1341              		.cfi_def_cfa_offset 4
 1342              		.cfi_offset 7, -4
 1343 0002 83B0     		sub	sp, sp, #12
 1344              		.cfi_def_cfa_offset 16
 1345 0004 00AF     		add	r7, sp, #0
 1346              		.cfi_def_cfa_register 7
 1347 0006 0346     		mov	r3, r0
 1348 0008 FB80     		strh	r3, [r7, #6]	@ movhi
 734:Generated_Source\PSoC5/CyLib.c ****     /* Mask bits to enable shadow loads  */
 735:Generated_Source\PSoC5/CyLib.c ****     CY_LIB_CLKDIST_AMASK_REG &= CY_LIB_CLKDIST_AMASK_MASK;
 1349              		.loc 1 735 0
 1350 000a 154A     		ldr	r2, .L108
 1351 000c 144B     		ldr	r3, .L108
 1352 000e 1B78     		ldrb	r3, [r3]
 1353 0010 DBB2     		uxtb	r3, r3
 1354 0012 23F00F03 		bic	r3, r3, #15
 1355 0016 DBB2     		uxtb	r3, r3
 1356 0018 1370     		strb	r3, [r2]
 736:Generated_Source\PSoC5/CyLib.c ****     CY_LIB_CLKDIST_DMASK_REG  = CY_LIB_CLKDIST_DMASK_MASK;
ARM GAS  C:\Users\ben\AppData\Local\Temp\ccnBLHGm.s 			page 38


 1357              		.loc 1 736 0
 1358 001a 124B     		ldr	r3, .L108+4
 1359 001c 0022     		movs	r2, #0
 1360 001e 1A70     		strb	r2, [r3]
 737:Generated_Source\PSoC5/CyLib.c **** 
 738:Generated_Source\PSoC5/CyLib.c ****     /* Enable mask bits to enable shadow loads */
 739:Generated_Source\PSoC5/CyLib.c ****     CY_LIB_CLKDIST_BCFG2_REG |= CY_LIB_CLKDIST_BCFG2_MASK;
 1361              		.loc 1 739 0
 1362 0020 114A     		ldr	r2, .L108+8
 1363 0022 114B     		ldr	r3, .L108+8
 1364 0024 1B78     		ldrb	r3, [r3]
 1365 0026 DBB2     		uxtb	r3, r3
 1366 0028 63F07F03 		orn	r3, r3, #127
 1367 002c DBB2     		uxtb	r3, r3
 1368 002e 1370     		strb	r3, [r2]
 740:Generated_Source\PSoC5/CyLib.c **** 
 741:Generated_Source\PSoC5/CyLib.c ****     /* Update Shadow Divider Value Register with new divider */
 742:Generated_Source\PSoC5/CyLib.c ****     CY_LIB_CLKDIST_WRK_LSB_REG = LO8(divider);
 1369              		.loc 1 742 0
 1370 0030 0E4B     		ldr	r3, .L108+12
 1371 0032 FA88     		ldrh	r2, [r7, #6]	@ movhi
 1372 0034 D2B2     		uxtb	r2, r2
 1373 0036 1A70     		strb	r2, [r3]
 743:Generated_Source\PSoC5/CyLib.c ****     CY_LIB_CLKDIST_WRK_MSB_REG = HI8(divider);
 1374              		.loc 1 743 0
 1375 0038 0D4A     		ldr	r2, .L108+16
 1376 003a FB88     		ldrh	r3, [r7, #6]
 1377 003c 1B0A     		lsrs	r3, r3, #8
 1378 003e 9BB2     		uxth	r3, r3
 1379 0040 DBB2     		uxtb	r3, r3
 1380 0042 1370     		strb	r3, [r2]
 744:Generated_Source\PSoC5/CyLib.c **** 
 745:Generated_Source\PSoC5/CyLib.c **** 
 746:Generated_Source\PSoC5/CyLib.c ****     /***************************************************************************
 747:Generated_Source\PSoC5/CyLib.c ****     * Copy shadow value defined in Shadow Divider Value Register
 748:Generated_Source\PSoC5/CyLib.c ****     * (CY_LIB_CLKDIST_WRK_LSB_REG and CY_LIB_CLKDIST_WRK_MSB_REG) to all
 749:Generated_Source\PSoC5/CyLib.c ****     * dividers selected in Analog and Digital Clock Mask Registers
 750:Generated_Source\PSoC5/CyLib.c ****     * (CY_LIB_CLKDIST_AMASK_REG and CY_LIB_CLKDIST_DMASK_REG).
 751:Generated_Source\PSoC5/CyLib.c ****     ***************************************************************************/
 752:Generated_Source\PSoC5/CyLib.c ****     CY_LIB_CLKDIST_LD_REG |= CY_LIB_CLKDIST_LD_LOAD;
 1381              		.loc 1 752 0
 1382 0044 0B4A     		ldr	r2, .L108+20
 1383 0046 0B4B     		ldr	r3, .L108+20
 1384 0048 1B78     		ldrb	r3, [r3]
 1385 004a DBB2     		uxtb	r3, r3
 1386 004c 43F00103 		orr	r3, r3, #1
 1387 0050 DBB2     		uxtb	r3, r3
 1388 0052 1370     		strb	r3, [r2]
 753:Generated_Source\PSoC5/CyLib.c **** }
 1389              		.loc 1 753 0
 1390 0054 0C37     		adds	r7, r7, #12
 1391              		.cfi_def_cfa_offset 4
 1392 0056 BD46     		mov	sp, r7
 1393              		.cfi_def_cfa_register 13
 1394              		@ sp needed
 1395 0058 5DF8047B 		ldr	r7, [sp], #4
 1396              		.cfi_restore 7
ARM GAS  C:\Users\ben\AppData\Local\Temp\ccnBLHGm.s 			page 39


 1397              		.cfi_def_cfa_offset 0
 1398 005c 7047     		bx	lr
 1399              	.L109:
 1400 005e 00BF     		.align	2
 1401              	.L108:
 1402 0060 14400040 		.word	1073758228
 1403 0064 10400040 		.word	1073758224
 1404 0068 08400040 		.word	1073758216
 1405 006c 02400040 		.word	1073758210
 1406 0070 03400040 		.word	1073758211
 1407 0074 01400040 		.word	1073758209
 1408              		.cfi_endproc
 1409              	.LFE14:
 1410              		.size	CyBusClk_Internal_SetDivider, .-CyBusClk_Internal_SetDivider
 1411              		.section	.text.CyBusClk_SetDivider,"ax",%progbits
 1412              		.align	2
 1413              		.global	CyBusClk_SetDivider
 1414              		.thumb
 1415              		.thumb_func
 1416              		.type	CyBusClk_SetDivider, %function
 1417              	CyBusClk_SetDivider:
 1418              	.LFB15:
 754:Generated_Source\PSoC5/CyLib.c **** 
 755:Generated_Source\PSoC5/CyLib.c **** 
 756:Generated_Source\PSoC5/CyLib.c **** /*******************************************************************************
 757:Generated_Source\PSoC5/CyLib.c **** * Function Name: CyBusClk_SetDivider
 758:Generated_Source\PSoC5/CyLib.c **** ****************************************************************************//**
 759:Generated_Source\PSoC5/CyLib.c **** *
 760:Generated_Source\PSoC5/CyLib.c **** *  Sets the divider value used to generate the Bus Clock.
 761:Generated_Source\PSoC5/CyLib.c **** *
 762:Generated_Source\PSoC5/CyLib.c **** *  \param divider: Valid range [0-65535]. The clock will be divided by this value + 1.
 763:Generated_Source\PSoC5/CyLib.c **** *  For example, to divide this parameter by two should be set to 1.
 764:Generated_Source\PSoC5/CyLib.c **** *
 765:Generated_Source\PSoC5/CyLib.c **** * \sideeffect
 766:Generated_Source\PSoC5/CyLib.c **** *  If this function execution resulted in the CPU clock frequency increasing,
 767:Generated_Source\PSoC5/CyLib.c **** *  then the number of clock cycles the cache will wait before it samples data
 768:Generated_Source\PSoC5/CyLib.c **** *  coming back from the Flash must be adjusted by calling
 769:Generated_Source\PSoC5/CyLib.c **** *  CyFlash_SetWaitCycles() with an appropriate parameter. It can be optionally
 770:Generated_Source\PSoC5/CyLib.c **** *  called if the CPU clock frequency is lowered in order to improve the CPU
 771:Generated_Source\PSoC5/CyLib.c **** *  performance. See CyFlash_SetWaitCycles() description for more information.
 772:Generated_Source\PSoC5/CyLib.c **** *
 773:Generated_Source\PSoC5/CyLib.c **** *******************************************************************************/
 774:Generated_Source\PSoC5/CyLib.c **** void CyBusClk_SetDivider(uint16 divider) 
 775:Generated_Source\PSoC5/CyLib.c **** {
 1419              		.loc 1 775 0
 1420              		.cfi_startproc
 1421              		@ args = 0, pretend = 0, frame = 16
 1422              		@ frame_needed = 1, uses_anonymous_args = 0
 1423 0000 80B5     		push	{r7, lr}
 1424              		.cfi_def_cfa_offset 8
 1425              		.cfi_offset 7, -8
 1426              		.cfi_offset 14, -4
 1427 0002 84B0     		sub	sp, sp, #16
 1428              		.cfi_def_cfa_offset 24
 1429 0004 00AF     		add	r7, sp, #0
 1430              		.cfi_def_cfa_register 7
 1431 0006 0346     		mov	r3, r0
ARM GAS  C:\Users\ben\AppData\Local\Temp\ccnBLHGm.s 			page 40


 1432 0008 FB80     		strh	r3, [r7, #6]	@ movhi
 776:Generated_Source\PSoC5/CyLib.c ****     uint8  masterClkDiv;
 777:Generated_Source\PSoC5/CyLib.c ****     uint16 busClkDiv;
 778:Generated_Source\PSoC5/CyLib.c ****     uint8 interruptState;
 779:Generated_Source\PSoC5/CyLib.c **** 
 780:Generated_Source\PSoC5/CyLib.c ****     interruptState = CyEnterCriticalSection();
 1433              		.loc 1 780 0
 1434 000a FFF7FEFF 		bl	CyEnterCriticalSection
 1435 000e 0346     		mov	r3, r0
 1436 0010 FB73     		strb	r3, [r7, #15]
 781:Generated_Source\PSoC5/CyLib.c **** 
 782:Generated_Source\PSoC5/CyLib.c ****     /* Work around to set bus clock divider value */
 783:Generated_Source\PSoC5/CyLib.c ****     busClkDiv = (uint16)((uint16)CY_LIB_CLKDIST_BCFG_MSB_REG << 8u);
 1437              		.loc 1 783 0
 1438 0012 244B     		ldr	r3, .L117
 1439 0014 1B78     		ldrb	r3, [r3]
 1440 0016 DBB2     		uxtb	r3, r3
 1441 0018 9BB2     		uxth	r3, r3
 1442 001a 1B02     		lsls	r3, r3, #8
 1443 001c BB81     		strh	r3, [r7, #12]	@ movhi
 784:Generated_Source\PSoC5/CyLib.c ****     busClkDiv |= CY_LIB_CLKDIST_BCFG_LSB_REG;
 1444              		.loc 1 784 0
 1445 001e 224B     		ldr	r3, .L117+4
 1446 0020 1B78     		ldrb	r3, [r3]
 1447 0022 DBB2     		uxtb	r3, r3
 1448 0024 9AB2     		uxth	r2, r3
 1449 0026 BB89     		ldrh	r3, [r7, #12]	@ movhi
 1450 0028 1343     		orrs	r3, r3, r2
 1451 002a BB81     		strh	r3, [r7, #12]	@ movhi
 785:Generated_Source\PSoC5/CyLib.c **** 
 786:Generated_Source\PSoC5/CyLib.c ****     if ((divider == 0u) || (busClkDiv == 0u))
 1452              		.loc 1 786 0
 1453 002c FB88     		ldrh	r3, [r7, #6]
 1454 002e 002B     		cmp	r3, #0
 1455 0030 02D0     		beq	.L111
 1456              		.loc 1 786 0 is_stmt 0 discriminator 1
 1457 0032 BB89     		ldrh	r3, [r7, #12]
 1458 0034 002B     		cmp	r3, #0
 1459 0036 29D1     		bne	.L112
 1460              	.L111:
 787:Generated_Source\PSoC5/CyLib.c ****     {
 788:Generated_Source\PSoC5/CyLib.c ****         /* Save away master clock divider value */
 789:Generated_Source\PSoC5/CyLib.c ****         masterClkDiv = CY_LIB_CLKDIST_MSTR0_REG;
 1461              		.loc 1 789 0 is_stmt 1
 1462 0038 1C4B     		ldr	r3, .L117+8
 1463 003a 1B78     		ldrb	r3, [r3]
 1464 003c FB72     		strb	r3, [r7, #11]
 790:Generated_Source\PSoC5/CyLib.c **** 
 791:Generated_Source\PSoC5/CyLib.c ****         if (masterClkDiv < CY_LIB_CLKDIST_MASTERCLK_DIV)
 1465              		.loc 1 791 0
 1466 003e FB7A     		ldrb	r3, [r7, #11]	@ zero_extendqisi2
 1467 0040 062B     		cmp	r3, #6
 1468 0042 02D8     		bhi	.L113
 792:Generated_Source\PSoC5/CyLib.c ****         {
 793:Generated_Source\PSoC5/CyLib.c ****             /* Set master clock divider to 7 */
 794:Generated_Source\PSoC5/CyLib.c ****             CyMasterClk_SetDivider(CY_LIB_CLKDIST_MASTERCLK_DIV);
 1469              		.loc 1 794 0
ARM GAS  C:\Users\ben\AppData\Local\Temp\ccnBLHGm.s 			page 41


 1470 0044 0720     		movs	r0, #7
 1471 0046 FFF7FEFF 		bl	CyMasterClk_SetDivider
 1472              	.L113:
 795:Generated_Source\PSoC5/CyLib.c ****         }
 796:Generated_Source\PSoC5/CyLib.c **** 
 797:Generated_Source\PSoC5/CyLib.c ****         if (divider == 0u)
 1473              		.loc 1 797 0
 1474 004a FB88     		ldrh	r3, [r7, #6]
 1475 004c 002B     		cmp	r3, #0
 1476 004e 0CD1     		bne	.L114
 798:Generated_Source\PSoC5/CyLib.c ****         {
 799:Generated_Source\PSoC5/CyLib.c ****             /* Set SSS bit and divider register desired value */
 800:Generated_Source\PSoC5/CyLib.c ****             CY_LIB_CLKDIST_BCFG2_REG |= CY_LIB_CLKDIST_BCFG2_SSS;
 1477              		.loc 1 800 0
 1478 0050 174A     		ldr	r2, .L117+12
 1479 0052 174B     		ldr	r3, .L117+12
 1480 0054 1B78     		ldrb	r3, [r3]
 1481 0056 DBB2     		uxtb	r3, r3
 1482 0058 43F04003 		orr	r3, r3, #64
 1483 005c DBB2     		uxtb	r3, r3
 1484 005e 1370     		strb	r3, [r2]
 801:Generated_Source\PSoC5/CyLib.c ****             CyBusClk_Internal_SetDivider(divider);
 1485              		.loc 1 801 0
 1486 0060 FB88     		ldrh	r3, [r7, #6]
 1487 0062 1846     		mov	r0, r3
 1488 0064 FFF7FEFF 		bl	CyBusClk_Internal_SetDivider
 1489 0068 0BE0     		b	.L115
 1490              	.L114:
 802:Generated_Source\PSoC5/CyLib.c ****         }
 803:Generated_Source\PSoC5/CyLib.c ****         else
 804:Generated_Source\PSoC5/CyLib.c ****         {
 805:Generated_Source\PSoC5/CyLib.c ****             CyBusClk_Internal_SetDivider(divider);
 1491              		.loc 1 805 0
 1492 006a FB88     		ldrh	r3, [r7, #6]
 1493 006c 1846     		mov	r0, r3
 1494 006e FFF7FEFF 		bl	CyBusClk_Internal_SetDivider
 806:Generated_Source\PSoC5/CyLib.c ****             CY_LIB_CLKDIST_BCFG2_REG &= ((uint8)(~CY_LIB_CLKDIST_BCFG2_SSS));
 1495              		.loc 1 806 0
 1496 0072 0F4A     		ldr	r2, .L117+12
 1497 0074 0E4B     		ldr	r3, .L117+12
 1498 0076 1B78     		ldrb	r3, [r3]
 1499 0078 DBB2     		uxtb	r3, r3
 1500 007a 23F04003 		bic	r3, r3, #64
 1501 007e DBB2     		uxtb	r3, r3
 1502 0080 1370     		strb	r3, [r2]
 1503              	.L115:
 807:Generated_Source\PSoC5/CyLib.c ****         }
 808:Generated_Source\PSoC5/CyLib.c **** 
 809:Generated_Source\PSoC5/CyLib.c ****         /* Restore master clock */
 810:Generated_Source\PSoC5/CyLib.c ****         CyMasterClk_SetDivider(masterClkDiv);
 1504              		.loc 1 810 0
 1505 0082 FB7A     		ldrb	r3, [r7, #11]	@ zero_extendqisi2
 1506 0084 1846     		mov	r0, r3
 1507 0086 FFF7FEFF 		bl	CyMasterClk_SetDivider
 1508 008a 03E0     		b	.L116
 1509              	.L112:
 811:Generated_Source\PSoC5/CyLib.c ****     }
ARM GAS  C:\Users\ben\AppData\Local\Temp\ccnBLHGm.s 			page 42


 812:Generated_Source\PSoC5/CyLib.c ****     else
 813:Generated_Source\PSoC5/CyLib.c ****     {
 814:Generated_Source\PSoC5/CyLib.c ****         CyBusClk_Internal_SetDivider(divider);
 1510              		.loc 1 814 0
 1511 008c FB88     		ldrh	r3, [r7, #6]
 1512 008e 1846     		mov	r0, r3
 1513 0090 FFF7FEFF 		bl	CyBusClk_Internal_SetDivider
 1514              	.L116:
 815:Generated_Source\PSoC5/CyLib.c ****     }
 816:Generated_Source\PSoC5/CyLib.c **** 
 817:Generated_Source\PSoC5/CyLib.c ****     CyExitCriticalSection(interruptState);
 1515              		.loc 1 817 0
 1516 0094 FB7B     		ldrb	r3, [r7, #15]	@ zero_extendqisi2
 1517 0096 1846     		mov	r0, r3
 1518 0098 FFF7FEFF 		bl	CyExitCriticalSection
 818:Generated_Source\PSoC5/CyLib.c **** }
 1519              		.loc 1 818 0
 1520 009c 1037     		adds	r7, r7, #16
 1521              		.cfi_def_cfa_offset 8
 1522 009e BD46     		mov	sp, r7
 1523              		.cfi_def_cfa_register 13
 1524              		@ sp needed
 1525 00a0 80BD     		pop	{r7, pc}
 1526              	.L118:
 1527 00a2 00BF     		.align	2
 1528              	.L117:
 1529 00a4 07400040 		.word	1073758215
 1530 00a8 06400040 		.word	1073758214
 1531 00ac 04400040 		.word	1073758212
 1532 00b0 08400040 		.word	1073758216
 1533              		.cfi_endproc
 1534              	.LFE15:
 1535              		.size	CyBusClk_SetDivider, .-CyBusClk_SetDivider
 1536              		.section	.text.CyUsbClk_SetSource,"ax",%progbits
 1537              		.align	2
 1538              		.global	CyUsbClk_SetSource
 1539              		.thumb
 1540              		.thumb_func
 1541              		.type	CyUsbClk_SetSource, %function
 1542              	CyUsbClk_SetSource:
 1543              	.LFB16:
 819:Generated_Source\PSoC5/CyLib.c **** 
 820:Generated_Source\PSoC5/CyLib.c **** 
 821:Generated_Source\PSoC5/CyLib.c **** #if(CY_PSOC3)
 822:Generated_Source\PSoC5/CyLib.c **** 
 823:Generated_Source\PSoC5/CyLib.c ****     /*******************************************************************************
 824:Generated_Source\PSoC5/CyLib.c ****     * Function Name: CyCpuClk_SetDivider
 825:Generated_Source\PSoC5/CyLib.c ****     ****************************************************************************//**
 826:Generated_Source\PSoC5/CyLib.c ****     *
 827:Generated_Source\PSoC5/CyLib.c ****     *  Sets the divider value used to generate the CPU Clock. Only applicable for
 828:Generated_Source\PSoC5/CyLib.c ****     *  PSoC 3 parts.
 829:Generated_Source\PSoC5/CyLib.c ****     *
 830:Generated_Source\PSoC5/CyLib.c ****     *  \param divider: Valid range [0-15]. The clock will be divided by this value + 1.
 831:Generated_Source\PSoC5/CyLib.c ****     *  For example, to divide this parameter by two should be set to 1.
 832:Generated_Source\PSoC5/CyLib.c ****     *
 833:Generated_Source\PSoC5/CyLib.c ****     * \sideeffect
 834:Generated_Source\PSoC5/CyLib.c ****     *  If this function execution resulted in the CPU clock frequency increasing,
ARM GAS  C:\Users\ben\AppData\Local\Temp\ccnBLHGm.s 			page 43


 835:Generated_Source\PSoC5/CyLib.c ****     *  then the number of clock cycles the cache will wait before it samples data
 836:Generated_Source\PSoC5/CyLib.c ****     *  coming back from the Flash must be adjusted by calling
 837:Generated_Source\PSoC5/CyLib.c ****     *  CyFlash_SetWaitCycles() with an appropriate parameter. It can be optionally
 838:Generated_Source\PSoC5/CyLib.c ****     *  called if the CPU clock frequency is lowered in order to improve the CPU
 839:Generated_Source\PSoC5/CyLib.c ****     *  performance. See CyFlash_SetWaitCycles() description for more information.
 840:Generated_Source\PSoC5/CyLib.c ****     *
 841:Generated_Source\PSoC5/CyLib.c ****     *******************************************************************************/
 842:Generated_Source\PSoC5/CyLib.c ****     void CyCpuClk_SetDivider(uint8 divider) 
 843:Generated_Source\PSoC5/CyLib.c ****     {
 844:Generated_Source\PSoC5/CyLib.c ****             CY_LIB_CLKDIST_MSTR1_REG = (CY_LIB_CLKDIST_MSTR1_REG & CY_LIB_CLKDIST_MSTR1_DIV_MASK) |
 845:Generated_Source\PSoC5/CyLib.c ****                                 ((uint8)(divider << CY_LIB_CLKDIST_DIV_POSITION));
 846:Generated_Source\PSoC5/CyLib.c ****     }
 847:Generated_Source\PSoC5/CyLib.c **** 
 848:Generated_Source\PSoC5/CyLib.c **** #endif /* (CY_PSOC3) */
 849:Generated_Source\PSoC5/CyLib.c **** 
 850:Generated_Source\PSoC5/CyLib.c **** 
 851:Generated_Source\PSoC5/CyLib.c **** /*******************************************************************************
 852:Generated_Source\PSoC5/CyLib.c **** * Function Name: CyUsbClk_SetSource
 853:Generated_Source\PSoC5/CyLib.c **** ****************************************************************************//**
 854:Generated_Source\PSoC5/CyLib.c **** *
 855:Generated_Source\PSoC5/CyLib.c **** *  Sets the source of the USB clock.
 856:Generated_Source\PSoC5/CyLib.c **** *
 857:Generated_Source\PSoC5/CyLib.c **** *  \param source: One of the four available USB clock sources
 858:Generated_Source\PSoC5/CyLib.c **** *    CY_LIB_USB_CLK_IMO2X     - IMO 2x
 859:Generated_Source\PSoC5/CyLib.c **** *    CY_LIB_USB_CLK_IMO       - IMO
 860:Generated_Source\PSoC5/CyLib.c **** *    CY_LIB_USB_CLK_PLL       - PLL
 861:Generated_Source\PSoC5/CyLib.c **** *    CY_LIB_USB_CLK_DSI       - DSI
 862:Generated_Source\PSoC5/CyLib.c **** *
 863:Generated_Source\PSoC5/CyLib.c **** *******************************************************************************/
 864:Generated_Source\PSoC5/CyLib.c **** void CyUsbClk_SetSource(uint8 source) 
 865:Generated_Source\PSoC5/CyLib.c **** {
 1544              		.loc 1 865 0
 1545              		.cfi_startproc
 1546              		@ args = 0, pretend = 0, frame = 8
 1547              		@ frame_needed = 1, uses_anonymous_args = 0
 1548              		@ link register save eliminated.
 1549 0000 80B4     		push	{r7}
 1550              		.cfi_def_cfa_offset 4
 1551              		.cfi_offset 7, -4
 1552 0002 83B0     		sub	sp, sp, #12
 1553              		.cfi_def_cfa_offset 16
 1554 0004 00AF     		add	r7, sp, #0
 1555              		.cfi_def_cfa_register 7
 1556 0006 0346     		mov	r3, r0
 1557 0008 FB71     		strb	r3, [r7, #7]
 866:Generated_Source\PSoC5/CyLib.c ****     CY_LIB_CLKDIST_UCFG_REG = (CY_LIB_CLKDIST_UCFG_REG & ((uint8)(~CY_LIB_CLKDIST_UCFG_SRC_SEL_MASK
 1558              		.loc 1 866 0
 1559 000a 0949     		ldr	r1, .L120
 1560 000c 084B     		ldr	r3, .L120
 1561 000e 1B78     		ldrb	r3, [r3]
 1562 0010 DBB2     		uxtb	r3, r3
 1563 0012 23F00303 		bic	r3, r3, #3
 1564 0016 DAB2     		uxtb	r2, r3
 1565 0018 FB79     		ldrb	r3, [r7, #7]
 1566 001a 03F00303 		and	r3, r3, #3
 1567 001e DBB2     		uxtb	r3, r3
 1568 0020 1343     		orrs	r3, r3, r2
ARM GAS  C:\Users\ben\AppData\Local\Temp\ccnBLHGm.s 			page 44


 1569 0022 DBB2     		uxtb	r3, r3
 1570 0024 0B70     		strb	r3, [r1]
 867:Generated_Source\PSoC5/CyLib.c ****                         (CY_LIB_CLKDIST_UCFG_SRC_SEL_MASK & source);
 868:Generated_Source\PSoC5/CyLib.c **** }
 1571              		.loc 1 868 0
 1572 0026 0C37     		adds	r7, r7, #12
 1573              		.cfi_def_cfa_offset 4
 1574 0028 BD46     		mov	sp, r7
 1575              		.cfi_def_cfa_register 13
 1576              		@ sp needed
 1577 002a 5DF8047B 		ldr	r7, [sp], #4
 1578              		.cfi_restore 7
 1579              		.cfi_def_cfa_offset 0
 1580 002e 7047     		bx	lr
 1581              	.L121:
 1582              		.align	2
 1583              	.L120:
 1584 0030 09400040 		.word	1073758217
 1585              		.cfi_endproc
 1586              	.LFE16:
 1587              		.size	CyUsbClk_SetSource, .-CyUsbClk_SetSource
 1588              		.section	.text.CyILO_Start1K,"ax",%progbits
 1589              		.align	2
 1590              		.global	CyILO_Start1K
 1591              		.thumb
 1592              		.thumb_func
 1593              		.type	CyILO_Start1K, %function
 1594              	CyILO_Start1K:
 1595              	.LFB17:
 869:Generated_Source\PSoC5/CyLib.c **** 
 870:Generated_Source\PSoC5/CyLib.c **** 
 871:Generated_Source\PSoC5/CyLib.c **** /*******************************************************************************
 872:Generated_Source\PSoC5/CyLib.c **** * Function Name: CyILO_Start1K
 873:Generated_Source\PSoC5/CyLib.c **** ****************************************************************************//**
 874:Generated_Source\PSoC5/CyLib.c **** *
 875:Generated_Source\PSoC5/CyLib.c **** *  Enables the ILO 1 KHz oscillator.
 876:Generated_Source\PSoC5/CyLib.c **** *
 877:Generated_Source\PSoC5/CyLib.c **** *  Note The ILO 1 KHz oscillator is always enabled by default, regardless of the
 878:Generated_Source\PSoC5/CyLib.c **** *  selection in the Clock Editor. Therefore, this API is only needed if the
 879:Generated_Source\PSoC5/CyLib.c **** *  oscillator was turned off manually.
 880:Generated_Source\PSoC5/CyLib.c **** *
 881:Generated_Source\PSoC5/CyLib.c **** *******************************************************************************/
 882:Generated_Source\PSoC5/CyLib.c **** void CyILO_Start1K(void) 
 883:Generated_Source\PSoC5/CyLib.c **** {
 1596              		.loc 1 883 0
 1597              		.cfi_startproc
 1598              		@ args = 0, pretend = 0, frame = 0
 1599              		@ frame_needed = 1, uses_anonymous_args = 0
 1600              		@ link register save eliminated.
 1601 0000 80B4     		push	{r7}
 1602              		.cfi_def_cfa_offset 4
 1603              		.cfi_offset 7, -4
 1604 0002 00AF     		add	r7, sp, #0
 1605              		.cfi_def_cfa_register 7
 884:Generated_Source\PSoC5/CyLib.c ****     /* Set bit 1 of ILO RS */
 885:Generated_Source\PSoC5/CyLib.c ****     CY_LIB_SLOWCLK_ILO_CR0_REG |= CY_LIB_SLOWCLK_ILO_CR0_EN_1KHZ;
 1606              		.loc 1 885 0
ARM GAS  C:\Users\ben\AppData\Local\Temp\ccnBLHGm.s 			page 45


 1607 0004 054A     		ldr	r2, .L123
 1608 0006 054B     		ldr	r3, .L123
 1609 0008 1B78     		ldrb	r3, [r3]
 1610 000a DBB2     		uxtb	r3, r3
 1611 000c 43F00203 		orr	r3, r3, #2
 1612 0010 DBB2     		uxtb	r3, r3
 1613 0012 1370     		strb	r3, [r2]
 886:Generated_Source\PSoC5/CyLib.c **** }
 1614              		.loc 1 886 0
 1615 0014 BD46     		mov	sp, r7
 1616              		.cfi_def_cfa_register 13
 1617              		@ sp needed
 1618 0016 5DF8047B 		ldr	r7, [sp], #4
 1619              		.cfi_restore 7
 1620              		.cfi_def_cfa_offset 0
 1621 001a 7047     		bx	lr
 1622              	.L124:
 1623              		.align	2
 1624              	.L123:
 1625 001c 00430040 		.word	1073758976
 1626              		.cfi_endproc
 1627              	.LFE17:
 1628              		.size	CyILO_Start1K, .-CyILO_Start1K
 1629              		.section	.text.CyILO_Stop1K,"ax",%progbits
 1630              		.align	2
 1631              		.global	CyILO_Stop1K
 1632              		.thumb
 1633              		.thumb_func
 1634              		.type	CyILO_Stop1K, %function
 1635              	CyILO_Stop1K:
 1636              	.LFB18:
 887:Generated_Source\PSoC5/CyLib.c **** 
 888:Generated_Source\PSoC5/CyLib.c **** 
 889:Generated_Source\PSoC5/CyLib.c **** /*******************************************************************************
 890:Generated_Source\PSoC5/CyLib.c **** * Function Name: CyILO_Stop1K
 891:Generated_Source\PSoC5/CyLib.c **** ****************************************************************************//**
 892:Generated_Source\PSoC5/CyLib.c **** *
 893:Generated_Source\PSoC5/CyLib.c **** *  Disables the ILO 1 KHz oscillator.
 894:Generated_Source\PSoC5/CyLib.c **** *
 895:Generated_Source\PSoC5/CyLib.c **** *  Note The ILO 1 KHz oscillator must be enabled if the Sleep or Hibernate low
 896:Generated_Source\PSoC5/CyLib.c **** *  power mode APIs are expected to be used. For more information, refer to the
 897:Generated_Source\PSoC5/CyLib.c **** *  Power Management section of this document.
 898:Generated_Source\PSoC5/CyLib.c **** *
 899:Generated_Source\PSoC5/CyLib.c **** * \sideeffect
 900:Generated_Source\PSoC5/CyLib.c **** *  PSoC5: Stopping the ILO 1 kHz could break the active WDT functionality.
 901:Generated_Source\PSoC5/CyLib.c **** *
 902:Generated_Source\PSoC5/CyLib.c **** *******************************************************************************/
 903:Generated_Source\PSoC5/CyLib.c **** void CyILO_Stop1K(void) 
 904:Generated_Source\PSoC5/CyLib.c **** {
 1637              		.loc 1 904 0
 1638              		.cfi_startproc
 1639              		@ args = 0, pretend = 0, frame = 0
 1640              		@ frame_needed = 1, uses_anonymous_args = 0
 1641              		@ link register save eliminated.
 1642 0000 80B4     		push	{r7}
 1643              		.cfi_def_cfa_offset 4
 1644              		.cfi_offset 7, -4
ARM GAS  C:\Users\ben\AppData\Local\Temp\ccnBLHGm.s 			page 46


 1645 0002 00AF     		add	r7, sp, #0
 1646              		.cfi_def_cfa_register 7
 905:Generated_Source\PSoC5/CyLib.c ****     /* Clear bit 1 of ILO RS */
 906:Generated_Source\PSoC5/CyLib.c ****     CY_LIB_SLOWCLK_ILO_CR0_REG &= ((uint8)(~CY_LIB_SLOWCLK_ILO_CR0_EN_1KHZ));
 1647              		.loc 1 906 0
 1648 0004 054A     		ldr	r2, .L126
 1649 0006 054B     		ldr	r3, .L126
 1650 0008 1B78     		ldrb	r3, [r3]
 1651 000a DBB2     		uxtb	r3, r3
 1652 000c 23F00203 		bic	r3, r3, #2
 1653 0010 DBB2     		uxtb	r3, r3
 1654 0012 1370     		strb	r3, [r2]
 907:Generated_Source\PSoC5/CyLib.c **** }
 1655              		.loc 1 907 0
 1656 0014 BD46     		mov	sp, r7
 1657              		.cfi_def_cfa_register 13
 1658              		@ sp needed
 1659 0016 5DF8047B 		ldr	r7, [sp], #4
 1660              		.cfi_restore 7
 1661              		.cfi_def_cfa_offset 0
 1662 001a 7047     		bx	lr
 1663              	.L127:
 1664              		.align	2
 1665              	.L126:
 1666 001c 00430040 		.word	1073758976
 1667              		.cfi_endproc
 1668              	.LFE18:
 1669              		.size	CyILO_Stop1K, .-CyILO_Stop1K
 1670              		.section	.text.CyILO_Start100K,"ax",%progbits
 1671              		.align	2
 1672              		.global	CyILO_Start100K
 1673              		.thumb
 1674              		.thumb_func
 1675              		.type	CyILO_Start100K, %function
 1676              	CyILO_Start100K:
 1677              	.LFB19:
 908:Generated_Source\PSoC5/CyLib.c **** 
 909:Generated_Source\PSoC5/CyLib.c **** 
 910:Generated_Source\PSoC5/CyLib.c **** /*******************************************************************************
 911:Generated_Source\PSoC5/CyLib.c **** * Function Name: CyILO_Start100K
 912:Generated_Source\PSoC5/CyLib.c **** ****************************************************************************//**
 913:Generated_Source\PSoC5/CyLib.c **** *
 914:Generated_Source\PSoC5/CyLib.c **** *  Enables the ILO 100 KHz oscillator.
 915:Generated_Source\PSoC5/CyLib.c **** *
 916:Generated_Source\PSoC5/CyLib.c **** *******************************************************************************/
 917:Generated_Source\PSoC5/CyLib.c **** void CyILO_Start100K(void) 
 918:Generated_Source\PSoC5/CyLib.c **** {
 1678              		.loc 1 918 0
 1679              		.cfi_startproc
 1680              		@ args = 0, pretend = 0, frame = 0
 1681              		@ frame_needed = 1, uses_anonymous_args = 0
 1682              		@ link register save eliminated.
 1683 0000 80B4     		push	{r7}
 1684              		.cfi_def_cfa_offset 4
 1685              		.cfi_offset 7, -4
 1686 0002 00AF     		add	r7, sp, #0
 1687              		.cfi_def_cfa_register 7
ARM GAS  C:\Users\ben\AppData\Local\Temp\ccnBLHGm.s 			page 47


 919:Generated_Source\PSoC5/CyLib.c ****     CY_LIB_SLOWCLK_ILO_CR0_REG |= CY_LIB_SLOWCLK_ILO_CR0_EN_100KHZ;
 1688              		.loc 1 919 0
 1689 0004 054A     		ldr	r2, .L129
 1690 0006 054B     		ldr	r3, .L129
 1691 0008 1B78     		ldrb	r3, [r3]
 1692 000a DBB2     		uxtb	r3, r3
 1693 000c 43F00403 		orr	r3, r3, #4
 1694 0010 DBB2     		uxtb	r3, r3
 1695 0012 1370     		strb	r3, [r2]
 920:Generated_Source\PSoC5/CyLib.c **** }
 1696              		.loc 1 920 0
 1697 0014 BD46     		mov	sp, r7
 1698              		.cfi_def_cfa_register 13
 1699              		@ sp needed
 1700 0016 5DF8047B 		ldr	r7, [sp], #4
 1701              		.cfi_restore 7
 1702              		.cfi_def_cfa_offset 0
 1703 001a 7047     		bx	lr
 1704              	.L130:
 1705              		.align	2
 1706              	.L129:
 1707 001c 00430040 		.word	1073758976
 1708              		.cfi_endproc
 1709              	.LFE19:
 1710              		.size	CyILO_Start100K, .-CyILO_Start100K
 1711              		.section	.text.CyILO_Stop100K,"ax",%progbits
 1712              		.align	2
 1713              		.global	CyILO_Stop100K
 1714              		.thumb
 1715              		.thumb_func
 1716              		.type	CyILO_Stop100K, %function
 1717              	CyILO_Stop100K:
 1718              	.LFB20:
 921:Generated_Source\PSoC5/CyLib.c **** 
 922:Generated_Source\PSoC5/CyLib.c **** 
 923:Generated_Source\PSoC5/CyLib.c **** /*******************************************************************************
 924:Generated_Source\PSoC5/CyLib.c **** * Function Name: CyILO_Stop100K
 925:Generated_Source\PSoC5/CyLib.c **** ****************************************************************************//**
 926:Generated_Source\PSoC5/CyLib.c **** *
 927:Generated_Source\PSoC5/CyLib.c **** *  Disables the ILO 100 KHz oscillator.
 928:Generated_Source\PSoC5/CyLib.c **** *
 929:Generated_Source\PSoC5/CyLib.c **** *******************************************************************************/
 930:Generated_Source\PSoC5/CyLib.c **** void CyILO_Stop100K(void) 
 931:Generated_Source\PSoC5/CyLib.c **** {
 1719              		.loc 1 931 0
 1720              		.cfi_startproc
 1721              		@ args = 0, pretend = 0, frame = 0
 1722              		@ frame_needed = 1, uses_anonymous_args = 0
 1723              		@ link register save eliminated.
 1724 0000 80B4     		push	{r7}
 1725              		.cfi_def_cfa_offset 4
 1726              		.cfi_offset 7, -4
 1727 0002 00AF     		add	r7, sp, #0
 1728              		.cfi_def_cfa_register 7
 932:Generated_Source\PSoC5/CyLib.c ****     CY_LIB_SLOWCLK_ILO_CR0_REG &= ((uint8)(~CY_LIB_SLOWCLK_ILO_CR0_EN_100KHZ));
 1729              		.loc 1 932 0
 1730 0004 054A     		ldr	r2, .L132
ARM GAS  C:\Users\ben\AppData\Local\Temp\ccnBLHGm.s 			page 48


 1731 0006 054B     		ldr	r3, .L132
 1732 0008 1B78     		ldrb	r3, [r3]
 1733 000a DBB2     		uxtb	r3, r3
 1734 000c 23F00403 		bic	r3, r3, #4
 1735 0010 DBB2     		uxtb	r3, r3
 1736 0012 1370     		strb	r3, [r2]
 933:Generated_Source\PSoC5/CyLib.c **** }
 1737              		.loc 1 933 0
 1738 0014 BD46     		mov	sp, r7
 1739              		.cfi_def_cfa_register 13
 1740              		@ sp needed
 1741 0016 5DF8047B 		ldr	r7, [sp], #4
 1742              		.cfi_restore 7
 1743              		.cfi_def_cfa_offset 0
 1744 001a 7047     		bx	lr
 1745              	.L133:
 1746              		.align	2
 1747              	.L132:
 1748 001c 00430040 		.word	1073758976
 1749              		.cfi_endproc
 1750              	.LFE20:
 1751              		.size	CyILO_Stop100K, .-CyILO_Stop100K
 1752              		.section	.text.CyILO_Enable33K,"ax",%progbits
 1753              		.align	2
 1754              		.global	CyILO_Enable33K
 1755              		.thumb
 1756              		.thumb_func
 1757              		.type	CyILO_Enable33K, %function
 1758              	CyILO_Enable33K:
 1759              	.LFB21:
 934:Generated_Source\PSoC5/CyLib.c **** 
 935:Generated_Source\PSoC5/CyLib.c **** 
 936:Generated_Source\PSoC5/CyLib.c **** /*******************************************************************************
 937:Generated_Source\PSoC5/CyLib.c **** * Function Name: CyILO_Enable33K
 938:Generated_Source\PSoC5/CyLib.c **** ****************************************************************************//**
 939:Generated_Source\PSoC5/CyLib.c **** *
 940:Generated_Source\PSoC5/CyLib.c **** *  Enables the ILO 33 KHz divider.
 941:Generated_Source\PSoC5/CyLib.c **** *
 942:Generated_Source\PSoC5/CyLib.c **** *  Note that the 33 KHz clock is generated from the 100 KHz oscillator,
 943:Generated_Source\PSoC5/CyLib.c **** *  so it must also be running in order to generate the 33 KHz output.
 944:Generated_Source\PSoC5/CyLib.c **** *
 945:Generated_Source\PSoC5/CyLib.c **** *******************************************************************************/
 946:Generated_Source\PSoC5/CyLib.c **** void CyILO_Enable33K(void) 
 947:Generated_Source\PSoC5/CyLib.c **** {
 1760              		.loc 1 947 0
 1761              		.cfi_startproc
 1762              		@ args = 0, pretend = 0, frame = 0
 1763              		@ frame_needed = 1, uses_anonymous_args = 0
 1764              		@ link register save eliminated.
 1765 0000 80B4     		push	{r7}
 1766              		.cfi_def_cfa_offset 4
 1767              		.cfi_offset 7, -4
 1768 0002 00AF     		add	r7, sp, #0
 1769              		.cfi_def_cfa_register 7
 948:Generated_Source\PSoC5/CyLib.c ****     /* Set bit 5 of ILO RS */
 949:Generated_Source\PSoC5/CyLib.c ****     CY_LIB_SLOWCLK_ILO_CR0_REG |= CY_LIB_SLOWCLK_ILO_CR0_EN_33KHZ;
 1770              		.loc 1 949 0
ARM GAS  C:\Users\ben\AppData\Local\Temp\ccnBLHGm.s 			page 49


 1771 0004 054A     		ldr	r2, .L135
 1772 0006 054B     		ldr	r3, .L135
 1773 0008 1B78     		ldrb	r3, [r3]
 1774 000a DBB2     		uxtb	r3, r3
 1775 000c 43F02003 		orr	r3, r3, #32
 1776 0010 DBB2     		uxtb	r3, r3
 1777 0012 1370     		strb	r3, [r2]
 950:Generated_Source\PSoC5/CyLib.c **** }
 1778              		.loc 1 950 0
 1779 0014 BD46     		mov	sp, r7
 1780              		.cfi_def_cfa_register 13
 1781              		@ sp needed
 1782 0016 5DF8047B 		ldr	r7, [sp], #4
 1783              		.cfi_restore 7
 1784              		.cfi_def_cfa_offset 0
 1785 001a 7047     		bx	lr
 1786              	.L136:
 1787              		.align	2
 1788              	.L135:
 1789 001c 00430040 		.word	1073758976
 1790              		.cfi_endproc
 1791              	.LFE21:
 1792              		.size	CyILO_Enable33K, .-CyILO_Enable33K
 1793              		.section	.text.CyILO_Disable33K,"ax",%progbits
 1794              		.align	2
 1795              		.global	CyILO_Disable33K
 1796              		.thumb
 1797              		.thumb_func
 1798              		.type	CyILO_Disable33K, %function
 1799              	CyILO_Disable33K:
 1800              	.LFB22:
 951:Generated_Source\PSoC5/CyLib.c **** 
 952:Generated_Source\PSoC5/CyLib.c **** 
 953:Generated_Source\PSoC5/CyLib.c **** /*******************************************************************************
 954:Generated_Source\PSoC5/CyLib.c **** * Function Name: CyILO_Disable33K
 955:Generated_Source\PSoC5/CyLib.c **** ****************************************************************************//**
 956:Generated_Source\PSoC5/CyLib.c **** *
 957:Generated_Source\PSoC5/CyLib.c **** *  Disables the ILO 33 KHz divider.
 958:Generated_Source\PSoC5/CyLib.c **** *
 959:Generated_Source\PSoC5/CyLib.c **** *  Note that the 33 KHz clock is generated from the 100 KHz oscillator, but this
 960:Generated_Source\PSoC5/CyLib.c **** *  API does not disable the 100 KHz clock.
 961:Generated_Source\PSoC5/CyLib.c **** *
 962:Generated_Source\PSoC5/CyLib.c **** *******************************************************************************/
 963:Generated_Source\PSoC5/CyLib.c **** void CyILO_Disable33K(void) 
 964:Generated_Source\PSoC5/CyLib.c **** {
 1801              		.loc 1 964 0
 1802              		.cfi_startproc
 1803              		@ args = 0, pretend = 0, frame = 0
 1804              		@ frame_needed = 1, uses_anonymous_args = 0
 1805              		@ link register save eliminated.
 1806 0000 80B4     		push	{r7}
 1807              		.cfi_def_cfa_offset 4
 1808              		.cfi_offset 7, -4
 1809 0002 00AF     		add	r7, sp, #0
 1810              		.cfi_def_cfa_register 7
 965:Generated_Source\PSoC5/CyLib.c ****     CY_LIB_SLOWCLK_ILO_CR0_REG &= ((uint8)(~CY_LIB_SLOWCLK_ILO_CR0_EN_33KHZ));
 1811              		.loc 1 965 0
ARM GAS  C:\Users\ben\AppData\Local\Temp\ccnBLHGm.s 			page 50


 1812 0004 054A     		ldr	r2, .L138
 1813 0006 054B     		ldr	r3, .L138
 1814 0008 1B78     		ldrb	r3, [r3]
 1815 000a DBB2     		uxtb	r3, r3
 1816 000c 23F02003 		bic	r3, r3, #32
 1817 0010 DBB2     		uxtb	r3, r3
 1818 0012 1370     		strb	r3, [r2]
 966:Generated_Source\PSoC5/CyLib.c **** }
 1819              		.loc 1 966 0
 1820 0014 BD46     		mov	sp, r7
 1821              		.cfi_def_cfa_register 13
 1822              		@ sp needed
 1823 0016 5DF8047B 		ldr	r7, [sp], #4
 1824              		.cfi_restore 7
 1825              		.cfi_def_cfa_offset 0
 1826 001a 7047     		bx	lr
 1827              	.L139:
 1828              		.align	2
 1829              	.L138:
 1830 001c 00430040 		.word	1073758976
 1831              		.cfi_endproc
 1832              	.LFE22:
 1833              		.size	CyILO_Disable33K, .-CyILO_Disable33K
 1834              		.section	.text.CyILO_SetSource,"ax",%progbits
 1835              		.align	2
 1836              		.global	CyILO_SetSource
 1837              		.thumb
 1838              		.thumb_func
 1839              		.type	CyILO_SetSource, %function
 1840              	CyILO_SetSource:
 1841              	.LFB23:
 967:Generated_Source\PSoC5/CyLib.c **** 
 968:Generated_Source\PSoC5/CyLib.c **** 
 969:Generated_Source\PSoC5/CyLib.c **** /*******************************************************************************
 970:Generated_Source\PSoC5/CyLib.c **** * Function Name: CyILO_SetSource
 971:Generated_Source\PSoC5/CyLib.c **** ****************************************************************************//**
 972:Generated_Source\PSoC5/CyLib.c **** *
 973:Generated_Source\PSoC5/CyLib.c **** *  Sets the source of the clock output from the ILO block.
 974:Generated_Source\PSoC5/CyLib.c **** *
 975:Generated_Source\PSoC5/CyLib.c **** *  \param source: One of the three available ILO output sources
 976:Generated_Source\PSoC5/CyLib.c **** *       Value        Define                Source
 977:Generated_Source\PSoC5/CyLib.c **** *       0            CY_ILO_SOURCE_100K    ILO 100 KHz
 978:Generated_Source\PSoC5/CyLib.c **** *       1            CY_ILO_SOURCE_33K     ILO 33 KHz
 979:Generated_Source\PSoC5/CyLib.c **** *       2            CY_ILO_SOURCE_1K      ILO 1 KHz
 980:Generated_Source\PSoC5/CyLib.c **** *
 981:Generated_Source\PSoC5/CyLib.c **** *******************************************************************************/
 982:Generated_Source\PSoC5/CyLib.c **** void CyILO_SetSource(uint8 source) 
 983:Generated_Source\PSoC5/CyLib.c **** {
 1842              		.loc 1 983 0
 1843              		.cfi_startproc
 1844              		@ args = 0, pretend = 0, frame = 8
 1845              		@ frame_needed = 1, uses_anonymous_args = 0
 1846              		@ link register save eliminated.
 1847 0000 80B4     		push	{r7}
 1848              		.cfi_def_cfa_offset 4
 1849              		.cfi_offset 7, -4
 1850 0002 83B0     		sub	sp, sp, #12
ARM GAS  C:\Users\ben\AppData\Local\Temp\ccnBLHGm.s 			page 51


 1851              		.cfi_def_cfa_offset 16
 1852 0004 00AF     		add	r7, sp, #0
 1853              		.cfi_def_cfa_register 7
 1854 0006 0346     		mov	r3, r0
 1855 0008 FB71     		strb	r3, [r7, #7]
 984:Generated_Source\PSoC5/CyLib.c ****     CY_LIB_CLKDIST_CR_REG = (CY_LIB_CLKDIST_CR_REG & CY_ILO_SOURCE_BITS_CLEAR) |
 1856              		.loc 1 984 0
 1857 000a 4FF04021 		mov	r1, #1073758208
 1858 000e 4FF04023 		mov	r3, #1073758208
 1859 0012 1B78     		ldrb	r3, [r3]
 1860 0014 DBB2     		uxtb	r3, r3
 1861 0016 23F00C03 		bic	r3, r3, #12
 1862 001a DAB2     		uxtb	r2, r3
 985:Generated_Source\PSoC5/CyLib.c ****                     (((uint8) (source << 2u)) & ((uint8)(~CY_ILO_SOURCE_BITS_CLEAR)));
 1863              		.loc 1 985 0
 1864 001c FB79     		ldrb	r3, [r7, #7]
 1865 001e 9B00     		lsls	r3, r3, #2
 1866 0020 DBB2     		uxtb	r3, r3
 984:Generated_Source\PSoC5/CyLib.c ****     CY_LIB_CLKDIST_CR_REG = (CY_LIB_CLKDIST_CR_REG & CY_ILO_SOURCE_BITS_CLEAR) |
 1867              		.loc 1 984 0
 1868 0022 03F00C03 		and	r3, r3, #12
 1869 0026 DBB2     		uxtb	r3, r3
 1870 0028 1343     		orrs	r3, r3, r2
 1871 002a DBB2     		uxtb	r3, r3
 1872 002c 0B70     		strb	r3, [r1]
 986:Generated_Source\PSoC5/CyLib.c **** }
 1873              		.loc 1 986 0
 1874 002e 0C37     		adds	r7, r7, #12
 1875              		.cfi_def_cfa_offset 4
 1876 0030 BD46     		mov	sp, r7
 1877              		.cfi_def_cfa_register 13
 1878              		@ sp needed
 1879 0032 5DF8047B 		ldr	r7, [sp], #4
 1880              		.cfi_restore 7
 1881              		.cfi_def_cfa_offset 0
 1882 0036 7047     		bx	lr
 1883              		.cfi_endproc
 1884              	.LFE23:
 1885              		.size	CyILO_SetSource, .-CyILO_SetSource
 1886              		.section	.text.CyILO_SetPowerMode,"ax",%progbits
 1887              		.align	2
 1888              		.global	CyILO_SetPowerMode
 1889              		.thumb
 1890              		.thumb_func
 1891              		.type	CyILO_SetPowerMode, %function
 1892              	CyILO_SetPowerMode:
 1893              	.LFB24:
 987:Generated_Source\PSoC5/CyLib.c **** 
 988:Generated_Source\PSoC5/CyLib.c **** 
 989:Generated_Source\PSoC5/CyLib.c **** /*******************************************************************************
 990:Generated_Source\PSoC5/CyLib.c **** * Function Name: CyILO_SetPowerMode
 991:Generated_Source\PSoC5/CyLib.c **** ****************************************************************************//**
 992:Generated_Source\PSoC5/CyLib.c **** *
 993:Generated_Source\PSoC5/CyLib.c **** * Sets the power mode used by the ILO during power down. Allows for lower power
 994:Generated_Source\PSoC5/CyLib.c **** * down power usage resulting in a slower startup time.
 995:Generated_Source\PSoC5/CyLib.c **** *
 996:Generated_Source\PSoC5/CyLib.c **** * \param mode
ARM GAS  C:\Users\ben\AppData\Local\Temp\ccnBLHGm.s 			page 52


 997:Generated_Source\PSoC5/CyLib.c **** * CY_ILO_FAST_START - Faster start-up, internal bias left on when powered down
 998:Generated_Source\PSoC5/CyLib.c **** * CY_ILO_SLOW_START - Slower start-up, internal bias off when powered down
 999:Generated_Source\PSoC5/CyLib.c **** *
1000:Generated_Source\PSoC5/CyLib.c **** * \return Prevous power mode state.
1001:Generated_Source\PSoC5/CyLib.c **** *
1002:Generated_Source\PSoC5/CyLib.c **** *******************************************************************************/
1003:Generated_Source\PSoC5/CyLib.c **** uint8 CyILO_SetPowerMode(uint8 mode) 
1004:Generated_Source\PSoC5/CyLib.c **** {
 1894              		.loc 1 1004 0
 1895              		.cfi_startproc
 1896              		@ args = 0, pretend = 0, frame = 16
 1897              		@ frame_needed = 1, uses_anonymous_args = 0
 1898              		@ link register save eliminated.
 1899 0000 80B4     		push	{r7}
 1900              		.cfi_def_cfa_offset 4
 1901              		.cfi_offset 7, -4
 1902 0002 85B0     		sub	sp, sp, #20
 1903              		.cfi_def_cfa_offset 24
 1904 0004 00AF     		add	r7, sp, #0
 1905              		.cfi_def_cfa_register 7
 1906 0006 0346     		mov	r3, r0
 1907 0008 FB71     		strb	r3, [r7, #7]
1005:Generated_Source\PSoC5/CyLib.c ****     uint8 state;
1006:Generated_Source\PSoC5/CyLib.c **** 
1007:Generated_Source\PSoC5/CyLib.c ****     /* Get current state. */
1008:Generated_Source\PSoC5/CyLib.c ****     state = CY_LIB_SLOWCLK_ILO_CR0_REG;
 1908              		.loc 1 1008 0
 1909 000a 0F4B     		ldr	r3, .L145
 1910 000c 1B78     		ldrb	r3, [r3]
 1911 000e FB73     		strb	r3, [r7, #15]
1009:Generated_Source\PSoC5/CyLib.c **** 
1010:Generated_Source\PSoC5/CyLib.c ****     /* Set the oscillator power mode. */
1011:Generated_Source\PSoC5/CyLib.c ****     if(mode != CY_ILO_FAST_START)
 1912              		.loc 1 1011 0
 1913 0010 FB79     		ldrb	r3, [r7, #7]	@ zero_extendqisi2
 1914 0012 002B     		cmp	r3, #0
 1915 0014 06D0     		beq	.L142
1012:Generated_Source\PSoC5/CyLib.c ****     {
1013:Generated_Source\PSoC5/CyLib.c ****         CY_LIB_SLOWCLK_ILO_CR0_REG = (state | CY_ILO_CONTROL_PD_MODE);
 1916              		.loc 1 1013 0
 1917 0016 0C4A     		ldr	r2, .L145
 1918 0018 FB7B     		ldrb	r3, [r7, #15]
 1919 001a 43F01003 		orr	r3, r3, #16
 1920 001e DBB2     		uxtb	r3, r3
 1921 0020 1370     		strb	r3, [r2]
 1922 0022 05E0     		b	.L143
 1923              	.L142:
1014:Generated_Source\PSoC5/CyLib.c ****     }
1015:Generated_Source\PSoC5/CyLib.c ****     else
1016:Generated_Source\PSoC5/CyLib.c ****     {
1017:Generated_Source\PSoC5/CyLib.c ****         CY_LIB_SLOWCLK_ILO_CR0_REG = (state & ((uint8)(~CY_ILO_CONTROL_PD_MODE)));
 1924              		.loc 1 1017 0
 1925 0024 084A     		ldr	r2, .L145
 1926 0026 FB7B     		ldrb	r3, [r7, #15]
 1927 0028 23F01003 		bic	r3, r3, #16
 1928 002c DBB2     		uxtb	r3, r3
 1929 002e 1370     		strb	r3, [r2]
ARM GAS  C:\Users\ben\AppData\Local\Temp\ccnBLHGm.s 			page 53


 1930              	.L143:
1018:Generated_Source\PSoC5/CyLib.c ****     }
1019:Generated_Source\PSoC5/CyLib.c **** 
1020:Generated_Source\PSoC5/CyLib.c ****     /* Return old mode. */
1021:Generated_Source\PSoC5/CyLib.c ****     return ((state & CY_ILO_CONTROL_PD_MODE) >> CY_ILO_CONTROL_PD_POSITION);
 1931              		.loc 1 1021 0
 1932 0030 FB7B     		ldrb	r3, [r7, #15]	@ zero_extendqisi2
 1933 0032 03F01003 		and	r3, r3, #16
 1934 0036 1B09     		lsrs	r3, r3, #4
 1935 0038 DBB2     		uxtb	r3, r3
1022:Generated_Source\PSoC5/CyLib.c **** }
 1936              		.loc 1 1022 0
 1937 003a 1846     		mov	r0, r3
 1938 003c 1437     		adds	r7, r7, #20
 1939              		.cfi_def_cfa_offset 4
 1940 003e BD46     		mov	sp, r7
 1941              		.cfi_def_cfa_register 13
 1942              		@ sp needed
 1943 0040 5DF8047B 		ldr	r7, [sp], #4
 1944              		.cfi_restore 7
 1945              		.cfi_def_cfa_offset 0
 1946 0044 7047     		bx	lr
 1947              	.L146:
 1948 0046 00BF     		.align	2
 1949              	.L145:
 1950 0048 00430040 		.word	1073758976
 1951              		.cfi_endproc
 1952              	.LFE24:
 1953              		.size	CyILO_SetPowerMode, .-CyILO_SetPowerMode
 1954              		.section	.text.CyXTAL_32KHZ_Start,"ax",%progbits
 1955              		.align	2
 1956              		.global	CyXTAL_32KHZ_Start
 1957              		.thumb
 1958              		.thumb_func
 1959              		.type	CyXTAL_32KHZ_Start, %function
 1960              	CyXTAL_32KHZ_Start:
 1961              	.LFB25:
1023:Generated_Source\PSoC5/CyLib.c **** 
1024:Generated_Source\PSoC5/CyLib.c **** 
1025:Generated_Source\PSoC5/CyLib.c **** /*******************************************************************************
1026:Generated_Source\PSoC5/CyLib.c **** * Function Name: CyXTAL_32KHZ_Start
1027:Generated_Source\PSoC5/CyLib.c **** ****************************************************************************//**
1028:Generated_Source\PSoC5/CyLib.c **** *
1029:Generated_Source\PSoC5/CyLib.c **** *  Enables the 32 KHz Crystal Oscillator.
1030:Generated_Source\PSoC5/CyLib.c **** *
1031:Generated_Source\PSoC5/CyLib.c **** *******************************************************************************/
1032:Generated_Source\PSoC5/CyLib.c **** void CyXTAL_32KHZ_Start(void) 
1033:Generated_Source\PSoC5/CyLib.c **** {
 1962              		.loc 1 1033 0
 1963              		.cfi_startproc
 1964              		@ args = 0, pretend = 0, frame = 8
 1965              		@ frame_needed = 1, uses_anonymous_args = 0
 1966 0000 80B5     		push	{r7, lr}
 1967              		.cfi_def_cfa_offset 8
 1968              		.cfi_offset 7, -8
 1969              		.cfi_offset 14, -4
 1970 0002 82B0     		sub	sp, sp, #8
ARM GAS  C:\Users\ben\AppData\Local\Temp\ccnBLHGm.s 			page 54


 1971              		.cfi_def_cfa_offset 16
 1972 0004 00AF     		add	r7, sp, #0
 1973              		.cfi_def_cfa_register 7
1034:Generated_Source\PSoC5/CyLib.c ****     volatile uint16 i;
1035:Generated_Source\PSoC5/CyLib.c **** 
1036:Generated_Source\PSoC5/CyLib.c ****     CY_CLK_XTAL32_TST_REG = CY_CLK_XTAL32_TST_DEFAULT;
 1974              		.loc 1 1036 0
 1975 0006 1B4B     		ldr	r3, .L152
 1976 0008 F322     		movs	r2, #243
 1977 000a 1A70     		strb	r2, [r3]
1037:Generated_Source\PSoC5/CyLib.c ****     CY_CLK_XTAL32_TR_REG  = CY_CLK_XTAL32_TR_STARTUP;
 1978              		.loc 1 1037 0
 1979 000c 1A4B     		ldr	r3, .L152+4
 1980 000e 0322     		movs	r2, #3
 1981 0010 1A70     		strb	r2, [r3]
1038:Generated_Source\PSoC5/CyLib.c ****     CY_CLK_XTAL32_CFG_REG = (CY_CLK_XTAL32_CFG_REG & ((uint8)(~CY_CLK_XTAL32_CFG_LP_MASK))) |
 1982              		.loc 1 1038 0
 1983 0012 1A4A     		ldr	r2, .L152+8
 1984 0014 194B     		ldr	r3, .L152+8
 1985 0016 1B78     		ldrb	r3, [r3]
 1986 0018 DBB2     		uxtb	r3, r3
 1987 001a 23F00C03 		bic	r3, r3, #12
 1988 001e DBB2     		uxtb	r3, r3
 1989 0020 43F00403 		orr	r3, r3, #4
 1990 0024 DBB2     		uxtb	r3, r3
 1991 0026 1370     		strb	r3, [r2]
1039:Generated_Source\PSoC5/CyLib.c ****                                 CY_CLK_XTAL32_CFG_LP_DEFAULT;
1040:Generated_Source\PSoC5/CyLib.c **** 
1041:Generated_Source\PSoC5/CyLib.c ****     #if(CY_PSOC3)
1042:Generated_Source\PSoC5/CyLib.c ****         CY_CLK_XTAL32_CR_REG |= CY_CLK_XTAL32_CR_PDBEN;
1043:Generated_Source\PSoC5/CyLib.c ****     #endif  /* (CY_PSOC3) */
1044:Generated_Source\PSoC5/CyLib.c **** 
1045:Generated_Source\PSoC5/CyLib.c ****     /* Enable operation of 32K Crystal Oscillator */
1046:Generated_Source\PSoC5/CyLib.c ****     CY_CLK_XTAL32_CR_REG |= CY_CLK_XTAL32_CR_EN;
 1992              		.loc 1 1046 0
 1993 0028 154A     		ldr	r2, .L152+12
 1994 002a 154B     		ldr	r3, .L152+12
 1995 002c 1B78     		ldrb	r3, [r3]
 1996 002e DBB2     		uxtb	r3, r3
 1997 0030 43F00103 		orr	r3, r3, #1
 1998 0034 DBB2     		uxtb	r3, r3
 1999 0036 1370     		strb	r3, [r2]
1047:Generated_Source\PSoC5/CyLib.c **** 
1048:Generated_Source\PSoC5/CyLib.c ****     for (i = 1000u; i > 0u; i--)
 2000              		.loc 1 1048 0
 2001 0038 4FF47A73 		mov	r3, #1000
 2002 003c FB80     		strh	r3, [r7, #6]	@ movhi
 2003 003e 12E0     		b	.L148
 2004              	.L151:
1049:Generated_Source\PSoC5/CyLib.c ****     {
1050:Generated_Source\PSoC5/CyLib.c ****         if(0u != (CyXTAL_32KHZ_ReadStatus() & CY_XTAL32K_ANA_STAT))
 2005              		.loc 1 1050 0
 2006 0040 FFF7FEFF 		bl	CyXTAL_32KHZ_ReadStatus
 2007 0044 0346     		mov	r3, r0
 2008 0046 03F02003 		and	r3, r3, #32
 2009 004a 002B     		cmp	r3, #0
 2010 004c 03D0     		beq	.L149
ARM GAS  C:\Users\ben\AppData\Local\Temp\ccnBLHGm.s 			page 55


1051:Generated_Source\PSoC5/CyLib.c ****         {
1052:Generated_Source\PSoC5/CyLib.c ****             /* Ready - switch to high power mode */
1053:Generated_Source\PSoC5/CyLib.c ****             (void) CyXTAL_32KHZ_SetPowerMode(0u);
 2011              		.loc 1 1053 0
 2012 004e 0020     		movs	r0, #0
 2013 0050 FFF7FEFF 		bl	CyXTAL_32KHZ_SetPowerMode
1054:Generated_Source\PSoC5/CyLib.c **** 
1055:Generated_Source\PSoC5/CyLib.c ****             break;
 2014              		.loc 1 1055 0
 2015 0054 0BE0     		b	.L147
 2016              	.L149:
1056:Generated_Source\PSoC5/CyLib.c ****         }
1057:Generated_Source\PSoC5/CyLib.c ****         CyDelayUs(1u);
 2017              		.loc 1 1057 0 discriminator 2
 2018 0056 0120     		movs	r0, #1
 2019 0058 FFF7FEFF 		bl	CyDelayUs
1048:Generated_Source\PSoC5/CyLib.c ****     {
 2020              		.loc 1 1048 0 discriminator 2
 2021 005c FB88     		ldrh	r3, [r7, #6]	@ movhi
 2022 005e 9BB2     		uxth	r3, r3
 2023 0060 013B     		subs	r3, r3, #1
 2024 0062 9BB2     		uxth	r3, r3
 2025 0064 FB80     		strh	r3, [r7, #6]	@ movhi
 2026              	.L148:
1048:Generated_Source\PSoC5/CyLib.c ****     {
 2027              		.loc 1 1048 0 is_stmt 0 discriminator 1
 2028 0066 FB88     		ldrh	r3, [r7, #6]	@ movhi
 2029 0068 9BB2     		uxth	r3, r3
 2030 006a 002B     		cmp	r3, #0
 2031 006c E8D1     		bne	.L151
 2032              	.L147:
1058:Generated_Source\PSoC5/CyLib.c ****     }
1059:Generated_Source\PSoC5/CyLib.c **** }
 2033              		.loc 1 1059 0 is_stmt 1
 2034 006e 0837     		adds	r7, r7, #8
 2035              		.cfi_def_cfa_offset 8
 2036 0070 BD46     		mov	sp, r7
 2037              		.cfi_def_cfa_register 13
 2038              		@ sp needed
 2039 0072 80BD     		pop	{r7, pc}
 2040              	.L153:
 2041              		.align	2
 2042              	.L152:
 2043 0074 0A430040 		.word	1073758986
 2044 0078 98460040 		.word	1073759896
 2045 007c 09430040 		.word	1073758985
 2046 0080 08430040 		.word	1073758984
 2047              		.cfi_endproc
 2048              	.LFE25:
 2049              		.size	CyXTAL_32KHZ_Start, .-CyXTAL_32KHZ_Start
 2050              		.section	.text.CyXTAL_32KHZ_Stop,"ax",%progbits
 2051              		.align	2
 2052              		.global	CyXTAL_32KHZ_Stop
 2053              		.thumb
 2054              		.thumb_func
 2055              		.type	CyXTAL_32KHZ_Stop, %function
 2056              	CyXTAL_32KHZ_Stop:
ARM GAS  C:\Users\ben\AppData\Local\Temp\ccnBLHGm.s 			page 56


 2057              	.LFB26:
1060:Generated_Source\PSoC5/CyLib.c **** 
1061:Generated_Source\PSoC5/CyLib.c **** 
1062:Generated_Source\PSoC5/CyLib.c **** /*******************************************************************************
1063:Generated_Source\PSoC5/CyLib.c **** * Function Name: CyXTAL_32KHZ_Stop
1064:Generated_Source\PSoC5/CyLib.c **** ****************************************************************************//**
1065:Generated_Source\PSoC5/CyLib.c **** *
1066:Generated_Source\PSoC5/CyLib.c **** *  Disables the 32KHz Crystal Oscillator.
1067:Generated_Source\PSoC5/CyLib.c **** *
1068:Generated_Source\PSoC5/CyLib.c **** *******************************************************************************/
1069:Generated_Source\PSoC5/CyLib.c **** void CyXTAL_32KHZ_Stop(void) 
1070:Generated_Source\PSoC5/CyLib.c **** {
 2058              		.loc 1 1070 0
 2059              		.cfi_startproc
 2060              		@ args = 0, pretend = 0, frame = 0
 2061              		@ frame_needed = 1, uses_anonymous_args = 0
 2062              		@ link register save eliminated.
 2063 0000 80B4     		push	{r7}
 2064              		.cfi_def_cfa_offset 4
 2065              		.cfi_offset 7, -4
 2066 0002 00AF     		add	r7, sp, #0
 2067              		.cfi_def_cfa_register 7
1071:Generated_Source\PSoC5/CyLib.c ****     CY_CLK_XTAL32_TST_REG  = CY_CLK_XTAL32_TST_DEFAULT;
 2068              		.loc 1 1071 0
 2069 0004 0E4B     		ldr	r3, .L155
 2070 0006 F322     		movs	r2, #243
 2071 0008 1A70     		strb	r2, [r3]
1072:Generated_Source\PSoC5/CyLib.c ****     CY_CLK_XTAL32_TR_REG   = CY_CLK_XTAL32_TR_POWERDOWN;
 2072              		.loc 1 1072 0
 2073 000a 0E4B     		ldr	r3, .L155+4
 2074 000c 0022     		movs	r2, #0
 2075 000e 1A70     		strb	r2, [r3]
1073:Generated_Source\PSoC5/CyLib.c ****     CY_CLK_XTAL32_CFG_REG = (CY_CLK_XTAL32_CFG_REG & ((uint8)(~CY_CLK_XTAL32_CFG_LP_MASK))) |
 2076              		.loc 1 1073 0
 2077 0010 0D4A     		ldr	r2, .L155+8
 2078 0012 0D4B     		ldr	r3, .L155+8
 2079 0014 1B78     		ldrb	r3, [r3]
 2080 0016 DBB2     		uxtb	r3, r3
 2081 0018 23F00C03 		bic	r3, r3, #12
 2082 001c DBB2     		uxtb	r3, r3
 2083 001e 43F00403 		orr	r3, r3, #4
 2084 0022 DBB2     		uxtb	r3, r3
 2085 0024 1370     		strb	r3, [r2]
1074:Generated_Source\PSoC5/CyLib.c ****                              CY_CLK_XTAL32_CFG_LP_DEFAULT;
1075:Generated_Source\PSoC5/CyLib.c ****     CY_CLK_XTAL32_CR_REG &= ((uint8)(~(CY_CLK_XTAL32_CR_EN | CY_CLK_XTAL32_CR_LPM)));
 2086              		.loc 1 1075 0
 2087 0026 094A     		ldr	r2, .L155+12
 2088 0028 084B     		ldr	r3, .L155+12
 2089 002a 1B78     		ldrb	r3, [r3]
 2090 002c DBB2     		uxtb	r3, r3
 2091 002e 23F00303 		bic	r3, r3, #3
 2092 0032 DBB2     		uxtb	r3, r3
 2093 0034 1370     		strb	r3, [r2]
1076:Generated_Source\PSoC5/CyLib.c **** 
1077:Generated_Source\PSoC5/CyLib.c ****     #if(CY_PSOC3)
1078:Generated_Source\PSoC5/CyLib.c ****         CY_CLK_XTAL32_CR_REG &= ((uint8)(~CY_CLK_XTAL32_CR_PDBEN));
1079:Generated_Source\PSoC5/CyLib.c ****     #endif  /* (CY_PSOC3) */
ARM GAS  C:\Users\ben\AppData\Local\Temp\ccnBLHGm.s 			page 57


1080:Generated_Source\PSoC5/CyLib.c **** }
 2094              		.loc 1 1080 0
 2095 0036 BD46     		mov	sp, r7
 2096              		.cfi_def_cfa_register 13
 2097              		@ sp needed
 2098 0038 5DF8047B 		ldr	r7, [sp], #4
 2099              		.cfi_restore 7
 2100              		.cfi_def_cfa_offset 0
 2101 003c 7047     		bx	lr
 2102              	.L156:
 2103 003e 00BF     		.align	2
 2104              	.L155:
 2105 0040 0A430040 		.word	1073758986
 2106 0044 98460040 		.word	1073759896
 2107 0048 09430040 		.word	1073758985
 2108 004c 08430040 		.word	1073758984
 2109              		.cfi_endproc
 2110              	.LFE26:
 2111              		.size	CyXTAL_32KHZ_Stop, .-CyXTAL_32KHZ_Stop
 2112              		.section	.text.CyXTAL_32KHZ_ReadStatus,"ax",%progbits
 2113              		.align	2
 2114              		.global	CyXTAL_32KHZ_ReadStatus
 2115              		.thumb
 2116              		.thumb_func
 2117              		.type	CyXTAL_32KHZ_ReadStatus, %function
 2118              	CyXTAL_32KHZ_ReadStatus:
 2119              	.LFB27:
1081:Generated_Source\PSoC5/CyLib.c **** 
1082:Generated_Source\PSoC5/CyLib.c **** 
1083:Generated_Source\PSoC5/CyLib.c **** /*******************************************************************************
1084:Generated_Source\PSoC5/CyLib.c **** * Function Name: CyXTAL_32KHZ_ReadStatus
1085:Generated_Source\PSoC5/CyLib.c **** ****************************************************************************//**
1086:Generated_Source\PSoC5/CyLib.c **** *
1087:Generated_Source\PSoC5/CyLib.c **** *  Returns status of the 32 KHz oscillator.
1088:Generated_Source\PSoC5/CyLib.c **** *
1089:Generated_Source\PSoC5/CyLib.c **** * \return
1090:Generated_Source\PSoC5/CyLib.c **** *  Value     Define                    Source
1091:Generated_Source\PSoC5/CyLib.c **** *  20        CY_XTAL32K_ANA_STAT       Analog measurement
1092:Generated_Source\PSoC5/CyLib.c **** *                                       1: Stable
1093:Generated_Source\PSoC5/CyLib.c **** *                                       0: Not stable
1094:Generated_Source\PSoC5/CyLib.c **** *
1095:Generated_Source\PSoC5/CyLib.c **** *******************************************************************************/
1096:Generated_Source\PSoC5/CyLib.c **** uint8 CyXTAL_32KHZ_ReadStatus(void) 
1097:Generated_Source\PSoC5/CyLib.c **** {
 2120              		.loc 1 1097 0
 2121              		.cfi_startproc
 2122              		@ args = 0, pretend = 0, frame = 0
 2123              		@ frame_needed = 1, uses_anonymous_args = 0
 2124              		@ link register save eliminated.
 2125 0000 80B4     		push	{r7}
 2126              		.cfi_def_cfa_offset 4
 2127              		.cfi_offset 7, -4
 2128 0002 00AF     		add	r7, sp, #0
 2129              		.cfi_def_cfa_register 7
1098:Generated_Source\PSoC5/CyLib.c ****     return(CY_CLK_XTAL32_CR_REG & CY_XTAL32K_ANA_STAT);
 2130              		.loc 1 1098 0
 2131 0004 054B     		ldr	r3, .L159
ARM GAS  C:\Users\ben\AppData\Local\Temp\ccnBLHGm.s 			page 58


 2132 0006 1B78     		ldrb	r3, [r3]
 2133 0008 DBB2     		uxtb	r3, r3
 2134 000a 03F02003 		and	r3, r3, #32
 2135 000e DBB2     		uxtb	r3, r3
1099:Generated_Source\PSoC5/CyLib.c **** }
 2136              		.loc 1 1099 0
 2137 0010 1846     		mov	r0, r3
 2138 0012 BD46     		mov	sp, r7
 2139              		.cfi_def_cfa_register 13
 2140              		@ sp needed
 2141 0014 5DF8047B 		ldr	r7, [sp], #4
 2142              		.cfi_restore 7
 2143              		.cfi_def_cfa_offset 0
 2144 0018 7047     		bx	lr
 2145              	.L160:
 2146 001a 00BF     		.align	2
 2147              	.L159:
 2148 001c 08430040 		.word	1073758984
 2149              		.cfi_endproc
 2150              	.LFE27:
 2151              		.size	CyXTAL_32KHZ_ReadStatus, .-CyXTAL_32KHZ_ReadStatus
 2152              		.section	.text.CyXTAL_32KHZ_SetPowerMode,"ax",%progbits
 2153              		.align	2
 2154              		.global	CyXTAL_32KHZ_SetPowerMode
 2155              		.thumb
 2156              		.thumb_func
 2157              		.type	CyXTAL_32KHZ_SetPowerMode, %function
 2158              	CyXTAL_32KHZ_SetPowerMode:
 2159              	.LFB28:
1100:Generated_Source\PSoC5/CyLib.c **** 
1101:Generated_Source\PSoC5/CyLib.c **** 
1102:Generated_Source\PSoC5/CyLib.c **** /*******************************************************************************
1103:Generated_Source\PSoC5/CyLib.c **** * Function Name: CyXTAL_32KHZ_SetPowerMode
1104:Generated_Source\PSoC5/CyLib.c **** ****************************************************************************//**
1105:Generated_Source\PSoC5/CyLib.c **** *
1106:Generated_Source\PSoC5/CyLib.c **** *  Sets the power mode for the 32 KHz oscillator used during the sleep mode.
1107:Generated_Source\PSoC5/CyLib.c **** *  Allows for lower power during sleep when there are fewer sources of noise.
1108:Generated_Source\PSoC5/CyLib.c **** *  During the active mode the oscillator is always run in the high power mode.
1109:Generated_Source\PSoC5/CyLib.c **** *
1110:Generated_Source\PSoC5/CyLib.c **** *  uint8 mode
1111:Generated_Source\PSoC5/CyLib.c **** *       \param 0: High power mode
1112:Generated_Source\PSoC5/CyLib.c **** *       \param 1: Low power mode during sleep
1113:Generated_Source\PSoC5/CyLib.c **** *
1114:Generated_Source\PSoC5/CyLib.c **** * \return
1115:Generated_Source\PSoC5/CyLib.c **** *  Previous power mode.
1116:Generated_Source\PSoC5/CyLib.c **** *
1117:Generated_Source\PSoC5/CyLib.c **** *******************************************************************************/
1118:Generated_Source\PSoC5/CyLib.c **** uint8 CyXTAL_32KHZ_SetPowerMode(uint8 mode) 
1119:Generated_Source\PSoC5/CyLib.c **** {
 2160              		.loc 1 1119 0
 2161              		.cfi_startproc
 2162              		@ args = 0, pretend = 0, frame = 16
 2163              		@ frame_needed = 1, uses_anonymous_args = 0
 2164 0000 80B5     		push	{r7, lr}
 2165              		.cfi_def_cfa_offset 8
 2166              		.cfi_offset 7, -8
 2167              		.cfi_offset 14, -4
ARM GAS  C:\Users\ben\AppData\Local\Temp\ccnBLHGm.s 			page 59


 2168 0002 84B0     		sub	sp, sp, #16
 2169              		.cfi_def_cfa_offset 24
 2170 0004 00AF     		add	r7, sp, #0
 2171              		.cfi_def_cfa_register 7
 2172 0006 0346     		mov	r3, r0
 2173 0008 FB71     		strb	r3, [r7, #7]
1120:Generated_Source\PSoC5/CyLib.c ****     uint8 state = (0u != (CY_CLK_XTAL32_CR_REG & CY_CLK_XTAL32_CR_LPM)) ? 1u : 0u;
 2174              		.loc 1 1120 0
 2175 000a 264B     		ldr	r3, .L167
 2176 000c 1B78     		ldrb	r3, [r3]
 2177 000e DBB2     		uxtb	r3, r3
 2178 0010 03F00203 		and	r3, r3, #2
 2179 0014 002B     		cmp	r3, #0
 2180 0016 01D0     		beq	.L162
 2181              		.loc 1 1120 0 is_stmt 0 discriminator 1
 2182 0018 0123     		movs	r3, #1
 2183 001a 00E0     		b	.L163
 2184              	.L162:
 2185              		.loc 1 1120 0 discriminator 2
 2186 001c 0023     		movs	r3, #0
 2187              	.L163:
 2188              		.loc 1 1120 0 discriminator 4
 2189 001e FB73     		strb	r3, [r7, #15]
1121:Generated_Source\PSoC5/CyLib.c **** 
1122:Generated_Source\PSoC5/CyLib.c ****     CY_CLK_XTAL32_TST_REG = CY_CLK_XTAL32_TST_DEFAULT;
 2190              		.loc 1 1122 0 is_stmt 1 discriminator 4
 2191 0020 214B     		ldr	r3, .L167+4
 2192 0022 F322     		movs	r2, #243
 2193 0024 1A70     		strb	r2, [r3]
1123:Generated_Source\PSoC5/CyLib.c **** 
1124:Generated_Source\PSoC5/CyLib.c ****     if(1u == mode)
 2194              		.loc 1 1124 0 discriminator 4
 2195 0026 FB79     		ldrb	r3, [r7, #7]	@ zero_extendqisi2
 2196 0028 012B     		cmp	r3, #1
 2197 002a 1CD1     		bne	.L164
1125:Generated_Source\PSoC5/CyLib.c ****     {
1126:Generated_Source\PSoC5/CyLib.c ****         /* Low power mode during Sleep */
1127:Generated_Source\PSoC5/CyLib.c ****         CY_CLK_XTAL32_TR_REG  = CY_CLK_XTAL32_TR_LOW_POWER;
 2198              		.loc 1 1127 0
 2199 002c 1F4B     		ldr	r3, .L167+8
 2200 002e 0122     		movs	r2, #1
 2201 0030 1A70     		strb	r2, [r3]
1128:Generated_Source\PSoC5/CyLib.c ****         CyDelayUs(10u);
 2202              		.loc 1 1128 0
 2203 0032 0A20     		movs	r0, #10
 2204 0034 FFF7FEFF 		bl	CyDelayUs
1129:Generated_Source\PSoC5/CyLib.c ****         CY_CLK_XTAL32_CFG_REG = (CY_CLK_XTAL32_CFG_REG & ((uint8)(~CY_CLK_XTAL32_CFG_LP_MASK))) |
 2205              		.loc 1 1129 0
 2206 0038 1D4A     		ldr	r2, .L167+12
 2207 003a 1D4B     		ldr	r3, .L167+12
 2208 003c 1B78     		ldrb	r3, [r3]
 2209 003e DBB2     		uxtb	r3, r3
 2210 0040 23F00C03 		bic	r3, r3, #12
 2211 0044 DBB2     		uxtb	r3, r3
 2212 0046 43F00803 		orr	r3, r3, #8
 2213 004a DBB2     		uxtb	r3, r3
 2214 004c 1370     		strb	r3, [r2]
ARM GAS  C:\Users\ben\AppData\Local\Temp\ccnBLHGm.s 			page 60


1130:Generated_Source\PSoC5/CyLib.c ****                                 CY_CLK_XTAL32_CFG_LP_LOWPOWER;
1131:Generated_Source\PSoC5/CyLib.c ****         CyDelayUs(20u);
 2215              		.loc 1 1131 0
 2216 004e 1420     		movs	r0, #20
 2217 0050 FFF7FEFF 		bl	CyDelayUs
1132:Generated_Source\PSoC5/CyLib.c ****         CY_CLK_XTAL32_CR_REG |= CY_CLK_XTAL32_CR_LPM;
 2218              		.loc 1 1132 0
 2219 0054 134A     		ldr	r2, .L167
 2220 0056 134B     		ldr	r3, .L167
 2221 0058 1B78     		ldrb	r3, [r3]
 2222 005a DBB2     		uxtb	r3, r3
 2223 005c 43F00203 		orr	r3, r3, #2
 2224 0060 DBB2     		uxtb	r3, r3
 2225 0062 1370     		strb	r3, [r2]
 2226 0064 18E0     		b	.L165
 2227              	.L164:
1133:Generated_Source\PSoC5/CyLib.c ****     }
1134:Generated_Source\PSoC5/CyLib.c ****     else
1135:Generated_Source\PSoC5/CyLib.c ****     {
1136:Generated_Source\PSoC5/CyLib.c ****         /* High power mode */
1137:Generated_Source\PSoC5/CyLib.c ****         CY_CLK_XTAL32_TR_REG  = CY_CLK_XTAL32_TR_HIGH_POWER;
 2228              		.loc 1 1137 0
 2229 0066 114B     		ldr	r3, .L167+8
 2230 0068 0622     		movs	r2, #6
 2231 006a 1A70     		strb	r2, [r3]
1138:Generated_Source\PSoC5/CyLib.c ****         CyDelayUs(10u);
 2232              		.loc 1 1138 0
 2233 006c 0A20     		movs	r0, #10
 2234 006e FFF7FEFF 		bl	CyDelayUs
1139:Generated_Source\PSoC5/CyLib.c ****         CY_CLK_XTAL32_CFG_REG = (CY_CLK_XTAL32_CFG_REG & ((uint8)(~CY_CLK_XTAL32_CFG_LP_MASK))) |
 2235              		.loc 1 1139 0
 2236 0072 0F4A     		ldr	r2, .L167+12
 2237 0074 0E4B     		ldr	r3, .L167+12
 2238 0076 1B78     		ldrb	r3, [r3]
 2239 0078 DBB2     		uxtb	r3, r3
 2240 007a 23F00C03 		bic	r3, r3, #12
 2241 007e DBB2     		uxtb	r3, r3
 2242 0080 43F00403 		orr	r3, r3, #4
 2243 0084 DBB2     		uxtb	r3, r3
 2244 0086 1370     		strb	r3, [r2]
1140:Generated_Source\PSoC5/CyLib.c ****                                 CY_CLK_XTAL32_CFG_LP_DEFAULT;
1141:Generated_Source\PSoC5/CyLib.c ****         CY_CLK_XTAL32_CR_REG &= ((uint8)(~CY_CLK_XTAL32_CR_LPM));
 2245              		.loc 1 1141 0
 2246 0088 064A     		ldr	r2, .L167
 2247 008a 064B     		ldr	r3, .L167
 2248 008c 1B78     		ldrb	r3, [r3]
 2249 008e DBB2     		uxtb	r3, r3
 2250 0090 23F00203 		bic	r3, r3, #2
 2251 0094 DBB2     		uxtb	r3, r3
 2252 0096 1370     		strb	r3, [r2]
 2253              	.L165:
1142:Generated_Source\PSoC5/CyLib.c ****     }
1143:Generated_Source\PSoC5/CyLib.c **** 
1144:Generated_Source\PSoC5/CyLib.c ****     return(state);
 2254              		.loc 1 1144 0
 2255 0098 FB7B     		ldrb	r3, [r7, #15]	@ zero_extendqisi2
1145:Generated_Source\PSoC5/CyLib.c **** }
ARM GAS  C:\Users\ben\AppData\Local\Temp\ccnBLHGm.s 			page 61


 2256              		.loc 1 1145 0
 2257 009a 1846     		mov	r0, r3
 2258 009c 1037     		adds	r7, r7, #16
 2259              		.cfi_def_cfa_offset 8
 2260 009e BD46     		mov	sp, r7
 2261              		.cfi_def_cfa_register 13
 2262              		@ sp needed
 2263 00a0 80BD     		pop	{r7, pc}
 2264              	.L168:
 2265 00a2 00BF     		.align	2
 2266              	.L167:
 2267 00a4 08430040 		.word	1073758984
 2268 00a8 0A430040 		.word	1073758986
 2269 00ac 98460040 		.word	1073759896
 2270 00b0 09430040 		.word	1073758985
 2271              		.cfi_endproc
 2272              	.LFE28:
 2273              		.size	CyXTAL_32KHZ_SetPowerMode, .-CyXTAL_32KHZ_SetPowerMode
 2274              		.section	.text.CyXTAL_Start,"ax",%progbits
 2275              		.align	2
 2276              		.global	CyXTAL_Start
 2277              		.thumb
 2278              		.thumb_func
 2279              		.type	CyXTAL_Start, %function
 2280              	CyXTAL_Start:
 2281              	.LFB29:
1146:Generated_Source\PSoC5/CyLib.c **** 
1147:Generated_Source\PSoC5/CyLib.c **** 
1148:Generated_Source\PSoC5/CyLib.c **** /*******************************************************************************
1149:Generated_Source\PSoC5/CyLib.c **** * Function Name: CyXTAL_Start
1150:Generated_Source\PSoC5/CyLib.c **** ****************************************************************************//**
1151:Generated_Source\PSoC5/CyLib.c **** *
1152:Generated_Source\PSoC5/CyLib.c **** *  Enables the megahertz crystal.
1153:Generated_Source\PSoC5/CyLib.c **** *
1154:Generated_Source\PSoC5/CyLib.c **** *  PSoC 3:
1155:Generated_Source\PSoC5/CyLib.c **** *  Waits until the XERR bit is low (no error) for a millisecond or until the
1156:Generated_Source\PSoC5/CyLib.c **** *  number of milliseconds specified by the wait parameter has expired.
1157:Generated_Source\PSoC5/CyLib.c **** *
1158:Generated_Source\PSoC5/CyLib.c **** *   \param wait: Valid range [0-255].
1159:Generated_Source\PSoC5/CyLib.c **** *   This is the timeout value in milliseconds.
1160:Generated_Source\PSoC5/CyLib.c **** *   The appropriate value is crystal specific.
1161:Generated_Source\PSoC5/CyLib.c **** *
1162:Generated_Source\PSoC5/CyLib.c **** * \return
1163:Generated_Source\PSoC5/CyLib.c **** *   CYRET_SUCCESS - Completed successfully
1164:Generated_Source\PSoC5/CyLib.c **** *   CYRET_TIMEOUT - Timeout occurred without detecting a low value on XERR.
1165:Generated_Source\PSoC5/CyLib.c **** *
1166:Generated_Source\PSoC5/CyLib.c **** * Side Effects and Restrictions:
1167:Generated_Source\PSoC5/CyLib.c **** *  If wait is enabled (non-zero wait). Uses the Fast Timewheel to time the wait.
1168:Generated_Source\PSoC5/CyLib.c **** *  Any other use of the Fast Timewheel (FTW) will be stopped during the period
1169:Generated_Source\PSoC5/CyLib.c **** *  of this function and then restored.
1170:Generated_Source\PSoC5/CyLib.c **** *
1171:Generated_Source\PSoC5/CyLib.c **** *  Uses the 100KHz ILO.  If not enabled, this function will enable the 100KHz
1172:Generated_Source\PSoC5/CyLib.c **** *  ILO for the period of this function. No changes to the setup of the ILO,
1173:Generated_Source\PSoC5/CyLib.c **** *  Fast Timewheel, Central Timewheel or Once Per Second interrupt may be made
1174:Generated_Source\PSoC5/CyLib.c **** *  by interrupt routines during the period of this function.
1175:Generated_Source\PSoC5/CyLib.c **** *
1176:Generated_Source\PSoC5/CyLib.c **** *  The current operation of the ILO, Central Timewheel and Once Per Second
ARM GAS  C:\Users\ben\AppData\Local\Temp\ccnBLHGm.s 			page 62


1177:Generated_Source\PSoC5/CyLib.c **** *  interrupt are maintained during the operation of this function provided the
1178:Generated_Source\PSoC5/CyLib.c **** *  reading of the Power Manager Interrupt Status Register is only done using the
1179:Generated_Source\PSoC5/CyLib.c **** *  CyPmReadStatus() function.
1180:Generated_Source\PSoC5/CyLib.c **** *
1181:Generated_Source\PSoC5/CyLib.c **** *******************************************************************************/
1182:Generated_Source\PSoC5/CyLib.c **** cystatus CyXTAL_Start(uint8 wait) 
1183:Generated_Source\PSoC5/CyLib.c **** {
 2282              		.loc 1 1183 0
 2283              		.cfi_startproc
 2284              		@ args = 0, pretend = 0, frame = 24
 2285              		@ frame_needed = 1, uses_anonymous_args = 0
 2286 0000 80B5     		push	{r7, lr}
 2287              		.cfi_def_cfa_offset 8
 2288              		.cfi_offset 7, -8
 2289              		.cfi_offset 14, -4
 2290 0002 86B0     		sub	sp, sp, #24
 2291              		.cfi_def_cfa_offset 32
 2292 0004 00AF     		add	r7, sp, #0
 2293              		.cfi_def_cfa_register 7
 2294 0006 0346     		mov	r3, r0
 2295 0008 FB71     		strb	r3, [r7, #7]
1184:Generated_Source\PSoC5/CyLib.c ****     cystatus status = CYRET_SUCCESS;
 2296              		.loc 1 1184 0
 2297 000a 0023     		movs	r3, #0
 2298 000c 7B61     		str	r3, [r7, #20]
1185:Generated_Source\PSoC5/CyLib.c ****     volatile uint8  timeout = wait;
 2299              		.loc 1 1185 0
 2300 000e FB79     		ldrb	r3, [r7, #7]
 2301 0010 3B74     		strb	r3, [r7, #16]
1186:Generated_Source\PSoC5/CyLib.c ****     volatile uint8 count;
1187:Generated_Source\PSoC5/CyLib.c ****     uint8 iloEnableState;
1188:Generated_Source\PSoC5/CyLib.c ****     uint8 pmTwCfg0Tmp;
1189:Generated_Source\PSoC5/CyLib.c ****     uint8 pmTwCfg2Tmp;
1190:Generated_Source\PSoC5/CyLib.c **** 
1191:Generated_Source\PSoC5/CyLib.c **** 
1192:Generated_Source\PSoC5/CyLib.c ****     /* Enables MHz crystal oscillator circuit  */
1193:Generated_Source\PSoC5/CyLib.c ****     CY_CLK_XMHZ_CSR_REG |= CY_CLK_XMHZ_CSR_ENABLE;
 2302              		.loc 1 1193 0
 2303 0012 2B4A     		ldr	r2, .L180
 2304 0014 2A4B     		ldr	r3, .L180
 2305 0016 1B78     		ldrb	r3, [r3]
 2306 0018 DBB2     		uxtb	r3, r3
 2307 001a 43F00103 		orr	r3, r3, #1
 2308 001e DBB2     		uxtb	r3, r3
 2309 0020 1370     		strb	r3, [r2]
1194:Generated_Source\PSoC5/CyLib.c **** 
1195:Generated_Source\PSoC5/CyLib.c **** 
1196:Generated_Source\PSoC5/CyLib.c ****     if(wait > 0u)
 2310              		.loc 1 1196 0
 2311 0022 FB79     		ldrb	r3, [r7, #7]	@ zero_extendqisi2
 2312 0024 002B     		cmp	r3, #0
 2313 0026 46D0     		beq	.L170
1197:Generated_Source\PSoC5/CyLib.c ****     {
1198:Generated_Source\PSoC5/CyLib.c ****         /* Save 100 KHz ILO, FTW interval, enable and interrupt enable */
1199:Generated_Source\PSoC5/CyLib.c ****         iloEnableState = CY_LIB_SLOWCLK_ILO_CR0_REG;
 2314              		.loc 1 1199 0
 2315 0028 264B     		ldr	r3, .L180+4
ARM GAS  C:\Users\ben\AppData\Local\Temp\ccnBLHGm.s 			page 63


 2316 002a 1B78     		ldrb	r3, [r3]
 2317 002c FB74     		strb	r3, [r7, #19]
1200:Generated_Source\PSoC5/CyLib.c ****         pmTwCfg0Tmp = CY_LIB_PM_TW_CFG0_REG;
 2318              		.loc 1 1200 0
 2319 002e 264B     		ldr	r3, .L180+8
 2320 0030 1B78     		ldrb	r3, [r3]
 2321 0032 BB74     		strb	r3, [r7, #18]
1201:Generated_Source\PSoC5/CyLib.c ****         pmTwCfg2Tmp = CY_LIB_PM_TW_CFG2_REG;
 2322              		.loc 1 1201 0
 2323 0034 254B     		ldr	r3, .L180+12
 2324 0036 1B78     		ldrb	r3, [r3]
 2325 0038 7B74     		strb	r3, [r7, #17]
1202:Generated_Source\PSoC5/CyLib.c **** 
1203:Generated_Source\PSoC5/CyLib.c ****         /* Set 250 us interval */
1204:Generated_Source\PSoC5/CyLib.c ****         CyPmFtwSetInterval(CY_CLK_XMHZ_FTW_INTERVAL);
 2326              		.loc 1 1204 0
 2327 003a 1820     		movs	r0, #24
 2328 003c FFF7FEFF 		bl	CyPmFtwSetInterval
1205:Generated_Source\PSoC5/CyLib.c ****         status = CYRET_TIMEOUT;
 2329              		.loc 1 1205 0
 2330 0040 1023     		movs	r3, #16
 2331 0042 7B61     		str	r3, [r7, #20]
1206:Generated_Source\PSoC5/CyLib.c **** 
1207:Generated_Source\PSoC5/CyLib.c **** 
1208:Generated_Source\PSoC5/CyLib.c ****         for( ; timeout > 0u; timeout--)
 2332              		.loc 1 1208 0
 2333 0044 26E0     		b	.L171
 2334              	.L177:
1209:Generated_Source\PSoC5/CyLib.c ****         {
1210:Generated_Source\PSoC5/CyLib.c ****             /* Read XERR bit to clear it */
1211:Generated_Source\PSoC5/CyLib.c ****             (void) CY_CLK_XMHZ_CSR_REG;
 2335              		.loc 1 1211 0
 2336 0046 1E4B     		ldr	r3, .L180
 2337 0048 1B78     		ldrb	r3, [r3]
1212:Generated_Source\PSoC5/CyLib.c **** 
1213:Generated_Source\PSoC5/CyLib.c ****             /* Wait for 1 millisecond - 4 x 250 us */
1214:Generated_Source\PSoC5/CyLib.c ****             for(count = 4u; count > 0u; count--)
 2338              		.loc 1 1214 0
 2339 004a 0423     		movs	r3, #4
 2340 004c FB73     		strb	r3, [r7, #15]
 2341 004e 0EE0     		b	.L172
 2342              	.L174:
1215:Generated_Source\PSoC5/CyLib.c ****             {
1216:Generated_Source\PSoC5/CyLib.c ****                 while(0u == (CY_PM_FTW_INT & CyPmReadStatus(CY_PM_FTW_INT)))
 2343              		.loc 1 1216 0
 2344 0050 00BF     		nop
 2345              	.L173:
 2346              		.loc 1 1216 0 is_stmt 0 discriminator 1
 2347 0052 0120     		movs	r0, #1
 2348 0054 FFF7FEFF 		bl	CyPmReadStatus
 2349 0058 0346     		mov	r3, r0
 2350 005a 03F00103 		and	r3, r3, #1
 2351 005e DBB2     		uxtb	r3, r3
 2352 0060 002B     		cmp	r3, #0
 2353 0062 F6D0     		beq	.L173
1214:Generated_Source\PSoC5/CyLib.c ****             {
 2354              		.loc 1 1214 0 is_stmt 1 discriminator 2
ARM GAS  C:\Users\ben\AppData\Local\Temp\ccnBLHGm.s 			page 64


 2355 0064 FB7B     		ldrb	r3, [r7, #15]
 2356 0066 DBB2     		uxtb	r3, r3
 2357 0068 013B     		subs	r3, r3, #1
 2358 006a DBB2     		uxtb	r3, r3
 2359 006c FB73     		strb	r3, [r7, #15]
 2360              	.L172:
1214:Generated_Source\PSoC5/CyLib.c ****             {
 2361              		.loc 1 1214 0 is_stmt 0 discriminator 1
 2362 006e FB7B     		ldrb	r3, [r7, #15]
 2363 0070 DBB2     		uxtb	r3, r3
 2364 0072 002B     		cmp	r3, #0
 2365 0074 ECD1     		bne	.L174
1217:Generated_Source\PSoC5/CyLib.c ****                 {
1218:Generated_Source\PSoC5/CyLib.c ****                     /* Wait for FTW interrupt event */
1219:Generated_Source\PSoC5/CyLib.c ****                 }
1220:Generated_Source\PSoC5/CyLib.c ****             }
1221:Generated_Source\PSoC5/CyLib.c **** 
1222:Generated_Source\PSoC5/CyLib.c **** 
1223:Generated_Source\PSoC5/CyLib.c ****             /*******************************************************************
1224:Generated_Source\PSoC5/CyLib.c ****             * High output indicates an oscillator failure.
1225:Generated_Source\PSoC5/CyLib.c ****             * Only can be used after a start-up interval (1 ms) is completed.
1226:Generated_Source\PSoC5/CyLib.c ****             *******************************************************************/
1227:Generated_Source\PSoC5/CyLib.c ****             if(0u == (CY_CLK_XMHZ_CSR_REG & CY_CLK_XMHZ_CSR_XERR))
 2366              		.loc 1 1227 0 is_stmt 1
 2367 0076 124B     		ldr	r3, .L180
 2368 0078 1B78     		ldrb	r3, [r3]
 2369 007a DBB2     		uxtb	r3, r3
 2370 007c DBB2     		uxtb	r3, r3
 2371 007e 5BB2     		sxtb	r3, r3
 2372 0080 002B     		cmp	r3, #0
 2373 0082 02DB     		blt	.L175
1228:Generated_Source\PSoC5/CyLib.c ****             {
1229:Generated_Source\PSoC5/CyLib.c ****                 status = CYRET_SUCCESS;
 2374              		.loc 1 1229 0
 2375 0084 0023     		movs	r3, #0
 2376 0086 7B61     		str	r3, [r7, #20]
1230:Generated_Source\PSoC5/CyLib.c ****                 break;
 2377              		.loc 1 1230 0
 2378 0088 08E0     		b	.L176
 2379              	.L175:
1208:Generated_Source\PSoC5/CyLib.c ****         {
 2380              		.loc 1 1208 0
 2381 008a 3B7C     		ldrb	r3, [r7, #16]
 2382 008c DBB2     		uxtb	r3, r3
 2383 008e 013B     		subs	r3, r3, #1
 2384 0090 DBB2     		uxtb	r3, r3
 2385 0092 3B74     		strb	r3, [r7, #16]
 2386              	.L171:
1208:Generated_Source\PSoC5/CyLib.c ****         {
 2387              		.loc 1 1208 0 is_stmt 0 discriminator 1
 2388 0094 3B7C     		ldrb	r3, [r7, #16]
 2389 0096 DBB2     		uxtb	r3, r3
 2390 0098 002B     		cmp	r3, #0
 2391 009a D4D1     		bne	.L177
 2392              	.L176:
1231:Generated_Source\PSoC5/CyLib.c ****             }
1232:Generated_Source\PSoC5/CyLib.c ****         }
ARM GAS  C:\Users\ben\AppData\Local\Temp\ccnBLHGm.s 			page 65


1233:Generated_Source\PSoC5/CyLib.c **** 
1234:Generated_Source\PSoC5/CyLib.c **** 
1235:Generated_Source\PSoC5/CyLib.c ****         /* Restore 100 KHz ILO, FTW interval, enable and interrupt enable */
1236:Generated_Source\PSoC5/CyLib.c ****         if(0u == (iloEnableState & CY_LIB_SLOWCLK_ILO_CR0_EN_100KHZ))
 2393              		.loc 1 1236 0 is_stmt 1
 2394 009c FB7C     		ldrb	r3, [r7, #19]	@ zero_extendqisi2
 2395 009e 03F00403 		and	r3, r3, #4
 2396 00a2 002B     		cmp	r3, #0
 2397 00a4 01D1     		bne	.L178
1237:Generated_Source\PSoC5/CyLib.c ****         {
1238:Generated_Source\PSoC5/CyLib.c ****             CyILO_Stop100K();
 2398              		.loc 1 1238 0
 2399 00a6 FFF7FEFF 		bl	CyILO_Stop100K
 2400              	.L178:
1239:Generated_Source\PSoC5/CyLib.c ****         }
1240:Generated_Source\PSoC5/CyLib.c ****         CY_LIB_PM_TW_CFG0_REG = pmTwCfg0Tmp;
 2401              		.loc 1 1240 0
 2402 00aa 074A     		ldr	r2, .L180+8
 2403 00ac BB7C     		ldrb	r3, [r7, #18]
 2404 00ae 1370     		strb	r3, [r2]
1241:Generated_Source\PSoC5/CyLib.c ****         CY_LIB_PM_TW_CFG2_REG = pmTwCfg2Tmp;
 2405              		.loc 1 1241 0
 2406 00b0 064A     		ldr	r2, .L180+12
 2407 00b2 7B7C     		ldrb	r3, [r7, #17]
 2408 00b4 1370     		strb	r3, [r2]
 2409              	.L170:
1242:Generated_Source\PSoC5/CyLib.c ****     }
1243:Generated_Source\PSoC5/CyLib.c **** 
1244:Generated_Source\PSoC5/CyLib.c ****     return(status);
 2410              		.loc 1 1244 0
 2411 00b6 7B69     		ldr	r3, [r7, #20]
1245:Generated_Source\PSoC5/CyLib.c **** }
 2412              		.loc 1 1245 0
 2413 00b8 1846     		mov	r0, r3
 2414 00ba 1837     		adds	r7, r7, #24
 2415              		.cfi_def_cfa_offset 8
 2416 00bc BD46     		mov	sp, r7
 2417              		.cfi_def_cfa_register 13
 2418              		@ sp needed
 2419 00be 80BD     		pop	{r7, pc}
 2420              	.L181:
 2421              		.align	2
 2422              	.L180:
 2423 00c0 10420040 		.word	1073758736
 2424 00c4 00430040 		.word	1073758976
 2425 00c8 80430040 		.word	1073759104
 2426 00cc 82430040 		.word	1073759106
 2427              		.cfi_endproc
 2428              	.LFE29:
 2429              		.size	CyXTAL_Start, .-CyXTAL_Start
 2430              		.section	.text.CyXTAL_Stop,"ax",%progbits
 2431              		.align	2
 2432              		.global	CyXTAL_Stop
 2433              		.thumb
 2434              		.thumb_func
 2435              		.type	CyXTAL_Stop, %function
 2436              	CyXTAL_Stop:
ARM GAS  C:\Users\ben\AppData\Local\Temp\ccnBLHGm.s 			page 66


 2437              	.LFB30:
1246:Generated_Source\PSoC5/CyLib.c **** 
1247:Generated_Source\PSoC5/CyLib.c **** 
1248:Generated_Source\PSoC5/CyLib.c **** /*******************************************************************************
1249:Generated_Source\PSoC5/CyLib.c **** * Function Name: CyXTAL_Stop
1250:Generated_Source\PSoC5/CyLib.c **** ****************************************************************************//**
1251:Generated_Source\PSoC5/CyLib.c **** *
1252:Generated_Source\PSoC5/CyLib.c **** *  Disables the megahertz crystal oscillator.
1253:Generated_Source\PSoC5/CyLib.c **** *
1254:Generated_Source\PSoC5/CyLib.c **** *******************************************************************************/
1255:Generated_Source\PSoC5/CyLib.c **** void CyXTAL_Stop(void) 
1256:Generated_Source\PSoC5/CyLib.c **** {
 2438              		.loc 1 1256 0
 2439              		.cfi_startproc
 2440              		@ args = 0, pretend = 0, frame = 0
 2441              		@ frame_needed = 1, uses_anonymous_args = 0
 2442              		@ link register save eliminated.
 2443 0000 80B4     		push	{r7}
 2444              		.cfi_def_cfa_offset 4
 2445              		.cfi_offset 7, -4
 2446 0002 00AF     		add	r7, sp, #0
 2447              		.cfi_def_cfa_register 7
1257:Generated_Source\PSoC5/CyLib.c ****     /* Disable oscillator. */
1258:Generated_Source\PSoC5/CyLib.c ****     FASTCLK_XMHZ_CSR &= ((uint8)(~XMHZ_CONTROL_ENABLE));
 2448              		.loc 1 1258 0
 2449 0004 054A     		ldr	r2, .L183
 2450 0006 054B     		ldr	r3, .L183
 2451 0008 1B78     		ldrb	r3, [r3]
 2452 000a DBB2     		uxtb	r3, r3
 2453 000c 23F00103 		bic	r3, r3, #1
 2454 0010 DBB2     		uxtb	r3, r3
 2455 0012 1370     		strb	r3, [r2]
1259:Generated_Source\PSoC5/CyLib.c **** }
 2456              		.loc 1 1259 0
 2457 0014 BD46     		mov	sp, r7
 2458              		.cfi_def_cfa_register 13
 2459              		@ sp needed
 2460 0016 5DF8047B 		ldr	r7, [sp], #4
 2461              		.cfi_restore 7
 2462              		.cfi_def_cfa_offset 0
 2463 001a 7047     		bx	lr
 2464              	.L184:
 2465              		.align	2
 2466              	.L183:
 2467 001c 10420040 		.word	1073758736
 2468              		.cfi_endproc
 2469              	.LFE30:
 2470              		.size	CyXTAL_Stop, .-CyXTAL_Stop
 2471              		.section	.text.CyXTAL_EnableErrStatus,"ax",%progbits
 2472              		.align	2
 2473              		.global	CyXTAL_EnableErrStatus
 2474              		.thumb
 2475              		.thumb_func
 2476              		.type	CyXTAL_EnableErrStatus, %function
 2477              	CyXTAL_EnableErrStatus:
 2478              	.LFB31:
1260:Generated_Source\PSoC5/CyLib.c **** 
ARM GAS  C:\Users\ben\AppData\Local\Temp\ccnBLHGm.s 			page 67


1261:Generated_Source\PSoC5/CyLib.c **** 
1262:Generated_Source\PSoC5/CyLib.c **** /*******************************************************************************
1263:Generated_Source\PSoC5/CyLib.c **** * Function Name: CyXTAL_EnableErrStatus
1264:Generated_Source\PSoC5/CyLib.c **** ****************************************************************************//**
1265:Generated_Source\PSoC5/CyLib.c **** *
1266:Generated_Source\PSoC5/CyLib.c **** *  Enables the generation of the XERR status bit for the megahertz crystal.
1267:Generated_Source\PSoC5/CyLib.c **** *  This function is not available for PSoC5.
1268:Generated_Source\PSoC5/CyLib.c **** *
1269:Generated_Source\PSoC5/CyLib.c **** *******************************************************************************/
1270:Generated_Source\PSoC5/CyLib.c **** void CyXTAL_EnableErrStatus(void) 
1271:Generated_Source\PSoC5/CyLib.c **** {
 2479              		.loc 1 1271 0
 2480              		.cfi_startproc
 2481              		@ args = 0, pretend = 0, frame = 0
 2482              		@ frame_needed = 1, uses_anonymous_args = 0
 2483              		@ link register save eliminated.
 2484 0000 80B4     		push	{r7}
 2485              		.cfi_def_cfa_offset 4
 2486              		.cfi_offset 7, -4
 2487 0002 00AF     		add	r7, sp, #0
 2488              		.cfi_def_cfa_register 7
1272:Generated_Source\PSoC5/CyLib.c ****     /* If oscillator has insufficient amplitude, XERR bit will be high. */
1273:Generated_Source\PSoC5/CyLib.c ****     CY_CLK_XMHZ_CSR_REG &= ((uint8)(~CY_CLK_XMHZ_CSR_XFB));
 2489              		.loc 1 1273 0
 2490 0004 054A     		ldr	r2, .L186
 2491 0006 054B     		ldr	r3, .L186
 2492 0008 1B78     		ldrb	r3, [r3]
 2493 000a DBB2     		uxtb	r3, r3
 2494 000c 23F00403 		bic	r3, r3, #4
 2495 0010 DBB2     		uxtb	r3, r3
 2496 0012 1370     		strb	r3, [r2]
1274:Generated_Source\PSoC5/CyLib.c **** }
 2497              		.loc 1 1274 0
 2498 0014 BD46     		mov	sp, r7
 2499              		.cfi_def_cfa_register 13
 2500              		@ sp needed
 2501 0016 5DF8047B 		ldr	r7, [sp], #4
 2502              		.cfi_restore 7
 2503              		.cfi_def_cfa_offset 0
 2504 001a 7047     		bx	lr
 2505              	.L187:
 2506              		.align	2
 2507              	.L186:
 2508 001c 10420040 		.word	1073758736
 2509              		.cfi_endproc
 2510              	.LFE31:
 2511              		.size	CyXTAL_EnableErrStatus, .-CyXTAL_EnableErrStatus
 2512              		.section	.text.CyXTAL_DisableErrStatus,"ax",%progbits
 2513              		.align	2
 2514              		.global	CyXTAL_DisableErrStatus
 2515              		.thumb
 2516              		.thumb_func
 2517              		.type	CyXTAL_DisableErrStatus, %function
 2518              	CyXTAL_DisableErrStatus:
 2519              	.LFB32:
1275:Generated_Source\PSoC5/CyLib.c **** 
1276:Generated_Source\PSoC5/CyLib.c **** 
ARM GAS  C:\Users\ben\AppData\Local\Temp\ccnBLHGm.s 			page 68


1277:Generated_Source\PSoC5/CyLib.c **** /*******************************************************************************
1278:Generated_Source\PSoC5/CyLib.c **** * Function Name: CyXTAL_DisableErrStatus
1279:Generated_Source\PSoC5/CyLib.c **** ****************************************************************************//**
1280:Generated_Source\PSoC5/CyLib.c **** *
1281:Generated_Source\PSoC5/CyLib.c **** *  Disables the generation of the XERR status bit for the megahertz crystal.
1282:Generated_Source\PSoC5/CyLib.c **** *  This function is not available for PSoC5.
1283:Generated_Source\PSoC5/CyLib.c **** *
1284:Generated_Source\PSoC5/CyLib.c **** *******************************************************************************/
1285:Generated_Source\PSoC5/CyLib.c **** void CyXTAL_DisableErrStatus(void) 
1286:Generated_Source\PSoC5/CyLib.c **** {
 2520              		.loc 1 1286 0
 2521              		.cfi_startproc
 2522              		@ args = 0, pretend = 0, frame = 0
 2523              		@ frame_needed = 1, uses_anonymous_args = 0
 2524              		@ link register save eliminated.
 2525 0000 80B4     		push	{r7}
 2526              		.cfi_def_cfa_offset 4
 2527              		.cfi_offset 7, -4
 2528 0002 00AF     		add	r7, sp, #0
 2529              		.cfi_def_cfa_register 7
1287:Generated_Source\PSoC5/CyLib.c ****     /* If oscillator has insufficient amplitude, XERR bit will be high. */
1288:Generated_Source\PSoC5/CyLib.c ****     CY_CLK_XMHZ_CSR_REG |= CY_CLK_XMHZ_CSR_XFB;
 2530              		.loc 1 1288 0
 2531 0004 054A     		ldr	r2, .L189
 2532 0006 054B     		ldr	r3, .L189
 2533 0008 1B78     		ldrb	r3, [r3]
 2534 000a DBB2     		uxtb	r3, r3
 2535 000c 43F00403 		orr	r3, r3, #4
 2536 0010 DBB2     		uxtb	r3, r3
 2537 0012 1370     		strb	r3, [r2]
1289:Generated_Source\PSoC5/CyLib.c **** }
 2538              		.loc 1 1289 0
 2539 0014 BD46     		mov	sp, r7
 2540              		.cfi_def_cfa_register 13
 2541              		@ sp needed
 2542 0016 5DF8047B 		ldr	r7, [sp], #4
 2543              		.cfi_restore 7
 2544              		.cfi_def_cfa_offset 0
 2545 001a 7047     		bx	lr
 2546              	.L190:
 2547              		.align	2
 2548              	.L189:
 2549 001c 10420040 		.word	1073758736
 2550              		.cfi_endproc
 2551              	.LFE32:
 2552              		.size	CyXTAL_DisableErrStatus, .-CyXTAL_DisableErrStatus
 2553              		.section	.text.CyXTAL_ReadStatus,"ax",%progbits
 2554              		.align	2
 2555              		.global	CyXTAL_ReadStatus
 2556              		.thumb
 2557              		.thumb_func
 2558              		.type	CyXTAL_ReadStatus, %function
 2559              	CyXTAL_ReadStatus:
 2560              	.LFB33:
1290:Generated_Source\PSoC5/CyLib.c **** 
1291:Generated_Source\PSoC5/CyLib.c **** 
1292:Generated_Source\PSoC5/CyLib.c **** /*******************************************************************************
ARM GAS  C:\Users\ben\AppData\Local\Temp\ccnBLHGm.s 			page 69


1293:Generated_Source\PSoC5/CyLib.c **** * Function Name: CyXTAL_ReadStatus
1294:Generated_Source\PSoC5/CyLib.c **** ****************************************************************************//**
1295:Generated_Source\PSoC5/CyLib.c **** *
1296:Generated_Source\PSoC5/CyLib.c **** *  Reads the XERR status bit for the megahertz crystal. This status bit is a
1297:Generated_Source\PSoC5/CyLib.c **** *  sticky, clear on read. This function is not available for PSoC5.
1298:Generated_Source\PSoC5/CyLib.c **** *
1299:Generated_Source\PSoC5/CyLib.c **** * \return
1300:Generated_Source\PSoC5/CyLib.c **** *   Status
1301:Generated_Source\PSoC5/CyLib.c **** *    0: No error
1302:Generated_Source\PSoC5/CyLib.c **** *    1: Error
1303:Generated_Source\PSoC5/CyLib.c **** *
1304:Generated_Source\PSoC5/CyLib.c **** *******************************************************************************/
1305:Generated_Source\PSoC5/CyLib.c **** uint8 CyXTAL_ReadStatus(void) 
1306:Generated_Source\PSoC5/CyLib.c **** {
 2561              		.loc 1 1306 0
 2562              		.cfi_startproc
 2563              		@ args = 0, pretend = 0, frame = 0
 2564              		@ frame_needed = 1, uses_anonymous_args = 0
 2565              		@ link register save eliminated.
 2566 0000 80B4     		push	{r7}
 2567              		.cfi_def_cfa_offset 4
 2568              		.cfi_offset 7, -4
 2569 0002 00AF     		add	r7, sp, #0
 2570              		.cfi_def_cfa_register 7
1307:Generated_Source\PSoC5/CyLib.c ****     /***************************************************************************
1308:Generated_Source\PSoC5/CyLib.c ****     * High output indicates an oscillator failure. Only use this after a start-up
1309:Generated_Source\PSoC5/CyLib.c ****     * interval is completed. This can be used for the status and failure recovery.
1310:Generated_Source\PSoC5/CyLib.c ****     ***************************************************************************/
1311:Generated_Source\PSoC5/CyLib.c ****     return((0u != (CY_CLK_XMHZ_CSR_REG & CY_CLK_XMHZ_CSR_XERR)) ? 1u : 0u);
 2571              		.loc 1 1311 0
 2572 0004 074B     		ldr	r3, .L195
 2573 0006 1B78     		ldrb	r3, [r3]
 2574 0008 DBB2     		uxtb	r3, r3
 2575 000a DBB2     		uxtb	r3, r3
 2576 000c 5BB2     		sxtb	r3, r3
 2577 000e 002B     		cmp	r3, #0
 2578 0010 01DA     		bge	.L192
 2579              		.loc 1 1311 0 is_stmt 0 discriminator 1
 2580 0012 0123     		movs	r3, #1
 2581 0014 00E0     		b	.L193
 2582              	.L192:
 2583              		.loc 1 1311 0 discriminator 2
 2584 0016 0023     		movs	r3, #0
 2585              	.L193:
1312:Generated_Source\PSoC5/CyLib.c **** }
 2586              		.loc 1 1312 0 is_stmt 1 discriminator 4
 2587 0018 1846     		mov	r0, r3
 2588 001a BD46     		mov	sp, r7
 2589              		.cfi_def_cfa_register 13
 2590              		@ sp needed
 2591 001c 5DF8047B 		ldr	r7, [sp], #4
 2592              		.cfi_restore 7
 2593              		.cfi_def_cfa_offset 0
 2594 0020 7047     		bx	lr
 2595              	.L196:
 2596 0022 00BF     		.align	2
 2597              	.L195:
ARM GAS  C:\Users\ben\AppData\Local\Temp\ccnBLHGm.s 			page 70


 2598 0024 10420040 		.word	1073758736
 2599              		.cfi_endproc
 2600              	.LFE33:
 2601              		.size	CyXTAL_ReadStatus, .-CyXTAL_ReadStatus
 2602              		.section	.text.CyXTAL_EnableFaultRecovery,"ax",%progbits
 2603              		.align	2
 2604              		.global	CyXTAL_EnableFaultRecovery
 2605              		.thumb
 2606              		.thumb_func
 2607              		.type	CyXTAL_EnableFaultRecovery, %function
 2608              	CyXTAL_EnableFaultRecovery:
 2609              	.LFB34:
1313:Generated_Source\PSoC5/CyLib.c **** 
1314:Generated_Source\PSoC5/CyLib.c **** 
1315:Generated_Source\PSoC5/CyLib.c **** /*******************************************************************************
1316:Generated_Source\PSoC5/CyLib.c **** * Function Name: CyXTAL_EnableFaultRecovery
1317:Generated_Source\PSoC5/CyLib.c **** ****************************************************************************//**
1318:Generated_Source\PSoC5/CyLib.c **** *
1319:Generated_Source\PSoC5/CyLib.c **** *  Enables the fault recovery circuit which will switch to the IMO in the case
1320:Generated_Source\PSoC5/CyLib.c **** *  of a fault in the megahertz crystal circuit. The crystal must be up and
1321:Generated_Source\PSoC5/CyLib.c **** *  running with the XERR bit at 0, before calling this function to prevent
1322:Generated_Source\PSoC5/CyLib.c **** *  an immediate fault switchover. This function is not available for PSoC5.
1323:Generated_Source\PSoC5/CyLib.c **** *
1324:Generated_Source\PSoC5/CyLib.c **** *******************************************************************************/
1325:Generated_Source\PSoC5/CyLib.c **** void CyXTAL_EnableFaultRecovery(void) 
1326:Generated_Source\PSoC5/CyLib.c **** {
 2610              		.loc 1 1326 0
 2611              		.cfi_startproc
 2612              		@ args = 0, pretend = 0, frame = 0
 2613              		@ frame_needed = 1, uses_anonymous_args = 0
 2614              		@ link register save eliminated.
 2615 0000 80B4     		push	{r7}
 2616              		.cfi_def_cfa_offset 4
 2617              		.cfi_offset 7, -4
 2618 0002 00AF     		add	r7, sp, #0
 2619              		.cfi_def_cfa_register 7
1327:Generated_Source\PSoC5/CyLib.c ****     CY_CLK_XMHZ_CSR_REG |= CY_CLK_XMHZ_CSR_XPROT;
 2620              		.loc 1 1327 0
 2621 0004 054A     		ldr	r2, .L198
 2622 0006 054B     		ldr	r3, .L198
 2623 0008 1B78     		ldrb	r3, [r3]
 2624 000a DBB2     		uxtb	r3, r3
 2625 000c 43F04003 		orr	r3, r3, #64
 2626 0010 DBB2     		uxtb	r3, r3
 2627 0012 1370     		strb	r3, [r2]
1328:Generated_Source\PSoC5/CyLib.c **** }
 2628              		.loc 1 1328 0
 2629 0014 BD46     		mov	sp, r7
 2630              		.cfi_def_cfa_register 13
 2631              		@ sp needed
 2632 0016 5DF8047B 		ldr	r7, [sp], #4
 2633              		.cfi_restore 7
 2634              		.cfi_def_cfa_offset 0
 2635 001a 7047     		bx	lr
 2636              	.L199:
 2637              		.align	2
 2638              	.L198:
ARM GAS  C:\Users\ben\AppData\Local\Temp\ccnBLHGm.s 			page 71


 2639 001c 10420040 		.word	1073758736
 2640              		.cfi_endproc
 2641              	.LFE34:
 2642              		.size	CyXTAL_EnableFaultRecovery, .-CyXTAL_EnableFaultRecovery
 2643              		.section	.text.CyXTAL_DisableFaultRecovery,"ax",%progbits
 2644              		.align	2
 2645              		.global	CyXTAL_DisableFaultRecovery
 2646              		.thumb
 2647              		.thumb_func
 2648              		.type	CyXTAL_DisableFaultRecovery, %function
 2649              	CyXTAL_DisableFaultRecovery:
 2650              	.LFB35:
1329:Generated_Source\PSoC5/CyLib.c **** 
1330:Generated_Source\PSoC5/CyLib.c **** 
1331:Generated_Source\PSoC5/CyLib.c **** /*******************************************************************************
1332:Generated_Source\PSoC5/CyLib.c **** * Function Name: CyXTAL_DisableFaultRecovery
1333:Generated_Source\PSoC5/CyLib.c **** ****************************************************************************//**
1334:Generated_Source\PSoC5/CyLib.c **** *
1335:Generated_Source\PSoC5/CyLib.c **** *  Disables the fault recovery circuit which will switch to the IMO in the case
1336:Generated_Source\PSoC5/CyLib.c **** *  of a fault in the megahertz crystal circuit. This function is not available
1337:Generated_Source\PSoC5/CyLib.c **** *  for PSoC5.
1338:Generated_Source\PSoC5/CyLib.c **** *
1339:Generated_Source\PSoC5/CyLib.c **** *******************************************************************************/
1340:Generated_Source\PSoC5/CyLib.c **** void CyXTAL_DisableFaultRecovery(void) 
1341:Generated_Source\PSoC5/CyLib.c **** {
 2651              		.loc 1 1341 0
 2652              		.cfi_startproc
 2653              		@ args = 0, pretend = 0, frame = 0
 2654              		@ frame_needed = 1, uses_anonymous_args = 0
 2655              		@ link register save eliminated.
 2656 0000 80B4     		push	{r7}
 2657              		.cfi_def_cfa_offset 4
 2658              		.cfi_offset 7, -4
 2659 0002 00AF     		add	r7, sp, #0
 2660              		.cfi_def_cfa_register 7
1342:Generated_Source\PSoC5/CyLib.c ****     CY_CLK_XMHZ_CSR_REG &= ((uint8)(~CY_CLK_XMHZ_CSR_XPROT));
 2661              		.loc 1 1342 0
 2662 0004 054A     		ldr	r2, .L201
 2663 0006 054B     		ldr	r3, .L201
 2664 0008 1B78     		ldrb	r3, [r3]
 2665 000a DBB2     		uxtb	r3, r3
 2666 000c 23F04003 		bic	r3, r3, #64
 2667 0010 DBB2     		uxtb	r3, r3
 2668 0012 1370     		strb	r3, [r2]
1343:Generated_Source\PSoC5/CyLib.c **** }
 2669              		.loc 1 1343 0
 2670 0014 BD46     		mov	sp, r7
 2671              		.cfi_def_cfa_register 13
 2672              		@ sp needed
 2673 0016 5DF8047B 		ldr	r7, [sp], #4
 2674              		.cfi_restore 7
 2675              		.cfi_def_cfa_offset 0
 2676 001a 7047     		bx	lr
 2677              	.L202:
 2678              		.align	2
 2679              	.L201:
 2680 001c 10420040 		.word	1073758736
ARM GAS  C:\Users\ben\AppData\Local\Temp\ccnBLHGm.s 			page 72


 2681              		.cfi_endproc
 2682              	.LFE35:
 2683              		.size	CyXTAL_DisableFaultRecovery, .-CyXTAL_DisableFaultRecovery
 2684              		.section	.text.CyXTAL_SetStartup,"ax",%progbits
 2685              		.align	2
 2686              		.global	CyXTAL_SetStartup
 2687              		.thumb
 2688              		.thumb_func
 2689              		.type	CyXTAL_SetStartup, %function
 2690              	CyXTAL_SetStartup:
 2691              	.LFB36:
1344:Generated_Source\PSoC5/CyLib.c **** 
1345:Generated_Source\PSoC5/CyLib.c **** 
1346:Generated_Source\PSoC5/CyLib.c **** /*******************************************************************************
1347:Generated_Source\PSoC5/CyLib.c **** * Function Name: CyXTAL_SetStartup
1348:Generated_Source\PSoC5/CyLib.c **** ****************************************************************************//**
1349:Generated_Source\PSoC5/CyLib.c **** *
1350:Generated_Source\PSoC5/CyLib.c **** *  Sets the startup settings for the crystal. The logic model outputs a
1351:Generated_Source\PSoC5/CyLib.c **** *  frequency (setting + 4) MHz when enabled.
1352:Generated_Source\PSoC5/CyLib.c **** *
1353:Generated_Source\PSoC5/CyLib.c **** *  This is artificial as the actual frequency is determined by an attached
1354:Generated_Source\PSoC5/CyLib.c **** *  external crystal.
1355:Generated_Source\PSoC5/CyLib.c **** *
1356:Generated_Source\PSoC5/CyLib.c **** *  \param setting: Valid range [0-31].
1357:Generated_Source\PSoC5/CyLib.c **** *   The value is dependent on the frequency and quality of the crystal being
1358:Generated_Source\PSoC5/CyLib.c **** *   used. Refer to the device TRM and datasheet for more information.
1359:Generated_Source\PSoC5/CyLib.c **** *
1360:Generated_Source\PSoC5/CyLib.c **** *******************************************************************************/
1361:Generated_Source\PSoC5/CyLib.c **** void CyXTAL_SetStartup(uint8 setting) 
1362:Generated_Source\PSoC5/CyLib.c **** {
 2692              		.loc 1 1362 0
 2693              		.cfi_startproc
 2694              		@ args = 0, pretend = 0, frame = 8
 2695              		@ frame_needed = 1, uses_anonymous_args = 0
 2696              		@ link register save eliminated.
 2697 0000 80B4     		push	{r7}
 2698              		.cfi_def_cfa_offset 4
 2699              		.cfi_offset 7, -4
 2700 0002 83B0     		sub	sp, sp, #12
 2701              		.cfi_def_cfa_offset 16
 2702 0004 00AF     		add	r7, sp, #0
 2703              		.cfi_def_cfa_register 7
 2704 0006 0346     		mov	r3, r0
 2705 0008 FB71     		strb	r3, [r7, #7]
1363:Generated_Source\PSoC5/CyLib.c ****     CY_CLK_XMHZ_CFG0_REG = (CY_CLK_XMHZ_CFG0_REG & ((uint8)(~CY_CLK_XMHZ_CFG0_XCFG_MASK))) |
 2706              		.loc 1 1363 0
 2707 000a 0949     		ldr	r1, .L204
 2708 000c 084B     		ldr	r3, .L204
 2709 000e 1B78     		ldrb	r3, [r3]
 2710 0010 DBB2     		uxtb	r3, r3
 2711 0012 23F01F03 		bic	r3, r3, #31
 2712 0016 DAB2     		uxtb	r2, r3
 2713 0018 FB79     		ldrb	r3, [r7, #7]
 2714 001a 03F01F03 		and	r3, r3, #31
 2715 001e DBB2     		uxtb	r3, r3
 2716 0020 1343     		orrs	r3, r3, r2
 2717 0022 DBB2     		uxtb	r3, r3
ARM GAS  C:\Users\ben\AppData\Local\Temp\ccnBLHGm.s 			page 73


 2718 0024 0B70     		strb	r3, [r1]
1364:Generated_Source\PSoC5/CyLib.c ****                            (setting & CY_CLK_XMHZ_CFG0_XCFG_MASK);
1365:Generated_Source\PSoC5/CyLib.c **** }
 2719              		.loc 1 1365 0
 2720 0026 0C37     		adds	r7, r7, #12
 2721              		.cfi_def_cfa_offset 4
 2722 0028 BD46     		mov	sp, r7
 2723              		.cfi_def_cfa_register 13
 2724              		@ sp needed
 2725 002a 5DF8047B 		ldr	r7, [sp], #4
 2726              		.cfi_restore 7
 2727              		.cfi_def_cfa_offset 0
 2728 002e 7047     		bx	lr
 2729              	.L205:
 2730              		.align	2
 2731              	.L204:
 2732 0030 12420040 		.word	1073758738
 2733              		.cfi_endproc
 2734              	.LFE36:
 2735              		.size	CyXTAL_SetStartup, .-CyXTAL_SetStartup
 2736              		.section	.text.CyXTAL_SetFbVoltage,"ax",%progbits
 2737              		.align	2
 2738              		.global	CyXTAL_SetFbVoltage
 2739              		.thumb
 2740              		.thumb_func
 2741              		.type	CyXTAL_SetFbVoltage, %function
 2742              	CyXTAL_SetFbVoltage:
 2743              	.LFB37:
1366:Generated_Source\PSoC5/CyLib.c **** 
1367:Generated_Source\PSoC5/CyLib.c **** 
1368:Generated_Source\PSoC5/CyLib.c **** 
1369:Generated_Source\PSoC5/CyLib.c **** /*******************************************************************************
1370:Generated_Source\PSoC5/CyLib.c **** * Function Name: CyXTAL_SetFbVoltage
1371:Generated_Source\PSoC5/CyLib.c **** ****************************************************************************//**
1372:Generated_Source\PSoC5/CyLib.c **** *
1373:Generated_Source\PSoC5/CyLib.c **** *  Sets the feedback reference voltage to use for the crystal circuit.
1374:Generated_Source\PSoC5/CyLib.c **** *  This function is only available for PSoC3 and PSoC 5LP.
1375:Generated_Source\PSoC5/CyLib.c **** *
1376:Generated_Source\PSoC5/CyLib.c **** *  \param setting: Valid range [0-15].
1377:Generated_Source\PSoC5/CyLib.c **** *  Refer to the device TRM and datasheet for more information.
1378:Generated_Source\PSoC5/CyLib.c **** *
1379:Generated_Source\PSoC5/CyLib.c **** *******************************************************************************/
1380:Generated_Source\PSoC5/CyLib.c **** void CyXTAL_SetFbVoltage(uint8 setting) 
1381:Generated_Source\PSoC5/CyLib.c **** {
 2744              		.loc 1 1381 0
 2745              		.cfi_startproc
 2746              		@ args = 0, pretend = 0, frame = 8
 2747              		@ frame_needed = 1, uses_anonymous_args = 0
 2748              		@ link register save eliminated.
 2749 0000 80B4     		push	{r7}
 2750              		.cfi_def_cfa_offset 4
 2751              		.cfi_offset 7, -4
 2752 0002 83B0     		sub	sp, sp, #12
 2753              		.cfi_def_cfa_offset 16
 2754 0004 00AF     		add	r7, sp, #0
 2755              		.cfi_def_cfa_register 7
 2756 0006 0346     		mov	r3, r0
ARM GAS  C:\Users\ben\AppData\Local\Temp\ccnBLHGm.s 			page 74


 2757 0008 FB71     		strb	r3, [r7, #7]
1382:Generated_Source\PSoC5/CyLib.c ****     CY_CLK_XMHZ_CFG1_REG = ((CY_CLK_XMHZ_CFG1_REG & ((uint8)(~CY_CLK_XMHZ_CFG1_VREF_FB_MASK))) |
 2758              		.loc 1 1382 0
 2759 000a 0949     		ldr	r1, .L207
 2760 000c 084B     		ldr	r3, .L207
 2761 000e 1B78     		ldrb	r3, [r3]
 2762 0010 DBB2     		uxtb	r3, r3
 2763 0012 23F00F03 		bic	r3, r3, #15
 2764 0016 DAB2     		uxtb	r2, r3
 2765 0018 FB79     		ldrb	r3, [r7, #7]
 2766 001a 03F00F03 		and	r3, r3, #15
 2767 001e DBB2     		uxtb	r3, r3
 2768 0020 1343     		orrs	r3, r3, r2
 2769 0022 DBB2     		uxtb	r3, r3
 2770 0024 0B70     		strb	r3, [r1]
1383:Generated_Source\PSoC5/CyLib.c ****                             (setting & CY_CLK_XMHZ_CFG1_VREF_FB_MASK));
1384:Generated_Source\PSoC5/CyLib.c **** }
 2771              		.loc 1 1384 0
 2772 0026 0C37     		adds	r7, r7, #12
 2773              		.cfi_def_cfa_offset 4
 2774 0028 BD46     		mov	sp, r7
 2775              		.cfi_def_cfa_register 13
 2776              		@ sp needed
 2777 002a 5DF8047B 		ldr	r7, [sp], #4
 2778              		.cfi_restore 7
 2779              		.cfi_def_cfa_offset 0
 2780 002e 7047     		bx	lr
 2781              	.L208:
 2782              		.align	2
 2783              	.L207:
 2784 0030 13420040 		.word	1073758739
 2785              		.cfi_endproc
 2786              	.LFE37:
 2787              		.size	CyXTAL_SetFbVoltage, .-CyXTAL_SetFbVoltage
 2788              		.section	.text.CyXTAL_SetWdVoltage,"ax",%progbits
 2789              		.align	2
 2790              		.global	CyXTAL_SetWdVoltage
 2791              		.thumb
 2792              		.thumb_func
 2793              		.type	CyXTAL_SetWdVoltage, %function
 2794              	CyXTAL_SetWdVoltage:
 2795              	.LFB38:
1385:Generated_Source\PSoC5/CyLib.c **** 
1386:Generated_Source\PSoC5/CyLib.c **** 
1387:Generated_Source\PSoC5/CyLib.c **** /*******************************************************************************
1388:Generated_Source\PSoC5/CyLib.c **** * Function Name: CyXTAL_SetWdVoltage
1389:Generated_Source\PSoC5/CyLib.c **** ****************************************************************************//**
1390:Generated_Source\PSoC5/CyLib.c **** *
1391:Generated_Source\PSoC5/CyLib.c **** *  Sets the reference voltage used by the watchdog to detect a failure in the
1392:Generated_Source\PSoC5/CyLib.c **** *  crystal circuit. This function is only available for PSoC3 and PSoC 5LP.
1393:Generated_Source\PSoC5/CyLib.c **** *
1394:Generated_Source\PSoC5/CyLib.c **** *  \param setting: Valid range [0-7].
1395:Generated_Source\PSoC5/CyLib.c **** *  Refer to the device TRM and datasheet for more information.
1396:Generated_Source\PSoC5/CyLib.c **** *
1397:Generated_Source\PSoC5/CyLib.c **** *******************************************************************************/
1398:Generated_Source\PSoC5/CyLib.c **** void CyXTAL_SetWdVoltage(uint8 setting) 
1399:Generated_Source\PSoC5/CyLib.c **** {
ARM GAS  C:\Users\ben\AppData\Local\Temp\ccnBLHGm.s 			page 75


 2796              		.loc 1 1399 0
 2797              		.cfi_startproc
 2798              		@ args = 0, pretend = 0, frame = 8
 2799              		@ frame_needed = 1, uses_anonymous_args = 0
 2800              		@ link register save eliminated.
 2801 0000 80B4     		push	{r7}
 2802              		.cfi_def_cfa_offset 4
 2803              		.cfi_offset 7, -4
 2804 0002 83B0     		sub	sp, sp, #12
 2805              		.cfi_def_cfa_offset 16
 2806 0004 00AF     		add	r7, sp, #0
 2807              		.cfi_def_cfa_register 7
 2808 0006 0346     		mov	r3, r0
 2809 0008 FB71     		strb	r3, [r7, #7]
1400:Generated_Source\PSoC5/CyLib.c ****     CY_CLK_XMHZ_CFG1_REG = ((CY_CLK_XMHZ_CFG1_REG & ((uint8)(~CY_CLK_XMHZ_CFG1_VREF_WD_MASK))) |
 2810              		.loc 1 1400 0
 2811 000a 0A49     		ldr	r1, .L210
 2812 000c 094B     		ldr	r3, .L210
 2813 000e 1B78     		ldrb	r3, [r3]
 2814 0010 DBB2     		uxtb	r3, r3
 2815 0012 23F07003 		bic	r3, r3, #112
 2816 0016 DAB2     		uxtb	r2, r3
1401:Generated_Source\PSoC5/CyLib.c ****                             (((uint8)(setting << 4u)) & CY_CLK_XMHZ_CFG1_VREF_WD_MASK));
 2817              		.loc 1 1401 0
 2818 0018 FB79     		ldrb	r3, [r7, #7]
 2819 001a 1B01     		lsls	r3, r3, #4
 2820 001c DBB2     		uxtb	r3, r3
1400:Generated_Source\PSoC5/CyLib.c ****     CY_CLK_XMHZ_CFG1_REG = ((CY_CLK_XMHZ_CFG1_REG & ((uint8)(~CY_CLK_XMHZ_CFG1_VREF_WD_MASK))) |
 2821              		.loc 1 1400 0
 2822 001e 03F07003 		and	r3, r3, #112
 2823 0022 DBB2     		uxtb	r3, r3
 2824 0024 1343     		orrs	r3, r3, r2
 2825 0026 DBB2     		uxtb	r3, r3
 2826 0028 0B70     		strb	r3, [r1]
1402:Generated_Source\PSoC5/CyLib.c **** }
 2827              		.loc 1 1402 0
 2828 002a 0C37     		adds	r7, r7, #12
 2829              		.cfi_def_cfa_offset 4
 2830 002c BD46     		mov	sp, r7
 2831              		.cfi_def_cfa_register 13
 2832              		@ sp needed
 2833 002e 5DF8047B 		ldr	r7, [sp], #4
 2834              		.cfi_restore 7
 2835              		.cfi_def_cfa_offset 0
 2836 0032 7047     		bx	lr
 2837              	.L211:
 2838              		.align	2
 2839              	.L210:
 2840 0034 13420040 		.word	1073758739
 2841              		.cfi_endproc
 2842              	.LFE38:
 2843              		.size	CyXTAL_SetWdVoltage, .-CyXTAL_SetWdVoltage
 2844              		.section	.text.CyHalt,"ax",%progbits
 2845              		.align	2
 2846              		.global	CyHalt
 2847              		.thumb
 2848              		.thumb_func
ARM GAS  C:\Users\ben\AppData\Local\Temp\ccnBLHGm.s 			page 76


 2849              		.type	CyHalt, %function
 2850              	CyHalt:
 2851              	.LFB39:
1403:Generated_Source\PSoC5/CyLib.c **** 
1404:Generated_Source\PSoC5/CyLib.c **** 
1405:Generated_Source\PSoC5/CyLib.c **** /*******************************************************************************
1406:Generated_Source\PSoC5/CyLib.c **** * Function Name: CyHalt
1407:Generated_Source\PSoC5/CyLib.c **** ****************************************************************************//**
1408:Generated_Source\PSoC5/CyLib.c **** *
1409:Generated_Source\PSoC5/CyLib.c **** *  Halts the CPU.
1410:Generated_Source\PSoC5/CyLib.c **** *
1411:Generated_Source\PSoC5/CyLib.c **** *  \param uint8 reason: Value to be used during debugging.
1412:Generated_Source\PSoC5/CyLib.c **** *
1413:Generated_Source\PSoC5/CyLib.c **** *******************************************************************************/
1414:Generated_Source\PSoC5/CyLib.c **** void CyHalt(uint8 reason) CYREENTRANT
1415:Generated_Source\PSoC5/CyLib.c **** {
 2852              		.loc 1 1415 0
 2853              		.cfi_startproc
 2854              		@ args = 0, pretend = 0, frame = 8
 2855              		@ frame_needed = 1, uses_anonymous_args = 0
 2856              		@ link register save eliminated.
 2857 0000 80B4     		push	{r7}
 2858              		.cfi_def_cfa_offset 4
 2859              		.cfi_offset 7, -4
 2860 0002 83B0     		sub	sp, sp, #12
 2861              		.cfi_def_cfa_offset 16
 2862 0004 00AF     		add	r7, sp, #0
 2863              		.cfi_def_cfa_register 7
 2864 0006 0346     		mov	r3, r0
 2865 0008 FB71     		strb	r3, [r7, #7]
1416:Generated_Source\PSoC5/CyLib.c ****     if(0u != reason)
1417:Generated_Source\PSoC5/CyLib.c ****     {
1418:Generated_Source\PSoC5/CyLib.c ****         /* To remove unreferenced local variable warning */
1419:Generated_Source\PSoC5/CyLib.c ****     }
1420:Generated_Source\PSoC5/CyLib.c **** 
1421:Generated_Source\PSoC5/CyLib.c ****     #if defined (__ARMCC_VERSION)
1422:Generated_Source\PSoC5/CyLib.c ****         __breakpoint(0x0);
1423:Generated_Source\PSoC5/CyLib.c ****     #elif defined(__GNUC__) || defined (__ICCARM__)
1424:Generated_Source\PSoC5/CyLib.c ****         __asm("    bkpt    1");
 2866              		.loc 1 1424 0
 2867              	@ 1424 "Generated_Source\PSoC5\CyLib.c" 1
 2868 000a 01BE     		    bkpt    1
 2869              	@ 0 "" 2
1425:Generated_Source\PSoC5/CyLib.c ****     #elif defined(__C51__)
1426:Generated_Source\PSoC5/CyLib.c ****         CYDEV_HALT_CPU;
1427:Generated_Source\PSoC5/CyLib.c ****     #endif  /* (__ARMCC_VERSION) */
1428:Generated_Source\PSoC5/CyLib.c **** }
 2870              		.loc 1 1428 0
 2871              		.thumb
 2872 000c 0C37     		adds	r7, r7, #12
 2873              		.cfi_def_cfa_offset 4
 2874 000e BD46     		mov	sp, r7
 2875              		.cfi_def_cfa_register 13
 2876              		@ sp needed
 2877 0010 5DF8047B 		ldr	r7, [sp], #4
 2878              		.cfi_restore 7
 2879              		.cfi_def_cfa_offset 0
ARM GAS  C:\Users\ben\AppData\Local\Temp\ccnBLHGm.s 			page 77


 2880 0014 7047     		bx	lr
 2881              		.cfi_endproc
 2882              	.LFE39:
 2883              		.size	CyHalt, .-CyHalt
 2884 0016 00BF     		.section	.text.CySoftwareReset,"ax",%progbits
 2885              		.align	2
 2886              		.global	CySoftwareReset
 2887              		.thumb
 2888              		.thumb_func
 2889              		.type	CySoftwareReset, %function
 2890              	CySoftwareReset:
 2891              	.LFB40:
1429:Generated_Source\PSoC5/CyLib.c **** 
1430:Generated_Source\PSoC5/CyLib.c **** 
1431:Generated_Source\PSoC5/CyLib.c **** /*******************************************************************************
1432:Generated_Source\PSoC5/CyLib.c **** * Function Name: CySoftwareReset
1433:Generated_Source\PSoC5/CyLib.c **** ****************************************************************************//**
1434:Generated_Source\PSoC5/CyLib.c **** *
1435:Generated_Source\PSoC5/CyLib.c **** *  Forces a device software reset.
1436:Generated_Source\PSoC5/CyLib.c **** *
1437:Generated_Source\PSoC5/CyLib.c **** *******************************************************************************/
1438:Generated_Source\PSoC5/CyLib.c **** void CySoftwareReset(void) 
1439:Generated_Source\PSoC5/CyLib.c **** {
 2892              		.loc 1 1439 0
 2893              		.cfi_startproc
 2894              		@ args = 0, pretend = 0, frame = 0
 2895              		@ frame_needed = 1, uses_anonymous_args = 0
 2896              		@ link register save eliminated.
 2897 0000 80B4     		push	{r7}
 2898              		.cfi_def_cfa_offset 4
 2899              		.cfi_offset 7, -4
 2900 0002 00AF     		add	r7, sp, #0
 2901              		.cfi_def_cfa_register 7
1440:Generated_Source\PSoC5/CyLib.c ****     CY_LIB_RESET_CR2_REG |= CY_LIB_RESET_CR2_RESET;
 2902              		.loc 1 1440 0
 2903 0004 054A     		ldr	r2, .L214
 2904 0006 054B     		ldr	r3, .L214
 2905 0008 1B78     		ldrb	r3, [r3]
 2906 000a DBB2     		uxtb	r3, r3
 2907 000c 43F00103 		orr	r3, r3, #1
 2908 0010 DBB2     		uxtb	r3, r3
 2909 0012 1370     		strb	r3, [r2]
1441:Generated_Source\PSoC5/CyLib.c **** }
 2910              		.loc 1 1441 0
 2911 0014 BD46     		mov	sp, r7
 2912              		.cfi_def_cfa_register 13
 2913              		@ sp needed
 2914 0016 5DF8047B 		ldr	r7, [sp], #4
 2915              		.cfi_restore 7
 2916              		.cfi_def_cfa_offset 0
 2917 001a 7047     		bx	lr
 2918              	.L215:
 2919              		.align	2
 2920              	.L214:
 2921 001c F6460040 		.word	1073759990
 2922              		.cfi_endproc
 2923              	.LFE40:
ARM GAS  C:\Users\ben\AppData\Local\Temp\ccnBLHGm.s 			page 78


 2924              		.size	CySoftwareReset, .-CySoftwareReset
 2925              		.section	.text.CyDelay,"ax",%progbits
 2926              		.align	2
 2927              		.global	CyDelay
 2928              		.thumb
 2929              		.thumb_func
 2930              		.type	CyDelay, %function
 2931              	CyDelay:
 2932              	.LFB41:
1442:Generated_Source\PSoC5/CyLib.c **** 
1443:Generated_Source\PSoC5/CyLib.c **** 
1444:Generated_Source\PSoC5/CyLib.c **** /*******************************************************************************
1445:Generated_Source\PSoC5/CyLib.c **** * Function Name: CyDelay
1446:Generated_Source\PSoC5/CyLib.c **** ****************************************************************************//**
1447:Generated_Source\PSoC5/CyLib.c **** *
1448:Generated_Source\PSoC5/CyLib.c **** *  Blocks for milliseconds.
1449:Generated_Source\PSoC5/CyLib.c **** *
1450:Generated_Source\PSoC5/CyLib.c **** *  Note:
1451:Generated_Source\PSoC5/CyLib.c **** *  CyDelay has been implemented with the instruction cache assumed enabled. When
1452:Generated_Source\PSoC5/CyLib.c **** *  the instruction cache is disabled on PSoC5, CyDelay will be two times larger.
1453:Generated_Source\PSoC5/CyLib.c **** *  For example, with instruction cache disabled CyDelay(100) would result in
1454:Generated_Source\PSoC5/CyLib.c **** *  about 200 ms delay instead of 100 ms.
1455:Generated_Source\PSoC5/CyLib.c **** *
1456:Generated_Source\PSoC5/CyLib.c **** *  \param milliseconds: number of milliseconds to delay.
1457:Generated_Source\PSoC5/CyLib.c **** *
1458:Generated_Source\PSoC5/CyLib.c **** *******************************************************************************/
1459:Generated_Source\PSoC5/CyLib.c **** void CyDelay(uint32 milliseconds) CYREENTRANT
1460:Generated_Source\PSoC5/CyLib.c **** {
 2933              		.loc 1 1460 0
 2934              		.cfi_startproc
 2935              		@ args = 0, pretend = 0, frame = 8
 2936              		@ frame_needed = 1, uses_anonymous_args = 0
 2937 0000 80B5     		push	{r7, lr}
 2938              		.cfi_def_cfa_offset 8
 2939              		.cfi_offset 7, -8
 2940              		.cfi_offset 14, -4
 2941 0002 82B0     		sub	sp, sp, #8
 2942              		.cfi_def_cfa_offset 16
 2943 0004 00AF     		add	r7, sp, #0
 2944              		.cfi_def_cfa_register 7
 2945 0006 7860     		str	r0, [r7, #4]
1461:Generated_Source\PSoC5/CyLib.c ****     while (milliseconds > 32768u)
 2946              		.loc 1 1461 0
 2947 0008 08E0     		b	.L217
 2948              	.L218:
1462:Generated_Source\PSoC5/CyLib.c ****     {
1463:Generated_Source\PSoC5/CyLib.c ****         /***********************************************************************
1464:Generated_Source\PSoC5/CyLib.c ****         * This loop prevents overflow.At 100MHz, milliseconds * delay_freq_khz
1465:Generated_Source\PSoC5/CyLib.c ****         * overflows at about 42 seconds.
1466:Generated_Source\PSoC5/CyLib.c ****         ***********************************************************************/
1467:Generated_Source\PSoC5/CyLib.c ****         CyDelayCycles(cydelay_32k_ms);
 2949              		.loc 1 1467 0
 2950 000a 0C4B     		ldr	r3, .L219
 2951 000c 1B68     		ldr	r3, [r3]
 2952 000e 1846     		mov	r0, r3
 2953 0010 FFF7FEFF 		bl	CyDelayCycles
1468:Generated_Source\PSoC5/CyLib.c ****         milliseconds = ((uint32)(milliseconds - 32768u));
ARM GAS  C:\Users\ben\AppData\Local\Temp\ccnBLHGm.s 			page 79


 2954              		.loc 1 1468 0
 2955 0014 7B68     		ldr	r3, [r7, #4]
 2956 0016 A3F50043 		sub	r3, r3, #32768
 2957 001a 7B60     		str	r3, [r7, #4]
 2958              	.L217:
1461:Generated_Source\PSoC5/CyLib.c ****     while (milliseconds > 32768u)
 2959              		.loc 1 1461 0
 2960 001c 7B68     		ldr	r3, [r7, #4]
 2961 001e B3F5004F 		cmp	r3, #32768
 2962 0022 F2D8     		bhi	.L218
1469:Generated_Source\PSoC5/CyLib.c ****     }
1470:Generated_Source\PSoC5/CyLib.c **** 
1471:Generated_Source\PSoC5/CyLib.c ****     CyDelayCycles(milliseconds * cydelay_freq_khz);
 2963              		.loc 1 1471 0
 2964 0024 064B     		ldr	r3, .L219+4
 2965 0026 1B68     		ldr	r3, [r3]
 2966 0028 7A68     		ldr	r2, [r7, #4]
 2967 002a 02FB03F3 		mul	r3, r2, r3
 2968 002e 1846     		mov	r0, r3
 2969 0030 FFF7FEFF 		bl	CyDelayCycles
1472:Generated_Source\PSoC5/CyLib.c **** }
 2970              		.loc 1 1472 0
 2971 0034 0837     		adds	r7, r7, #8
 2972              		.cfi_def_cfa_offset 8
 2973 0036 BD46     		mov	sp, r7
 2974              		.cfi_def_cfa_register 13
 2975              		@ sp needed
 2976 0038 80BD     		pop	{r7, pc}
 2977              	.L220:
 2978 003a 00BF     		.align	2
 2979              	.L219:
 2980 003c 00000000 		.word	cydelay_32k_ms
 2981 0040 00000000 		.word	cydelay_freq_khz
 2982              		.cfi_endproc
 2983              	.LFE41:
 2984              		.size	CyDelay, .-CyDelay
 2985              		.section	.text.CyDelayUs,"ax",%progbits
 2986              		.align	2
 2987              		.global	CyDelayUs
 2988              		.thumb
 2989              		.thumb_func
 2990              		.type	CyDelayUs, %function
 2991              	CyDelayUs:
 2992              	.LFB42:
1473:Generated_Source\PSoC5/CyLib.c **** 
1474:Generated_Source\PSoC5/CyLib.c **** 
1475:Generated_Source\PSoC5/CyLib.c **** #if(!CY_PSOC3)
1476:Generated_Source\PSoC5/CyLib.c **** 
1477:Generated_Source\PSoC5/CyLib.c ****     /* For PSoC3 devices function is defined in CyBootAsmKeil.a51 file */
1478:Generated_Source\PSoC5/CyLib.c **** 
1479:Generated_Source\PSoC5/CyLib.c ****     /*******************************************************************************
1480:Generated_Source\PSoC5/CyLib.c ****     * Function Name: CyDelayUs
1481:Generated_Source\PSoC5/CyLib.c ****     ****************************************************************************//**
1482:Generated_Source\PSoC5/CyLib.c ****     *
1483:Generated_Source\PSoC5/CyLib.c ****     *  Blocks for microseconds.
1484:Generated_Source\PSoC5/CyLib.c ****     *
1485:Generated_Source\PSoC5/CyLib.c ****     *  Note:
ARM GAS  C:\Users\ben\AppData\Local\Temp\ccnBLHGm.s 			page 80


1486:Generated_Source\PSoC5/CyLib.c ****     *   CyDelay has been implemented with the instruction cache assumed enabled.
1487:Generated_Source\PSoC5/CyLib.c ****     *   When instruction cache is disabled on PSoC5, CyDelayUs will be two times
1488:Generated_Source\PSoC5/CyLib.c ****     *   larger. Ex: With instruction cache disabled CyDelayUs(100) would result
1489:Generated_Source\PSoC5/CyLib.c ****     *   in about 200us delay instead of 100us.
1490:Generated_Source\PSoC5/CyLib.c ****     *
1491:Generated_Source\PSoC5/CyLib.c ****     *  \param uint16 microseconds: number of microseconds to delay.
1492:Generated_Source\PSoC5/CyLib.c ****     *
1493:Generated_Source\PSoC5/CyLib.c ****     * \sideeffect
1494:Generated_Source\PSoC5/CyLib.c ****     *  CyDelayUS has been implemented with the instruction cache assumed enabled.
1495:Generated_Source\PSoC5/CyLib.c ****     *  When the instruction cache is disabled on PSoC 5, CyDelayUs will be two times
1496:Generated_Source\PSoC5/CyLib.c ****     *  larger. For example, with the instruction cache disabled CyDelayUs(100) would
1497:Generated_Source\PSoC5/CyLib.c ****     *  result in about 200 us delay instead of 100 us.
1498:Generated_Source\PSoC5/CyLib.c ****     *
1499:Generated_Source\PSoC5/CyLib.c ****     *  If the bus clock frequency is a small non-integer number, the actual delay
1500:Generated_Source\PSoC5/CyLib.c ****     *  can be up to twice as long as the nominal value. The actual delay cannot be
1501:Generated_Source\PSoC5/CyLib.c ****     *  shorter than the nominal one.
1502:Generated_Source\PSoC5/CyLib.c ****     *******************************************************************************/
1503:Generated_Source\PSoC5/CyLib.c ****     void CyDelayUs(uint16 microseconds) CYREENTRANT
1504:Generated_Source\PSoC5/CyLib.c ****     {
 2993              		.loc 1 1504 0
 2994              		.cfi_startproc
 2995              		@ args = 0, pretend = 0, frame = 8
 2996              		@ frame_needed = 1, uses_anonymous_args = 0
 2997 0000 80B5     		push	{r7, lr}
 2998              		.cfi_def_cfa_offset 8
 2999              		.cfi_offset 7, -8
 3000              		.cfi_offset 14, -4
 3001 0002 82B0     		sub	sp, sp, #8
 3002              		.cfi_def_cfa_offset 16
 3003 0004 00AF     		add	r7, sp, #0
 3004              		.cfi_def_cfa_register 7
 3005 0006 0346     		mov	r3, r0
 3006 0008 FB80     		strh	r3, [r7, #6]	@ movhi
1505:Generated_Source\PSoC5/CyLib.c ****         CyDelayCycles((uint32)microseconds * cydelay_freq_mhz);
 3007              		.loc 1 1505 0
 3008 000a FB88     		ldrh	r3, [r7, #6]
 3009 000c 044A     		ldr	r2, .L222
 3010 000e 1278     		ldrb	r2, [r2]	@ zero_extendqisi2
 3011 0010 02FB03F3 		mul	r3, r2, r3
 3012 0014 1846     		mov	r0, r3
 3013 0016 FFF7FEFF 		bl	CyDelayCycles
1506:Generated_Source\PSoC5/CyLib.c ****     }
 3014              		.loc 1 1506 0
 3015 001a 0837     		adds	r7, r7, #8
 3016              		.cfi_def_cfa_offset 8
 3017 001c BD46     		mov	sp, r7
 3018              		.cfi_def_cfa_register 13
 3019              		@ sp needed
 3020 001e 80BD     		pop	{r7, pc}
 3021              	.L223:
 3022              		.align	2
 3023              	.L222:
 3024 0020 00000000 		.word	cydelay_freq_mhz
 3025              		.cfi_endproc
 3026              	.LFE42:
 3027              		.size	CyDelayUs, .-CyDelayUs
 3028              		.section	.text.CyDelayFreq,"ax",%progbits
ARM GAS  C:\Users\ben\AppData\Local\Temp\ccnBLHGm.s 			page 81


 3029              		.align	2
 3030              		.global	CyDelayFreq
 3031              		.thumb
 3032              		.thumb_func
 3033              		.type	CyDelayFreq, %function
 3034              	CyDelayFreq:
 3035              	.LFB43:
1507:Generated_Source\PSoC5/CyLib.c **** 
1508:Generated_Source\PSoC5/CyLib.c **** #endif  /* (!CY_PSOC3) */
1509:Generated_Source\PSoC5/CyLib.c **** 
1510:Generated_Source\PSoC5/CyLib.c **** 
1511:Generated_Source\PSoC5/CyLib.c **** /*******************************************************************************
1512:Generated_Source\PSoC5/CyLib.c **** * Function Name: CyDelayFreq
1513:Generated_Source\PSoC5/CyLib.c **** ****************************************************************************//**
1514:Generated_Source\PSoC5/CyLib.c **** *
1515:Generated_Source\PSoC5/CyLib.c **** *  Sets the clock frequency for CyDelay.
1516:Generated_Source\PSoC5/CyLib.c **** *
1517:Generated_Source\PSoC5/CyLib.c **** *  \param freq: The frequency of the bus clock in Hertz.
1518:Generated_Source\PSoC5/CyLib.c **** *
1519:Generated_Source\PSoC5/CyLib.c **** *******************************************************************************/
1520:Generated_Source\PSoC5/CyLib.c **** void CyDelayFreq(uint32 freq) CYREENTRANT
1521:Generated_Source\PSoC5/CyLib.c **** {
 3036              		.loc 1 1521 0
 3037              		.cfi_startproc
 3038              		@ args = 0, pretend = 0, frame = 8
 3039              		@ frame_needed = 1, uses_anonymous_args = 0
 3040              		@ link register save eliminated.
 3041 0000 80B4     		push	{r7}
 3042              		.cfi_def_cfa_offset 4
 3043              		.cfi_offset 7, -4
 3044 0002 83B0     		sub	sp, sp, #12
 3045              		.cfi_def_cfa_offset 16
 3046 0004 00AF     		add	r7, sp, #0
 3047              		.cfi_def_cfa_register 7
 3048 0006 7860     		str	r0, [r7, #4]
1522:Generated_Source\PSoC5/CyLib.c ****     if (freq != 0u)
 3049              		.loc 1 1522 0
 3050 0008 7B68     		ldr	r3, [r7, #4]
 3051 000a 002B     		cmp	r3, #0
 3052 000c 03D0     		beq	.L225
1523:Generated_Source\PSoC5/CyLib.c ****     {
1524:Generated_Source\PSoC5/CyLib.c ****         cydelay_freq_hz = freq;
 3053              		.loc 1 1524 0
 3054 000e 144A     		ldr	r2, .L227
 3055 0010 7B68     		ldr	r3, [r7, #4]
 3056 0012 1360     		str	r3, [r2]
 3057 0014 02E0     		b	.L226
 3058              	.L225:
1525:Generated_Source\PSoC5/CyLib.c ****     }
1526:Generated_Source\PSoC5/CyLib.c ****     else
1527:Generated_Source\PSoC5/CyLib.c ****     {
1528:Generated_Source\PSoC5/CyLib.c ****         cydelay_freq_hz = BCLK__BUS_CLK__HZ;
 3059              		.loc 1 1528 0
 3060 0016 124B     		ldr	r3, .L227
 3061 0018 124A     		ldr	r2, .L227+4
 3062 001a 1A60     		str	r2, [r3]
 3063              	.L226:
ARM GAS  C:\Users\ben\AppData\Local\Temp\ccnBLHGm.s 			page 82


1529:Generated_Source\PSoC5/CyLib.c ****     }
1530:Generated_Source\PSoC5/CyLib.c **** 
1531:Generated_Source\PSoC5/CyLib.c ****     cydelay_freq_mhz = (uint8)((cydelay_freq_hz + 999999u) / 1000000u);
 3064              		.loc 1 1531 0
 3065 001c 104B     		ldr	r3, .L227
 3066 001e 1B68     		ldr	r3, [r3]
 3067 0020 03F57423 		add	r3, r3, #999424
 3068 0024 03F23F23 		addw	r3, r3, #575
 3069 0028 0F4A     		ldr	r2, .L227+8
 3070 002a A2FB0323 		umull	r2, r3, r2, r3
 3071 002e 9B0C     		lsrs	r3, r3, #18
 3072 0030 DAB2     		uxtb	r2, r3
 3073 0032 0E4B     		ldr	r3, .L227+12
 3074 0034 1A70     		strb	r2, [r3]
1532:Generated_Source\PSoC5/CyLib.c ****     cydelay_freq_khz = (cydelay_freq_hz + 999u) / 1000u;
 3075              		.loc 1 1532 0
 3076 0036 0A4B     		ldr	r3, .L227
 3077 0038 1B68     		ldr	r3, [r3]
 3078 003a 03F2E733 		addw	r3, r3, #999
 3079 003e 0C4A     		ldr	r2, .L227+16
 3080 0040 A2FB0323 		umull	r2, r3, r2, r3
 3081 0044 9B09     		lsrs	r3, r3, #6
 3082 0046 0B4A     		ldr	r2, .L227+20
 3083 0048 1360     		str	r3, [r2]
1533:Generated_Source\PSoC5/CyLib.c ****     cydelay_32k_ms   = 32768u * cydelay_freq_khz;
 3084              		.loc 1 1533 0
 3085 004a 0A4B     		ldr	r3, .L227+20
 3086 004c 1B68     		ldr	r3, [r3]
 3087 004e DB03     		lsls	r3, r3, #15
 3088 0050 094A     		ldr	r2, .L227+24
 3089 0052 1360     		str	r3, [r2]
1534:Generated_Source\PSoC5/CyLib.c **** }
 3090              		.loc 1 1534 0
 3091 0054 0C37     		adds	r7, r7, #12
 3092              		.cfi_def_cfa_offset 4
 3093 0056 BD46     		mov	sp, r7
 3094              		.cfi_def_cfa_register 13
 3095              		@ sp needed
 3096 0058 5DF8047B 		ldr	r7, [sp], #4
 3097              		.cfi_restore 7
 3098              		.cfi_def_cfa_offset 0
 3099 005c 7047     		bx	lr
 3100              	.L228:
 3101 005e 00BF     		.align	2
 3102              	.L227:
 3103 0060 00000000 		.word	cydelay_freq_hz
 3104 0064 006CDC02 		.word	48000000
 3105 0068 83DE1B43 		.word	1125899907
 3106 006c 00000000 		.word	cydelay_freq_mhz
 3107 0070 D34D6210 		.word	274877907
 3108 0074 00000000 		.word	cydelay_freq_khz
 3109 0078 00000000 		.word	cydelay_32k_ms
 3110              		.cfi_endproc
 3111              	.LFE43:
 3112              		.size	CyDelayFreq, .-CyDelayFreq
 3113              		.section	.text.CyWdtStart,"ax",%progbits
 3114              		.align	2
ARM GAS  C:\Users\ben\AppData\Local\Temp\ccnBLHGm.s 			page 83


 3115              		.global	CyWdtStart
 3116              		.thumb
 3117              		.thumb_func
 3118              		.type	CyWdtStart, %function
 3119              	CyWdtStart:
 3120              	.LFB44:
1535:Generated_Source\PSoC5/CyLib.c **** 
1536:Generated_Source\PSoC5/CyLib.c **** 
1537:Generated_Source\PSoC5/CyLib.c **** /*******************************************************************************
1538:Generated_Source\PSoC5/CyLib.c **** * Function Name: CyWdtStart
1539:Generated_Source\PSoC5/CyLib.c **** ****************************************************************************//**
1540:Generated_Source\PSoC5/CyLib.c **** *
1541:Generated_Source\PSoC5/CyLib.c **** *  Enables the watchdog timer.
1542:Generated_Source\PSoC5/CyLib.c **** *
1543:Generated_Source\PSoC5/CyLib.c **** *  The timer is configured for the specified count interval, the central
1544:Generated_Source\PSoC5/CyLib.c **** *  timewheel is cleared, the setting for the low power mode is configured and
1545:Generated_Source\PSoC5/CyLib.c **** *  the watchdog timer is enabled.
1546:Generated_Source\PSoC5/CyLib.c **** *
1547:Generated_Source\PSoC5/CyLib.c **** *  Once enabled the watchdog cannot be disabled. The watchdog counts each time
1548:Generated_Source\PSoC5/CyLib.c **** *  the Central Time Wheel (CTW) reaches the period specified. The watchdog must
1549:Generated_Source\PSoC5/CyLib.c **** *  be cleared using the CyWdtClear() function before three ticks of the watchdog
1550:Generated_Source\PSoC5/CyLib.c **** *  timer occur. The CTW is free running, so this will occur after between 2 and
1551:Generated_Source\PSoC5/CyLib.c **** *  3 timer periods elapse.
1552:Generated_Source\PSoC5/CyLib.c **** *
1553:Generated_Source\PSoC5/CyLib.c **** *  PSoC5: The watchdog timer should not be used during sleep modes. Since the
1554:Generated_Source\PSoC5/CyLib.c **** *  WDT cannot be disabled after it is enabled, the WDT timeout period can be
1555:Generated_Source\PSoC5/CyLib.c **** *  set to be greater than the sleep wakeup period, then feed the dog on each
1556:Generated_Source\PSoC5/CyLib.c **** *  wakeup from Sleep.
1557:Generated_Source\PSoC5/CyLib.c **** *
1558:Generated_Source\PSoC5/CyLib.c **** *  \param ticks: One of the four available timer periods. Once WDT enabled, the
1559:Generated_Source\PSoC5/CyLib.c ****    interval cannot be changed.
1560:Generated_Source\PSoC5/CyLib.c **** *         CYWDT_2_TICKS     -     4 - 6     ms
1561:Generated_Source\PSoC5/CyLib.c **** *         CYWDT_16_TICKS    -    32 - 48    ms
1562:Generated_Source\PSoC5/CyLib.c **** *         CYWDT_128_TICKS   -   256 - 384   ms
1563:Generated_Source\PSoC5/CyLib.c **** *         CYWDT_1024_TICKS  - 2.048 - 3.072 s
1564:Generated_Source\PSoC5/CyLib.c **** *
1565:Generated_Source\PSoC5/CyLib.c **** *  \param lpMode: Low power mode configuration. This parameter is ignored for PSoC 5.
1566:Generated_Source\PSoC5/CyLib.c **** *          The WDT always acts as if CYWDT_LPMODE_NOCHANGE is passed.
1567:Generated_Source\PSoC5/CyLib.c **** *
1568:Generated_Source\PSoC5/CyLib.c **** *          CYWDT_LPMODE_NOCHANGE - No Change
1569:Generated_Source\PSoC5/CyLib.c **** *          CYWDT_LPMODE_MAXINTER - Switch to longest timer mode during low power
1570:Generated_Source\PSoC5/CyLib.c **** *                                 mode
1571:Generated_Source\PSoC5/CyLib.c **** *          CYWDT_LPMODE_DISABLED - Disable WDT during low power mode
1572:Generated_Source\PSoC5/CyLib.c **** *
1573:Generated_Source\PSoC5/CyLib.c **** * \sideeffect
1574:Generated_Source\PSoC5/CyLib.c **** *  PSoC5: The ILO 1 KHz must be enabled for proper WDT operation. Stopping the
1575:Generated_Source\PSoC5/CyLib.c **** *  ILO 1 kHz could break the active WDT functionality.
1576:Generated_Source\PSoC5/CyLib.c **** *
1577:Generated_Source\PSoC5/CyLib.c **** *******************************************************************************/
1578:Generated_Source\PSoC5/CyLib.c **** void CyWdtStart(uint8 ticks, uint8 lpMode) 
1579:Generated_Source\PSoC5/CyLib.c **** {
 3121              		.loc 1 1579 0
 3122              		.cfi_startproc
 3123              		@ args = 0, pretend = 0, frame = 8
 3124              		@ frame_needed = 1, uses_anonymous_args = 0
 3125              		@ link register save eliminated.
 3126 0000 80B4     		push	{r7}
ARM GAS  C:\Users\ben\AppData\Local\Temp\ccnBLHGm.s 			page 84


 3127              		.cfi_def_cfa_offset 4
 3128              		.cfi_offset 7, -4
 3129 0002 83B0     		sub	sp, sp, #12
 3130              		.cfi_def_cfa_offset 16
 3131 0004 00AF     		add	r7, sp, #0
 3132              		.cfi_def_cfa_register 7
 3133 0006 0346     		mov	r3, r0
 3134 0008 0A46     		mov	r2, r1
 3135 000a FB71     		strb	r3, [r7, #7]
 3136 000c 1346     		mov	r3, r2
 3137 000e BB71     		strb	r3, [r7, #6]
1580:Generated_Source\PSoC5/CyLib.c ****     /* Set WDT interval */
1581:Generated_Source\PSoC5/CyLib.c ****     CY_WDT_CFG_REG = (CY_WDT_CFG_REG & ((uint8)(~CY_WDT_CFG_INTERVAL_MASK))) | (ticks & CY_WDT_CFG_
 3138              		.loc 1 1581 0
 3139 0010 1D49     		ldr	r1, .L230
 3140 0012 1D4B     		ldr	r3, .L230
 3141 0014 1B78     		ldrb	r3, [r3]
 3142 0016 DBB2     		uxtb	r3, r3
 3143 0018 23F00303 		bic	r3, r3, #3
 3144 001c DAB2     		uxtb	r2, r3
 3145 001e FB79     		ldrb	r3, [r7, #7]
 3146 0020 03F00303 		and	r3, r3, #3
 3147 0024 DBB2     		uxtb	r3, r3
 3148 0026 1343     		orrs	r3, r3, r2
 3149 0028 DBB2     		uxtb	r3, r3
 3150 002a 0B70     		strb	r3, [r1]
1582:Generated_Source\PSoC5/CyLib.c **** 
1583:Generated_Source\PSoC5/CyLib.c ****     /* Reset CTW to ensure that first watchdog period is full */
1584:Generated_Source\PSoC5/CyLib.c ****     CY_WDT_CFG_REG |= CY_WDT_CFG_CTW_RESET;
 3151              		.loc 1 1584 0
 3152 002c 164A     		ldr	r2, .L230
 3153 002e 164B     		ldr	r3, .L230
 3154 0030 1B78     		ldrb	r3, [r3]
 3155 0032 DBB2     		uxtb	r3, r3
 3156 0034 63F07F03 		orn	r3, r3, #127
 3157 0038 DBB2     		uxtb	r3, r3
 3158 003a 1370     		strb	r3, [r2]
1585:Generated_Source\PSoC5/CyLib.c ****     CY_WDT_CFG_REG &= ((uint8)(~CY_WDT_CFG_CTW_RESET));
 3159              		.loc 1 1585 0
 3160 003c 124A     		ldr	r2, .L230
 3161 003e 124B     		ldr	r3, .L230
 3162 0040 1B78     		ldrb	r3, [r3]
 3163 0042 DBB2     		uxtb	r3, r3
 3164 0044 03F07F03 		and	r3, r3, #127
 3165 0048 DBB2     		uxtb	r3, r3
 3166 004a 1370     		strb	r3, [r2]
1586:Generated_Source\PSoC5/CyLib.c **** 
1587:Generated_Source\PSoC5/CyLib.c ****     /* Setting low power mode */
1588:Generated_Source\PSoC5/CyLib.c ****     CY_WDT_CFG_REG = (((uint8)(lpMode << CY_WDT_CFG_LPMODE_SHIFT)) & CY_WDT_CFG_LPMODE_MASK) |
 3167              		.loc 1 1588 0
 3168 004c 0E49     		ldr	r1, .L230
 3169 004e BB79     		ldrb	r3, [r7, #6]
 3170 0050 5B01     		lsls	r3, r3, #5
 3171 0052 DBB2     		uxtb	r3, r3
 3172 0054 03F06003 		and	r3, r3, #96
 3173 0058 DAB2     		uxtb	r2, r3
1589:Generated_Source\PSoC5/CyLib.c ****                        (CY_WDT_CFG_REG & ((uint8)(~CY_WDT_CFG_LPMODE_MASK)));
ARM GAS  C:\Users\ben\AppData\Local\Temp\ccnBLHGm.s 			page 85


 3174              		.loc 1 1589 0
 3175 005a 0B4B     		ldr	r3, .L230
 3176 005c 1B78     		ldrb	r3, [r3]
 3177 005e DBB2     		uxtb	r3, r3
1588:Generated_Source\PSoC5/CyLib.c ****                        (CY_WDT_CFG_REG & ((uint8)(~CY_WDT_CFG_LPMODE_MASK)));
 3178              		.loc 1 1588 0
 3179 0060 23F06003 		bic	r3, r3, #96
 3180 0064 DBB2     		uxtb	r3, r3
 3181 0066 1343     		orrs	r3, r3, r2
 3182 0068 DBB2     		uxtb	r3, r3
 3183 006a 0B70     		strb	r3, [r1]
1590:Generated_Source\PSoC5/CyLib.c **** 
1591:Generated_Source\PSoC5/CyLib.c ****     /* Enables watchdog reset */
1592:Generated_Source\PSoC5/CyLib.c ****     CY_WDT_CFG_REG |= CY_WDT_CFG_WDR_EN;
 3184              		.loc 1 1592 0
 3185 006c 064A     		ldr	r2, .L230
 3186 006e 064B     		ldr	r3, .L230
 3187 0070 1B78     		ldrb	r3, [r3]
 3188 0072 DBB2     		uxtb	r3, r3
 3189 0074 43F01003 		orr	r3, r3, #16
 3190 0078 DBB2     		uxtb	r3, r3
 3191 007a 1370     		strb	r3, [r2]
1593:Generated_Source\PSoC5/CyLib.c **** }
 3192              		.loc 1 1593 0
 3193 007c 0C37     		adds	r7, r7, #12
 3194              		.cfi_def_cfa_offset 4
 3195 007e BD46     		mov	sp, r7
 3196              		.cfi_def_cfa_register 13
 3197              		@ sp needed
 3198 0080 5DF8047B 		ldr	r7, [sp], #4
 3199              		.cfi_restore 7
 3200              		.cfi_def_cfa_offset 0
 3201 0084 7047     		bx	lr
 3202              	.L231:
 3203 0086 00BF     		.align	2
 3204              	.L230:
 3205 0088 83430040 		.word	1073759107
 3206              		.cfi_endproc
 3207              	.LFE44:
 3208              		.size	CyWdtStart, .-CyWdtStart
 3209              		.section	.text.CyWdtClear,"ax",%progbits
 3210              		.align	2
 3211              		.global	CyWdtClear
 3212              		.thumb
 3213              		.thumb_func
 3214              		.type	CyWdtClear, %function
 3215              	CyWdtClear:
 3216              	.LFB45:
1594:Generated_Source\PSoC5/CyLib.c **** 
1595:Generated_Source\PSoC5/CyLib.c **** 
1596:Generated_Source\PSoC5/CyLib.c **** /*******************************************************************************
1597:Generated_Source\PSoC5/CyLib.c **** * Function Name: CyWdtClear
1598:Generated_Source\PSoC5/CyLib.c **** ****************************************************************************//**
1599:Generated_Source\PSoC5/CyLib.c **** *
1600:Generated_Source\PSoC5/CyLib.c **** *  Clears (feeds) the watchdog timer.
1601:Generated_Source\PSoC5/CyLib.c **** *
1602:Generated_Source\PSoC5/CyLib.c **** *******************************************************************************/
ARM GAS  C:\Users\ben\AppData\Local\Temp\ccnBLHGm.s 			page 86


1603:Generated_Source\PSoC5/CyLib.c **** void CyWdtClear(void) 
1604:Generated_Source\PSoC5/CyLib.c **** {
 3217              		.loc 1 1604 0
 3218              		.cfi_startproc
 3219              		@ args = 0, pretend = 0, frame = 0
 3220              		@ frame_needed = 1, uses_anonymous_args = 0
 3221              		@ link register save eliminated.
 3222 0000 80B4     		push	{r7}
 3223              		.cfi_def_cfa_offset 4
 3224              		.cfi_offset 7, -4
 3225 0002 00AF     		add	r7, sp, #0
 3226              		.cfi_def_cfa_register 7
1605:Generated_Source\PSoC5/CyLib.c ****     CY_WDT_CR_REG = CY_WDT_CR_FEED;
 3227              		.loc 1 1605 0
 3228 0004 034B     		ldr	r3, .L233
 3229 0006 0122     		movs	r2, #1
 3230 0008 1A70     		strb	r2, [r3]
1606:Generated_Source\PSoC5/CyLib.c **** }
 3231              		.loc 1 1606 0
 3232 000a BD46     		mov	sp, r7
 3233              		.cfi_def_cfa_register 13
 3234              		@ sp needed
 3235 000c 5DF8047B 		ldr	r7, [sp], #4
 3236              		.cfi_restore 7
 3237              		.cfi_def_cfa_offset 0
 3238 0010 7047     		bx	lr
 3239              	.L234:
 3240 0012 00BF     		.align	2
 3241              	.L233:
 3242 0014 84430040 		.word	1073759108
 3243              		.cfi_endproc
 3244              	.LFE45:
 3245              		.size	CyWdtClear, .-CyWdtClear
 3246              		.section	.text.CyVdLvDigitEnable,"ax",%progbits
 3247              		.align	2
 3248              		.global	CyVdLvDigitEnable
 3249              		.thumb
 3250              		.thumb_func
 3251              		.type	CyVdLvDigitEnable, %function
 3252              	CyVdLvDigitEnable:
 3253              	.LFB46:
1607:Generated_Source\PSoC5/CyLib.c **** 
1608:Generated_Source\PSoC5/CyLib.c **** 
1609:Generated_Source\PSoC5/CyLib.c **** 
1610:Generated_Source\PSoC5/CyLib.c **** /*******************************************************************************
1611:Generated_Source\PSoC5/CyLib.c **** * Function Name: CyVdLvDigitEnable
1612:Generated_Source\PSoC5/CyLib.c **** ****************************************************************************//**
1613:Generated_Source\PSoC5/CyLib.c **** *
1614:Generated_Source\PSoC5/CyLib.c **** *  Sets the voltage trip level, enables the output of the digital low-voltage
1615:Generated_Source\PSoC5/CyLib.c **** *  monitor, and optionally configures voltage monitor to reset device upon the
1616:Generated_Source\PSoC5/CyLib.c **** *  low-voltage event instead of generating an interrupt.
1617:Generated_Source\PSoC5/CyLib.c **** *
1618:Generated_Source\PSoC5/CyLib.c **** *  Note The associated interrupt enable/disable state is not changed by the
1619:Generated_Source\PSoC5/CyLib.c **** *  function. The Interrupt component API should be used to register the
1620:Generated_Source\PSoC5/CyLib.c **** *  interrupt service routine and to enable/disable associated interrupt.
1621:Generated_Source\PSoC5/CyLib.c **** *
1622:Generated_Source\PSoC5/CyLib.c **** *  \param reset: Enables device reset on digital low-voltage event:
ARM GAS  C:\Users\ben\AppData\Local\Temp\ccnBLHGm.s 			page 87


1623:Generated_Source\PSoC5/CyLib.c **** *   Zero - Interrupt on digital low-voltage event
1624:Generated_Source\PSoC5/CyLib.c **** *   Non-zero - Reset on digital low-voltage event
1625:Generated_Source\PSoC5/CyLib.c **** *
1626:Generated_Source\PSoC5/CyLib.c **** *  \param threshold: Sets the trip point of the digital low-voltage monitoring circuit
1627:Generated_Source\PSoC5/CyLib.c **** *   in steps of approximately 250 mV in range from 1.70 V (0x00) to 5.45 V
1628:Generated_Source\PSoC5/CyLib.c **** *   (0x0F). For example, the trip point is set to 1.80 V when the threshold
1629:Generated_Source\PSoC5/CyLib.c **** *   parameter value is 0x04. Refer to the device TRM for the exact trip voltage
1630:Generated_Source\PSoC5/CyLib.c **** *   values.
1631:Generated_Source\PSoC5/CyLib.c **** *
1632:Generated_Source\PSoC5/CyLib.c **** * Side Effects and Restrictions:
1633:Generated_Source\PSoC5/CyLib.c **** *  The voltage resets are momentary. When a voltage reset (analog/digital
1634:Generated_Source\PSoC5/CyLib.c **** *  low-voltage and analog high-voltage) occurs, the RESET_CR1 and RESET_CR3
1635:Generated_Source\PSoC5/CyLib.c **** *  registers are restored to their default values. This means that the voltage
1636:Generated_Source\PSoC5/CyLib.c **** *  monitor circuit is no longer enabled and the device exits reset. If the
1637:Generated_Source\PSoC5/CyLib.c **** *  supply is below the trip level and firmware enables the voltage reset
1638:Generated_Source\PSoC5/CyLib.c **** *  functionality, the device will reset again. This will continue as long as the
1639:Generated_Source\PSoC5/CyLib.c **** *  supply is below the trip level or as long as the user enables the reset
1640:Generated_Source\PSoC5/CyLib.c **** *  functionality of the voltage monitor functionality.
1641:Generated_Source\PSoC5/CyLib.c **** *
1642:Generated_Source\PSoC5/CyLib.c **** *  When any voltage reset occurs, the RESET_SR0 and RESET_SR2 status registers
1643:Generated_Source\PSoC5/CyLib.c **** *  are cleared. This means that analog low-voltage, digital low-voltage and
1644:Generated_Source\PSoC5/CyLib.c **** *  analog high-voltage status bits are not persistent across any voltage reset.
1645:Generated_Source\PSoC5/CyLib.c **** *
1646:Generated_Source\PSoC5/CyLib.c **** *******************************************************************************/
1647:Generated_Source\PSoC5/CyLib.c **** void CyVdLvDigitEnable(uint8 reset, uint8 threshold) 
1648:Generated_Source\PSoC5/CyLib.c **** {
 3254              		.loc 1 1648 0
 3255              		.cfi_startproc
 3256              		@ args = 0, pretend = 0, frame = 16
 3257              		@ frame_needed = 1, uses_anonymous_args = 0
 3258 0000 80B5     		push	{r7, lr}
 3259              		.cfi_def_cfa_offset 8
 3260              		.cfi_offset 7, -8
 3261              		.cfi_offset 14, -4
 3262 0002 84B0     		sub	sp, sp, #16
 3263              		.cfi_def_cfa_offset 24
 3264 0004 00AF     		add	r7, sp, #0
 3265              		.cfi_def_cfa_register 7
 3266 0006 0346     		mov	r3, r0
 3267 0008 0A46     		mov	r2, r1
 3268 000a FB71     		strb	r3, [r7, #7]
 3269 000c 1346     		mov	r3, r2
 3270 000e BB71     		strb	r3, [r7, #6]
1649:Generated_Source\PSoC5/CyLib.c ****     uint32 intRegTmp;
1650:Generated_Source\PSoC5/CyLib.c ****     uint8 interruptState;
1651:Generated_Source\PSoC5/CyLib.c **** 
1652:Generated_Source\PSoC5/CyLib.c ****     interruptState = CyEnterCriticalSection();
 3271              		.loc 1 1652 0
 3272 0010 FFF7FEFF 		bl	CyEnterCriticalSection
 3273 0014 0346     		mov	r3, r0
 3274 0016 FB73     		strb	r3, [r7, #15]
1653:Generated_Source\PSoC5/CyLib.c **** 
1654:Generated_Source\PSoC5/CyLib.c ****     /* Store interrupt enable state */
1655:Generated_Source\PSoC5/CyLib.c ****     intRegTmp = CY_INT_ENABLE_REG & CY_VD_INT_MASK;
 3275              		.loc 1 1655 0
 3276 0018 264B     		ldr	r3, .L238
 3277 001a 1B68     		ldr	r3, [r3]
ARM GAS  C:\Users\ben\AppData\Local\Temp\ccnBLHGm.s 			page 88


 3278 001c 03F00103 		and	r3, r3, #1
 3279 0020 BB60     		str	r3, [r7, #8]
1656:Generated_Source\PSoC5/CyLib.c **** 
1657:Generated_Source\PSoC5/CyLib.c ****     /* Disable VD interrupt (write 1) to protect against glitches */
1658:Generated_Source\PSoC5/CyLib.c ****     CY_INT_CLEAR_REG = CY_VD_INT_MASK;
 3280              		.loc 1 1658 0
 3281 0022 254B     		ldr	r3, .L238+4
 3282 0024 0122     		movs	r2, #1
 3283 0026 1A60     		str	r2, [r3]
1659:Generated_Source\PSoC5/CyLib.c **** 
1660:Generated_Source\PSoC5/CyLib.c ****     CY_VD_PRES_CONTROL_REG &= ((uint8)(~CY_VD_PRESD_EN));
 3284              		.loc 1 1660 0
 3285 0028 244A     		ldr	r2, .L238+8
 3286 002a 244B     		ldr	r3, .L238+8
 3287 002c 1B78     		ldrb	r3, [r3]
 3288 002e DBB2     		uxtb	r3, r3
 3289 0030 23F04003 		bic	r3, r3, #64
 3290 0034 DBB2     		uxtb	r3, r3
 3291 0036 1370     		strb	r3, [r2]
1661:Generated_Source\PSoC5/CyLib.c **** 
1662:Generated_Source\PSoC5/CyLib.c ****     CY_VD_LVI_TRIP_REG = (threshold & CY_VD_LVI_TRIP_LVID_MASK) |
 3292              		.loc 1 1662 0
 3293 0038 2149     		ldr	r1, .L238+12
 3294 003a BB79     		ldrb	r3, [r7, #6]
 3295 003c 03F00F03 		and	r3, r3, #15
 3296 0040 DAB2     		uxtb	r2, r3
1663:Generated_Source\PSoC5/CyLib.c ****                             (CY_VD_LVI_TRIP_REG & ((uint8)(~CY_VD_LVI_TRIP_LVID_MASK)));
 3297              		.loc 1 1663 0
 3298 0042 1F4B     		ldr	r3, .L238+12
 3299 0044 1B78     		ldrb	r3, [r3]
 3300 0046 DBB2     		uxtb	r3, r3
1662:Generated_Source\PSoC5/CyLib.c ****                             (CY_VD_LVI_TRIP_REG & ((uint8)(~CY_VD_LVI_TRIP_LVID_MASK)));
 3301              		.loc 1 1662 0
 3302 0048 23F00F03 		bic	r3, r3, #15
 3303 004c DBB2     		uxtb	r3, r3
 3304 004e 1343     		orrs	r3, r3, r2
 3305 0050 DBB2     		uxtb	r3, r3
 3306 0052 0B70     		strb	r3, [r1]
1664:Generated_Source\PSoC5/CyLib.c ****     CY_VD_LVI_HVI_CONTROL_REG |= CY_VD_LVID_EN;
 3307              		.loc 1 1664 0
 3308 0054 1B4A     		ldr	r2, .L238+16
 3309 0056 1B4B     		ldr	r3, .L238+16
 3310 0058 1B78     		ldrb	r3, [r3]
 3311 005a DBB2     		uxtb	r3, r3
 3312 005c 43F00103 		orr	r3, r3, #1
 3313 0060 DBB2     		uxtb	r3, r3
 3314 0062 1370     		strb	r3, [r2]
1665:Generated_Source\PSoC5/CyLib.c **** 
1666:Generated_Source\PSoC5/CyLib.c ****     /* Timeout to eliminate glitches on LVI/HVI when enabling (ID # 127412) */
1667:Generated_Source\PSoC5/CyLib.c ****     CyDelayUs(1u);
 3315              		.loc 1 1667 0
 3316 0064 0120     		movs	r0, #1
 3317 0066 FFF7FEFF 		bl	CyDelayUs
1668:Generated_Source\PSoC5/CyLib.c **** 
1669:Generated_Source\PSoC5/CyLib.c ****     (void) CyVdStickyStatus(CY_VD_LVID);
 3318              		.loc 1 1669 0
 3319 006a 0120     		movs	r0, #1
ARM GAS  C:\Users\ben\AppData\Local\Temp\ccnBLHGm.s 			page 89


 3320 006c FFF7FEFF 		bl	CyVdStickyStatus
1670:Generated_Source\PSoC5/CyLib.c **** 
1671:Generated_Source\PSoC5/CyLib.c ****     if(0u != reset)
 3321              		.loc 1 1671 0
 3322 0070 FB79     		ldrb	r3, [r7, #7]	@ zero_extendqisi2
 3323 0072 002B     		cmp	r3, #0
 3324 0074 08D0     		beq	.L236
1672:Generated_Source\PSoC5/CyLib.c ****     {
1673:Generated_Source\PSoC5/CyLib.c ****         CY_VD_PRES_CONTROL_REG |= CY_VD_PRESD_EN;
 3325              		.loc 1 1673 0
 3326 0076 114A     		ldr	r2, .L238+8
 3327 0078 104B     		ldr	r3, .L238+8
 3328 007a 1B78     		ldrb	r3, [r3]
 3329 007c DBB2     		uxtb	r3, r3
 3330 007e 43F04003 		orr	r3, r3, #64
 3331 0082 DBB2     		uxtb	r3, r3
 3332 0084 1370     		strb	r3, [r2]
 3333 0086 07E0     		b	.L237
 3334              	.L236:
1674:Generated_Source\PSoC5/CyLib.c ****     }
1675:Generated_Source\PSoC5/CyLib.c ****     else
1676:Generated_Source\PSoC5/CyLib.c ****     {
1677:Generated_Source\PSoC5/CyLib.c ****         CY_VD_PRES_CONTROL_REG &= ((uint8)(~CY_VD_PRESD_EN));
 3335              		.loc 1 1677 0
 3336 0088 0C4A     		ldr	r2, .L238+8
 3337 008a 0C4B     		ldr	r3, .L238+8
 3338 008c 1B78     		ldrb	r3, [r3]
 3339 008e DBB2     		uxtb	r3, r3
 3340 0090 23F04003 		bic	r3, r3, #64
 3341 0094 DBB2     		uxtb	r3, r3
 3342 0096 1370     		strb	r3, [r2]
 3343              	.L237:
1678:Generated_Source\PSoC5/CyLib.c ****     }
1679:Generated_Source\PSoC5/CyLib.c **** 
1680:Generated_Source\PSoC5/CyLib.c ****     /* Clear pending interrupt */
1681:Generated_Source\PSoC5/CyLib.c ****     CY_INT_CLR_PEND_REG = CY_VD_INT_MASK;
 3344              		.loc 1 1681 0
 3345 0098 0B4B     		ldr	r3, .L238+20
 3346 009a 0122     		movs	r2, #1
 3347 009c 1A60     		str	r2, [r3]
1682:Generated_Source\PSoC5/CyLib.c **** 
1683:Generated_Source\PSoC5/CyLib.c ****     /* Restore interrupt enable state */
1684:Generated_Source\PSoC5/CyLib.c ****     CY_INT_ENABLE_REG = intRegTmp;
 3348              		.loc 1 1684 0
 3349 009e 054A     		ldr	r2, .L238
 3350 00a0 BB68     		ldr	r3, [r7, #8]
 3351 00a2 1360     		str	r3, [r2]
1685:Generated_Source\PSoC5/CyLib.c **** 
1686:Generated_Source\PSoC5/CyLib.c ****     CyExitCriticalSection(interruptState);
 3352              		.loc 1 1686 0
 3353 00a4 FB7B     		ldrb	r3, [r7, #15]	@ zero_extendqisi2
 3354 00a6 1846     		mov	r0, r3
 3355 00a8 FFF7FEFF 		bl	CyExitCriticalSection
1687:Generated_Source\PSoC5/CyLib.c **** }
 3356              		.loc 1 1687 0
 3357 00ac 1037     		adds	r7, r7, #16
 3358              		.cfi_def_cfa_offset 8
ARM GAS  C:\Users\ben\AppData\Local\Temp\ccnBLHGm.s 			page 90


 3359 00ae BD46     		mov	sp, r7
 3360              		.cfi_def_cfa_register 13
 3361              		@ sp needed
 3362 00b0 80BD     		pop	{r7, pc}
 3363              	.L239:
 3364 00b2 00BF     		.align	2
 3365              	.L238:
 3366 00b4 00E100E0 		.word	-536813312
 3367 00b8 80E100E0 		.word	-536813184
 3368 00bc F7460040 		.word	1073759991
 3369 00c0 F4460040 		.word	1073759988
 3370 00c4 F5460040 		.word	1073759989
 3371 00c8 80E200E0 		.word	-536812928
 3372              		.cfi_endproc
 3373              	.LFE46:
 3374              		.size	CyVdLvDigitEnable, .-CyVdLvDigitEnable
 3375              		.section	.text.CyVdLvAnalogEnable,"ax",%progbits
 3376              		.align	2
 3377              		.global	CyVdLvAnalogEnable
 3378              		.thumb
 3379              		.thumb_func
 3380              		.type	CyVdLvAnalogEnable, %function
 3381              	CyVdLvAnalogEnable:
 3382              	.LFB47:
1688:Generated_Source\PSoC5/CyLib.c **** 
1689:Generated_Source\PSoC5/CyLib.c **** 
1690:Generated_Source\PSoC5/CyLib.c **** /*******************************************************************************
1691:Generated_Source\PSoC5/CyLib.c **** * Function Name: CyVdLvAnalogEnable
1692:Generated_Source\PSoC5/CyLib.c **** ****************************************************************************//**
1693:Generated_Source\PSoC5/CyLib.c **** *
1694:Generated_Source\PSoC5/CyLib.c **** *  Sets the voltage trip level, enables the output of the analog low-voltage
1695:Generated_Source\PSoC5/CyLib.c **** *  monitor, and optionally configures voltage monitor to reset device upon the
1696:Generated_Source\PSoC5/CyLib.c **** *  low-voltage event instead of generating an interrupt.
1697:Generated_Source\PSoC5/CyLib.c **** *
1698:Generated_Source\PSoC5/CyLib.c **** *  Note The associated interrupt enable/disable state is not changed by the
1699:Generated_Source\PSoC5/CyLib.c **** *  function. The Interrupt component API should be used to register the
1700:Generated_Source\PSoC5/CyLib.c **** *  interrupt service routine and to enable/disable associated interrupt.
1701:Generated_Source\PSoC5/CyLib.c **** *
1702:Generated_Source\PSoC5/CyLib.c **** *  \param reset: Enables device reset on analog low-voltage event:
1703:Generated_Source\PSoC5/CyLib.c **** *  Zero - Interrupt on analog low-voltage event
1704:Generated_Source\PSoC5/CyLib.c **** *  Non-zero - Reset on analog low-voltage event
1705:Generated_Source\PSoC5/CyLib.c **** *
1706:Generated_Source\PSoC5/CyLib.c **** *  \param threshold: Sets the trip point of the analog low-voltage monitoring circuit
1707:Generated_Source\PSoC5/CyLib.c **** *  in steps of approximately 250 mV in range from 1.70 V (0x00) to 5.45 V
1708:Generated_Source\PSoC5/CyLib.c **** *  (0x0F). For example, the trip point is set to 1.80 V when value of the
1709:Generated_Source\PSoC5/CyLib.c **** *  threshold parameter is 0x04. Please refer to the device TRM for the exact
1710:Generated_Source\PSoC5/CyLib.c **** *  trip voltage values.
1711:Generated_Source\PSoC5/CyLib.c **** *
1712:Generated_Source\PSoC5/CyLib.c **** * Side Effects and Restrictions:
1713:Generated_Source\PSoC5/CyLib.c **** *  The voltage resets are momentary. When a voltage reset (analog/digital
1714:Generated_Source\PSoC5/CyLib.c **** *  low-voltage and analog high-voltage) occurs, the RESET_CR1 and RESET_CR3
1715:Generated_Source\PSoC5/CyLib.c **** *  registers are restored to their default values. This means that the voltage
1716:Generated_Source\PSoC5/CyLib.c **** *  monitor circuit is no longer enabled and the device exits reset. If the
1717:Generated_Source\PSoC5/CyLib.c **** *  supply is below the trip level and firmware enables the voltage reset
1718:Generated_Source\PSoC5/CyLib.c **** *  functionality, the device will reset again. This will continue as long as
1719:Generated_Source\PSoC5/CyLib.c **** *  the supply is below the trip level or as long as the user enables the reset
1720:Generated_Source\PSoC5/CyLib.c **** *  functionality of the voltage monitor functionality.
ARM GAS  C:\Users\ben\AppData\Local\Temp\ccnBLHGm.s 			page 91


1721:Generated_Source\PSoC5/CyLib.c **** *
1722:Generated_Source\PSoC5/CyLib.c **** *  When any voltage reset occurs, the RESET_SR0 and RESET_SR2 status registers
1723:Generated_Source\PSoC5/CyLib.c **** *  are cleared. This means that analog low-voltage, digital low-voltage and
1724:Generated_Source\PSoC5/CyLib.c **** *  analog high-voltage status bits are not persistent across any voltage reset.
1725:Generated_Source\PSoC5/CyLib.c **** *
1726:Generated_Source\PSoC5/CyLib.c **** *******************************************************************************/
1727:Generated_Source\PSoC5/CyLib.c **** void CyVdLvAnalogEnable(uint8 reset, uint8 threshold) 
1728:Generated_Source\PSoC5/CyLib.c **** {
 3383              		.loc 1 1728 0
 3384              		.cfi_startproc
 3385              		@ args = 0, pretend = 0, frame = 16
 3386              		@ frame_needed = 1, uses_anonymous_args = 0
 3387 0000 80B5     		push	{r7, lr}
 3388              		.cfi_def_cfa_offset 8
 3389              		.cfi_offset 7, -8
 3390              		.cfi_offset 14, -4
 3391 0002 84B0     		sub	sp, sp, #16
 3392              		.cfi_def_cfa_offset 24
 3393 0004 00AF     		add	r7, sp, #0
 3394              		.cfi_def_cfa_register 7
 3395 0006 0346     		mov	r3, r0
 3396 0008 0A46     		mov	r2, r1
 3397 000a FB71     		strb	r3, [r7, #7]
 3398 000c 1346     		mov	r3, r2
 3399 000e BB71     		strb	r3, [r7, #6]
1729:Generated_Source\PSoC5/CyLib.c ****     uint32 intRegTmp;
1730:Generated_Source\PSoC5/CyLib.c ****     uint8 interruptState;
1731:Generated_Source\PSoC5/CyLib.c **** 
1732:Generated_Source\PSoC5/CyLib.c ****     interruptState = CyEnterCriticalSection();
 3400              		.loc 1 1732 0
 3401 0010 FFF7FEFF 		bl	CyEnterCriticalSection
 3402 0014 0346     		mov	r3, r0
 3403 0016 FB73     		strb	r3, [r7, #15]
1733:Generated_Source\PSoC5/CyLib.c **** 
1734:Generated_Source\PSoC5/CyLib.c ****     /* Store interrupt enable state */
1735:Generated_Source\PSoC5/CyLib.c ****     intRegTmp = CY_INT_ENABLE_REG & CY_VD_INT_MASK;
 3404              		.loc 1 1735 0
 3405 0018 254B     		ldr	r3, .L243
 3406 001a 1B68     		ldr	r3, [r3]
 3407 001c 03F00103 		and	r3, r3, #1
 3408 0020 BB60     		str	r3, [r7, #8]
1736:Generated_Source\PSoC5/CyLib.c **** 
1737:Generated_Source\PSoC5/CyLib.c ****     /* Disable VD interrupt (write 1) to protect against glitches */
1738:Generated_Source\PSoC5/CyLib.c ****     CY_INT_CLEAR_REG = CY_VD_INT_MASK;
 3409              		.loc 1 1738 0
 3410 0022 244B     		ldr	r3, .L243+4
 3411 0024 0122     		movs	r2, #1
 3412 0026 1A60     		str	r2, [r3]
1739:Generated_Source\PSoC5/CyLib.c **** 
1740:Generated_Source\PSoC5/CyLib.c ****     CY_VD_PRES_CONTROL_REG &= ((uint8)(~CY_VD_PRESA_EN));
 3413              		.loc 1 1740 0
 3414 0028 234A     		ldr	r2, .L243+8
 3415 002a 234B     		ldr	r3, .L243+8
 3416 002c 1B78     		ldrb	r3, [r3]
 3417 002e DBB2     		uxtb	r3, r3
 3418 0030 03F07F03 		and	r3, r3, #127
 3419 0034 DBB2     		uxtb	r3, r3
ARM GAS  C:\Users\ben\AppData\Local\Temp\ccnBLHGm.s 			page 92


 3420 0036 1370     		strb	r3, [r2]
1741:Generated_Source\PSoC5/CyLib.c **** 
1742:Generated_Source\PSoC5/CyLib.c ****     CY_VD_LVI_TRIP_REG = ((uint8)(threshold << 4u)) | (CY_VD_LVI_TRIP_REG & 0x0Fu);
 3421              		.loc 1 1742 0
 3422 0038 2049     		ldr	r1, .L243+12
 3423 003a BB79     		ldrb	r3, [r7, #6]
 3424 003c 1B01     		lsls	r3, r3, #4
 3425 003e DAB2     		uxtb	r2, r3
 3426 0040 1E4B     		ldr	r3, .L243+12
 3427 0042 1B78     		ldrb	r3, [r3]
 3428 0044 DBB2     		uxtb	r3, r3
 3429 0046 03F00F03 		and	r3, r3, #15
 3430 004a DBB2     		uxtb	r3, r3
 3431 004c 1343     		orrs	r3, r3, r2
 3432 004e DBB2     		uxtb	r3, r3
 3433 0050 0B70     		strb	r3, [r1]
1743:Generated_Source\PSoC5/CyLib.c ****     CY_VD_LVI_HVI_CONTROL_REG |= CY_VD_LVIA_EN;
 3434              		.loc 1 1743 0
 3435 0052 1B4A     		ldr	r2, .L243+16
 3436 0054 1A4B     		ldr	r3, .L243+16
 3437 0056 1B78     		ldrb	r3, [r3]
 3438 0058 DBB2     		uxtb	r3, r3
 3439 005a 43F00203 		orr	r3, r3, #2
 3440 005e DBB2     		uxtb	r3, r3
 3441 0060 1370     		strb	r3, [r2]
1744:Generated_Source\PSoC5/CyLib.c **** 
1745:Generated_Source\PSoC5/CyLib.c ****     /* Timeout to eliminate glitches on LVI/HVI when enabling (ID # 127412) */
1746:Generated_Source\PSoC5/CyLib.c ****     CyDelayUs(1u);
 3442              		.loc 1 1746 0
 3443 0062 0120     		movs	r0, #1
 3444 0064 FFF7FEFF 		bl	CyDelayUs
1747:Generated_Source\PSoC5/CyLib.c **** 
1748:Generated_Source\PSoC5/CyLib.c ****     (void) CyVdStickyStatus(CY_VD_LVIA);
 3445              		.loc 1 1748 0
 3446 0068 0220     		movs	r0, #2
 3447 006a FFF7FEFF 		bl	CyVdStickyStatus
1749:Generated_Source\PSoC5/CyLib.c **** 
1750:Generated_Source\PSoC5/CyLib.c ****     if(0u != reset)
 3448              		.loc 1 1750 0
 3449 006e FB79     		ldrb	r3, [r7, #7]	@ zero_extendqisi2
 3450 0070 002B     		cmp	r3, #0
 3451 0072 08D0     		beq	.L241
1751:Generated_Source\PSoC5/CyLib.c ****     {
1752:Generated_Source\PSoC5/CyLib.c ****         CY_VD_PRES_CONTROL_REG |= CY_VD_PRESA_EN;
 3452              		.loc 1 1752 0
 3453 0074 104A     		ldr	r2, .L243+8
 3454 0076 104B     		ldr	r3, .L243+8
 3455 0078 1B78     		ldrb	r3, [r3]
 3456 007a DBB2     		uxtb	r3, r3
 3457 007c 63F07F03 		orn	r3, r3, #127
 3458 0080 DBB2     		uxtb	r3, r3
 3459 0082 1370     		strb	r3, [r2]
 3460 0084 07E0     		b	.L242
 3461              	.L241:
1753:Generated_Source\PSoC5/CyLib.c ****     }
1754:Generated_Source\PSoC5/CyLib.c ****     else
1755:Generated_Source\PSoC5/CyLib.c ****     {
ARM GAS  C:\Users\ben\AppData\Local\Temp\ccnBLHGm.s 			page 93


1756:Generated_Source\PSoC5/CyLib.c ****         CY_VD_PRES_CONTROL_REG &= ((uint8)(~CY_VD_PRESA_EN));
 3462              		.loc 1 1756 0
 3463 0086 0C4A     		ldr	r2, .L243+8
 3464 0088 0B4B     		ldr	r3, .L243+8
 3465 008a 1B78     		ldrb	r3, [r3]
 3466 008c DBB2     		uxtb	r3, r3
 3467 008e 03F07F03 		and	r3, r3, #127
 3468 0092 DBB2     		uxtb	r3, r3
 3469 0094 1370     		strb	r3, [r2]
 3470              	.L242:
1757:Generated_Source\PSoC5/CyLib.c ****     }
1758:Generated_Source\PSoC5/CyLib.c **** 
1759:Generated_Source\PSoC5/CyLib.c ****     /* Clear pending interrupt */
1760:Generated_Source\PSoC5/CyLib.c ****     CY_INT_CLR_PEND_REG = CY_VD_INT_MASK;
 3471              		.loc 1 1760 0
 3472 0096 0B4B     		ldr	r3, .L243+20
 3473 0098 0122     		movs	r2, #1
 3474 009a 1A60     		str	r2, [r3]
1761:Generated_Source\PSoC5/CyLib.c **** 
1762:Generated_Source\PSoC5/CyLib.c ****     /* Restore interrupt enable state */
1763:Generated_Source\PSoC5/CyLib.c ****     CY_INT_ENABLE_REG = intRegTmp;
 3475              		.loc 1 1763 0
 3476 009c 044A     		ldr	r2, .L243
 3477 009e BB68     		ldr	r3, [r7, #8]
 3478 00a0 1360     		str	r3, [r2]
1764:Generated_Source\PSoC5/CyLib.c **** 
1765:Generated_Source\PSoC5/CyLib.c ****     CyExitCriticalSection(interruptState);
 3479              		.loc 1 1765 0
 3480 00a2 FB7B     		ldrb	r3, [r7, #15]	@ zero_extendqisi2
 3481 00a4 1846     		mov	r0, r3
 3482 00a6 FFF7FEFF 		bl	CyExitCriticalSection
1766:Generated_Source\PSoC5/CyLib.c **** }
 3483              		.loc 1 1766 0
 3484 00aa 1037     		adds	r7, r7, #16
 3485              		.cfi_def_cfa_offset 8
 3486 00ac BD46     		mov	sp, r7
 3487              		.cfi_def_cfa_register 13
 3488              		@ sp needed
 3489 00ae 80BD     		pop	{r7, pc}
 3490              	.L244:
 3491              		.align	2
 3492              	.L243:
 3493 00b0 00E100E0 		.word	-536813312
 3494 00b4 80E100E0 		.word	-536813184
 3495 00b8 F7460040 		.word	1073759991
 3496 00bc F4460040 		.word	1073759988
 3497 00c0 F5460040 		.word	1073759989
 3498 00c4 80E200E0 		.word	-536812928
 3499              		.cfi_endproc
 3500              	.LFE47:
 3501              		.size	CyVdLvAnalogEnable, .-CyVdLvAnalogEnable
 3502              		.section	.text.CyVdLvDigitDisable,"ax",%progbits
 3503              		.align	2
 3504              		.global	CyVdLvDigitDisable
 3505              		.thumb
 3506              		.thumb_func
 3507              		.type	CyVdLvDigitDisable, %function
ARM GAS  C:\Users\ben\AppData\Local\Temp\ccnBLHGm.s 			page 94


 3508              	CyVdLvDigitDisable:
 3509              	.LFB48:
1767:Generated_Source\PSoC5/CyLib.c **** 
1768:Generated_Source\PSoC5/CyLib.c **** 
1769:Generated_Source\PSoC5/CyLib.c **** /*******************************************************************************
1770:Generated_Source\PSoC5/CyLib.c **** * Function Name: CyVdLvDigitDisable
1771:Generated_Source\PSoC5/CyLib.c **** ****************************************************************************//**
1772:Generated_Source\PSoC5/CyLib.c **** *
1773:Generated_Source\PSoC5/CyLib.c **** *  Disables the digital low-voltage monitor, turns off device reset upon the
1774:Generated_Source\PSoC5/CyLib.c **** *  digital low-voltage event, and clears the associated persistent status bit.
1775:Generated_Source\PSoC5/CyLib.c **** *
1776:Generated_Source\PSoC5/CyLib.c **** *  Note The associated interrupt enable/disable state is not changed by the
1777:Generated_Source\PSoC5/CyLib.c **** *  function. The pending interrupt status is not cleared. The Interrupt
1778:Generated_Source\PSoC5/CyLib.c **** *  component API should be used to manipulate with the associated interrupts.
1779:Generated_Source\PSoC5/CyLib.c **** *
1780:Generated_Source\PSoC5/CyLib.c **** *******************************************************************************/
1781:Generated_Source\PSoC5/CyLib.c **** void CyVdLvDigitDisable(void) 
1782:Generated_Source\PSoC5/CyLib.c **** {
 3510              		.loc 1 1782 0
 3511              		.cfi_startproc
 3512              		@ args = 0, pretend = 0, frame = 0
 3513              		@ frame_needed = 1, uses_anonymous_args = 0
 3514 0000 80B5     		push	{r7, lr}
 3515              		.cfi_def_cfa_offset 8
 3516              		.cfi_offset 7, -8
 3517              		.cfi_offset 14, -4
 3518 0002 00AF     		add	r7, sp, #0
 3519              		.cfi_def_cfa_register 7
1783:Generated_Source\PSoC5/CyLib.c ****     CY_VD_LVI_HVI_CONTROL_REG &= ((uint8)(~CY_VD_LVID_EN));
 3520              		.loc 1 1783 0
 3521 0004 0E4A     		ldr	r2, .L247
 3522 0006 0E4B     		ldr	r3, .L247
 3523 0008 1B78     		ldrb	r3, [r3]
 3524 000a DBB2     		uxtb	r3, r3
 3525 000c 23F00103 		bic	r3, r3, #1
 3526 0010 DBB2     		uxtb	r3, r3
 3527 0012 1370     		strb	r3, [r2]
1784:Generated_Source\PSoC5/CyLib.c ****     CY_VD_PRES_CONTROL_REG &= ((uint8)(~CY_VD_PRESD_EN));
 3528              		.loc 1 1784 0
 3529 0014 0B4A     		ldr	r2, .L247+4
 3530 0016 0B4B     		ldr	r3, .L247+4
 3531 0018 1B78     		ldrb	r3, [r3]
 3532 001a DBB2     		uxtb	r3, r3
 3533 001c 23F04003 		bic	r3, r3, #64
 3534 0020 DBB2     		uxtb	r3, r3
 3535 0022 1370     		strb	r3, [r2]
1785:Generated_Source\PSoC5/CyLib.c ****     (void) CyVdStickyStatus(CY_VD_LVID);
 3536              		.loc 1 1785 0
 3537 0024 0120     		movs	r0, #1
 3538 0026 FFF7FEFF 		bl	CyVdStickyStatus
1786:Generated_Source\PSoC5/CyLib.c **** 
1787:Generated_Source\PSoC5/CyLib.c ****     while(0u != (CyVdStickyStatus(CY_VD_LVID) & CY_VD_LVID))
 3539              		.loc 1 1787 0
 3540 002a 00BF     		nop
 3541              	.L246:
 3542              		.loc 1 1787 0 is_stmt 0 discriminator 1
 3543 002c 0120     		movs	r0, #1
ARM GAS  C:\Users\ben\AppData\Local\Temp\ccnBLHGm.s 			page 95


 3544 002e FFF7FEFF 		bl	CyVdStickyStatus
 3545 0032 0346     		mov	r3, r0
 3546 0034 03F00103 		and	r3, r3, #1
 3547 0038 002B     		cmp	r3, #0
 3548 003a F7D1     		bne	.L246
1788:Generated_Source\PSoC5/CyLib.c ****     {
1789:Generated_Source\PSoC5/CyLib.c **** 
1790:Generated_Source\PSoC5/CyLib.c ****     }
1791:Generated_Source\PSoC5/CyLib.c **** }
 3549              		.loc 1 1791 0 is_stmt 1
 3550 003c 80BD     		pop	{r7, pc}
 3551              	.L248:
 3552 003e 00BF     		.align	2
 3553              	.L247:
 3554 0040 F5460040 		.word	1073759989
 3555 0044 F7460040 		.word	1073759991
 3556              		.cfi_endproc
 3557              	.LFE48:
 3558              		.size	CyVdLvDigitDisable, .-CyVdLvDigitDisable
 3559              		.section	.text.CyVdLvAnalogDisable,"ax",%progbits
 3560              		.align	2
 3561              		.global	CyVdLvAnalogDisable
 3562              		.thumb
 3563              		.thumb_func
 3564              		.type	CyVdLvAnalogDisable, %function
 3565              	CyVdLvAnalogDisable:
 3566              	.LFB49:
1792:Generated_Source\PSoC5/CyLib.c **** 
1793:Generated_Source\PSoC5/CyLib.c **** 
1794:Generated_Source\PSoC5/CyLib.c **** /*******************************************************************************
1795:Generated_Source\PSoC5/CyLib.c **** * Function Name: CyVdLvAnalogDisable
1796:Generated_Source\PSoC5/CyLib.c **** ****************************************************************************//**
1797:Generated_Source\PSoC5/CyLib.c **** *
1798:Generated_Source\PSoC5/CyLib.c **** *  Disables the analog low-voltage monitor, turns off device reset upon the
1799:Generated_Source\PSoC5/CyLib.c **** *  analog low-voltage event, and clears the associated persistent status bit.
1800:Generated_Source\PSoC5/CyLib.c **** *
1801:Generated_Source\PSoC5/CyLib.c **** *  Note The associated interrupt enable/disable state is not changed by the
1802:Generated_Source\PSoC5/CyLib.c **** *  function. The pending interrupt status is not cleared. The Interrupt
1803:Generated_Source\PSoC5/CyLib.c **** *  component API should be used to manipulate with the associated interrupts.
1804:Generated_Source\PSoC5/CyLib.c **** *
1805:Generated_Source\PSoC5/CyLib.c **** *******************************************************************************/
1806:Generated_Source\PSoC5/CyLib.c **** void CyVdLvAnalogDisable(void) 
1807:Generated_Source\PSoC5/CyLib.c **** {
 3567              		.loc 1 1807 0
 3568              		.cfi_startproc
 3569              		@ args = 0, pretend = 0, frame = 0
 3570              		@ frame_needed = 1, uses_anonymous_args = 0
 3571 0000 80B5     		push	{r7, lr}
 3572              		.cfi_def_cfa_offset 8
 3573              		.cfi_offset 7, -8
 3574              		.cfi_offset 14, -4
 3575 0002 00AF     		add	r7, sp, #0
 3576              		.cfi_def_cfa_register 7
1808:Generated_Source\PSoC5/CyLib.c ****     CY_VD_LVI_HVI_CONTROL_REG &= ((uint8)(~CY_VD_LVIA_EN));
 3577              		.loc 1 1808 0
 3578 0004 0C4A     		ldr	r2, .L251
 3579 0006 0C4B     		ldr	r3, .L251
ARM GAS  C:\Users\ben\AppData\Local\Temp\ccnBLHGm.s 			page 96


 3580 0008 1B78     		ldrb	r3, [r3]
 3581 000a DBB2     		uxtb	r3, r3
 3582 000c 23F00203 		bic	r3, r3, #2
 3583 0010 DBB2     		uxtb	r3, r3
 3584 0012 1370     		strb	r3, [r2]
1809:Generated_Source\PSoC5/CyLib.c ****     CY_VD_PRES_CONTROL_REG &= ((uint8)(~CY_VD_PRESA_EN));
 3585              		.loc 1 1809 0
 3586 0014 094A     		ldr	r2, .L251+4
 3587 0016 094B     		ldr	r3, .L251+4
 3588 0018 1B78     		ldrb	r3, [r3]
 3589 001a DBB2     		uxtb	r3, r3
 3590 001c 03F07F03 		and	r3, r3, #127
 3591 0020 DBB2     		uxtb	r3, r3
 3592 0022 1370     		strb	r3, [r2]
1810:Generated_Source\PSoC5/CyLib.c ****     while(0u != (CyVdStickyStatus(CY_VD_LVIA) & CY_VD_LVIA))
 3593              		.loc 1 1810 0
 3594 0024 00BF     		nop
 3595              	.L250:
 3596              		.loc 1 1810 0 is_stmt 0 discriminator 1
 3597 0026 0220     		movs	r0, #2
 3598 0028 FFF7FEFF 		bl	CyVdStickyStatus
 3599 002c 0346     		mov	r3, r0
 3600 002e 03F00203 		and	r3, r3, #2
 3601 0032 002B     		cmp	r3, #0
 3602 0034 F7D1     		bne	.L250
1811:Generated_Source\PSoC5/CyLib.c ****     {
1812:Generated_Source\PSoC5/CyLib.c **** 
1813:Generated_Source\PSoC5/CyLib.c ****     }
1814:Generated_Source\PSoC5/CyLib.c **** }
 3603              		.loc 1 1814 0 is_stmt 1
 3604 0036 80BD     		pop	{r7, pc}
 3605              	.L252:
 3606              		.align	2
 3607              	.L251:
 3608 0038 F5460040 		.word	1073759989
 3609 003c F7460040 		.word	1073759991
 3610              		.cfi_endproc
 3611              	.LFE49:
 3612              		.size	CyVdLvAnalogDisable, .-CyVdLvAnalogDisable
 3613              		.section	.text.CyVdHvAnalogEnable,"ax",%progbits
 3614              		.align	2
 3615              		.global	CyVdHvAnalogEnable
 3616              		.thumb
 3617              		.thumb_func
 3618              		.type	CyVdHvAnalogEnable, %function
 3619              	CyVdHvAnalogEnable:
 3620              	.LFB50:
1815:Generated_Source\PSoC5/CyLib.c **** 
1816:Generated_Source\PSoC5/CyLib.c **** 
1817:Generated_Source\PSoC5/CyLib.c **** /*******************************************************************************
1818:Generated_Source\PSoC5/CyLib.c **** * Function Name: CyVdHvAnalogEnable
1819:Generated_Source\PSoC5/CyLib.c **** ****************************************************************************//**
1820:Generated_Source\PSoC5/CyLib.c **** *
1821:Generated_Source\PSoC5/CyLib.c **** *  Enables the output of the analog high-voltage monitor and sets 5.75 V
1822:Generated_Source\PSoC5/CyLib.c **** *  threshold detection for Vdda.
1823:Generated_Source\PSoC5/CyLib.c **** *
1824:Generated_Source\PSoC5/CyLib.c **** *  Note The associated interrupt enable/disable state is not changed by the
ARM GAS  C:\Users\ben\AppData\Local\Temp\ccnBLHGm.s 			page 97


1825:Generated_Source\PSoC5/CyLib.c **** *  function. The Interrupt component API should be used to register the
1826:Generated_Source\PSoC5/CyLib.c **** *  interrupt service routine and to enable/disable associated interrupt.
1827:Generated_Source\PSoC5/CyLib.c **** *
1828:Generated_Source\PSoC5/CyLib.c **** *******************************************************************************/
1829:Generated_Source\PSoC5/CyLib.c **** void CyVdHvAnalogEnable(void) 
1830:Generated_Source\PSoC5/CyLib.c **** {
 3621              		.loc 1 1830 0
 3622              		.cfi_startproc
 3623              		@ args = 0, pretend = 0, frame = 8
 3624              		@ frame_needed = 1, uses_anonymous_args = 0
 3625 0000 80B5     		push	{r7, lr}
 3626              		.cfi_def_cfa_offset 8
 3627              		.cfi_offset 7, -8
 3628              		.cfi_offset 14, -4
 3629 0002 82B0     		sub	sp, sp, #8
 3630              		.cfi_def_cfa_offset 16
 3631 0004 00AF     		add	r7, sp, #0
 3632              		.cfi_def_cfa_register 7
1831:Generated_Source\PSoC5/CyLib.c ****     uint32 intRegTmp;
1832:Generated_Source\PSoC5/CyLib.c ****     uint8 interruptState;
1833:Generated_Source\PSoC5/CyLib.c **** 
1834:Generated_Source\PSoC5/CyLib.c ****     interruptState = CyEnterCriticalSection();
 3633              		.loc 1 1834 0
 3634 0006 FFF7FEFF 		bl	CyEnterCriticalSection
 3635 000a 0346     		mov	r3, r0
 3636 000c FB71     		strb	r3, [r7, #7]
1835:Generated_Source\PSoC5/CyLib.c **** 
1836:Generated_Source\PSoC5/CyLib.c ****     /* Store interrupt enable state */
1837:Generated_Source\PSoC5/CyLib.c ****     intRegTmp = CY_INT_ENABLE_REG & CY_VD_INT_MASK;
 3637              		.loc 1 1837 0
 3638 000e 154B     		ldr	r3, .L254
 3639 0010 1B68     		ldr	r3, [r3]
 3640 0012 03F00103 		and	r3, r3, #1
 3641 0016 3B60     		str	r3, [r7]
1838:Generated_Source\PSoC5/CyLib.c **** 
1839:Generated_Source\PSoC5/CyLib.c ****     /* Disable VD interrupt (write 1) to protect against glitches */
1840:Generated_Source\PSoC5/CyLib.c ****     CY_INT_CLEAR_REG = CY_VD_INT_MASK;
 3642              		.loc 1 1840 0
 3643 0018 134B     		ldr	r3, .L254+4
 3644 001a 0122     		movs	r2, #1
 3645 001c 1A60     		str	r2, [r3]
1841:Generated_Source\PSoC5/CyLib.c **** 
1842:Generated_Source\PSoC5/CyLib.c ****     CY_VD_PRES_CONTROL_REG &= ((uint8)(~CY_VD_PRESA_EN));
 3646              		.loc 1 1842 0
 3647 001e 134A     		ldr	r2, .L254+8
 3648 0020 124B     		ldr	r3, .L254+8
 3649 0022 1B78     		ldrb	r3, [r3]
 3650 0024 DBB2     		uxtb	r3, r3
 3651 0026 03F07F03 		and	r3, r3, #127
 3652 002a DBB2     		uxtb	r3, r3
 3653 002c 1370     		strb	r3, [r2]
1843:Generated_Source\PSoC5/CyLib.c **** 
1844:Generated_Source\PSoC5/CyLib.c ****     CY_VD_LVI_HVI_CONTROL_REG |= CY_VD_HVIA_EN;
 3654              		.loc 1 1844 0
 3655 002e 104A     		ldr	r2, .L254+12
 3656 0030 0F4B     		ldr	r3, .L254+12
 3657 0032 1B78     		ldrb	r3, [r3]
ARM GAS  C:\Users\ben\AppData\Local\Temp\ccnBLHGm.s 			page 98


 3658 0034 DBB2     		uxtb	r3, r3
 3659 0036 43F00403 		orr	r3, r3, #4
 3660 003a DBB2     		uxtb	r3, r3
 3661 003c 1370     		strb	r3, [r2]
1845:Generated_Source\PSoC5/CyLib.c **** 
1846:Generated_Source\PSoC5/CyLib.c ****     /* Timeout to eliminate glitches on the LVI/HVI when enabling (ID # 127412)  */
1847:Generated_Source\PSoC5/CyLib.c ****     CyDelayUs(1u);
 3662              		.loc 1 1847 0
 3663 003e 0120     		movs	r0, #1
 3664 0040 FFF7FEFF 		bl	CyDelayUs
1848:Generated_Source\PSoC5/CyLib.c **** 
1849:Generated_Source\PSoC5/CyLib.c ****     (void) CyVdStickyStatus(CY_VD_HVIA);
 3665              		.loc 1 1849 0
 3666 0044 0420     		movs	r0, #4
 3667 0046 FFF7FEFF 		bl	CyVdStickyStatus
1850:Generated_Source\PSoC5/CyLib.c **** 
1851:Generated_Source\PSoC5/CyLib.c ****     /* Clear pending interrupt */
1852:Generated_Source\PSoC5/CyLib.c ****     CY_INT_CLR_PEND_REG = CY_VD_INT_MASK;
 3668              		.loc 1 1852 0
 3669 004a 0A4B     		ldr	r3, .L254+16
 3670 004c 0122     		movs	r2, #1
 3671 004e 1A60     		str	r2, [r3]
1853:Generated_Source\PSoC5/CyLib.c **** 
1854:Generated_Source\PSoC5/CyLib.c ****     /* Restore interrupt enable state */
1855:Generated_Source\PSoC5/CyLib.c ****     CY_INT_ENABLE_REG = intRegTmp;
 3672              		.loc 1 1855 0
 3673 0050 044A     		ldr	r2, .L254
 3674 0052 3B68     		ldr	r3, [r7]
 3675 0054 1360     		str	r3, [r2]
1856:Generated_Source\PSoC5/CyLib.c **** 
1857:Generated_Source\PSoC5/CyLib.c ****     CyExitCriticalSection(interruptState);
 3676              		.loc 1 1857 0
 3677 0056 FB79     		ldrb	r3, [r7, #7]	@ zero_extendqisi2
 3678 0058 1846     		mov	r0, r3
 3679 005a FFF7FEFF 		bl	CyExitCriticalSection
1858:Generated_Source\PSoC5/CyLib.c **** }
 3680              		.loc 1 1858 0
 3681 005e 0837     		adds	r7, r7, #8
 3682              		.cfi_def_cfa_offset 8
 3683 0060 BD46     		mov	sp, r7
 3684              		.cfi_def_cfa_register 13
 3685              		@ sp needed
 3686 0062 80BD     		pop	{r7, pc}
 3687              	.L255:
 3688              		.align	2
 3689              	.L254:
 3690 0064 00E100E0 		.word	-536813312
 3691 0068 80E100E0 		.word	-536813184
 3692 006c F7460040 		.word	1073759991
 3693 0070 F5460040 		.word	1073759989
 3694 0074 80E200E0 		.word	-536812928
 3695              		.cfi_endproc
 3696              	.LFE50:
 3697              		.size	CyVdHvAnalogEnable, .-CyVdHvAnalogEnable
 3698              		.section	.text.CyVdHvAnalogDisable,"ax",%progbits
 3699              		.align	2
 3700              		.global	CyVdHvAnalogDisable
ARM GAS  C:\Users\ben\AppData\Local\Temp\ccnBLHGm.s 			page 99


 3701              		.thumb
 3702              		.thumb_func
 3703              		.type	CyVdHvAnalogDisable, %function
 3704              	CyVdHvAnalogDisable:
 3705              	.LFB51:
1859:Generated_Source\PSoC5/CyLib.c **** 
1860:Generated_Source\PSoC5/CyLib.c **** 
1861:Generated_Source\PSoC5/CyLib.c **** /*******************************************************************************
1862:Generated_Source\PSoC5/CyLib.c **** * Function Name: CyVdHvAnalogDisable
1863:Generated_Source\PSoC5/CyLib.c **** ****************************************************************************//**
1864:Generated_Source\PSoC5/CyLib.c **** *
1865:Generated_Source\PSoC5/CyLib.c **** *  Disables the analog high-voltage monitor and clears the associated persistent
1866:Generated_Source\PSoC5/CyLib.c **** *  status bit.
1867:Generated_Source\PSoC5/CyLib.c **** *
1868:Generated_Source\PSoC5/CyLib.c **** *  Note The associated interrupt enable/disable state is not changed by the
1869:Generated_Source\PSoC5/CyLib.c **** *  function. The pending interrupt status is not cleared. The Interrupt
1870:Generated_Source\PSoC5/CyLib.c **** *  component API should be used to manipulate with the associated interrupts.
1871:Generated_Source\PSoC5/CyLib.c **** *
1872:Generated_Source\PSoC5/CyLib.c **** *******************************************************************************/
1873:Generated_Source\PSoC5/CyLib.c **** void CyVdHvAnalogDisable(void) 
1874:Generated_Source\PSoC5/CyLib.c **** {
 3706              		.loc 1 1874 0
 3707              		.cfi_startproc
 3708              		@ args = 0, pretend = 0, frame = 0
 3709              		@ frame_needed = 1, uses_anonymous_args = 0
 3710 0000 80B5     		push	{r7, lr}
 3711              		.cfi_def_cfa_offset 8
 3712              		.cfi_offset 7, -8
 3713              		.cfi_offset 14, -4
 3714 0002 00AF     		add	r7, sp, #0
 3715              		.cfi_def_cfa_register 7
1875:Generated_Source\PSoC5/CyLib.c ****     CY_VD_LVI_HVI_CONTROL_REG &= ((uint8)(~CY_VD_HVIA_EN));
 3716              		.loc 1 1875 0
 3717 0004 084A     		ldr	r2, .L258
 3718 0006 084B     		ldr	r3, .L258
 3719 0008 1B78     		ldrb	r3, [r3]
 3720 000a DBB2     		uxtb	r3, r3
 3721 000c 23F00403 		bic	r3, r3, #4
 3722 0010 DBB2     		uxtb	r3, r3
 3723 0012 1370     		strb	r3, [r2]
1876:Generated_Source\PSoC5/CyLib.c ****     while(0u != (CyVdStickyStatus(CY_VD_HVIA) & CY_VD_HVIA))
 3724              		.loc 1 1876 0
 3725 0014 00BF     		nop
 3726              	.L257:
 3727              		.loc 1 1876 0 is_stmt 0 discriminator 1
 3728 0016 0420     		movs	r0, #4
 3729 0018 FFF7FEFF 		bl	CyVdStickyStatus
 3730 001c 0346     		mov	r3, r0
 3731 001e 03F00403 		and	r3, r3, #4
 3732 0022 002B     		cmp	r3, #0
 3733 0024 F7D1     		bne	.L257
1877:Generated_Source\PSoC5/CyLib.c ****     {
1878:Generated_Source\PSoC5/CyLib.c **** 
1879:Generated_Source\PSoC5/CyLib.c ****     }
1880:Generated_Source\PSoC5/CyLib.c **** }
 3734              		.loc 1 1880 0 is_stmt 1
 3735 0026 80BD     		pop	{r7, pc}
ARM GAS  C:\Users\ben\AppData\Local\Temp\ccnBLHGm.s 			page 100


 3736              	.L259:
 3737              		.align	2
 3738              	.L258:
 3739 0028 F5460040 		.word	1073759989
 3740              		.cfi_endproc
 3741              	.LFE51:
 3742              		.size	CyVdHvAnalogDisable, .-CyVdHvAnalogDisable
 3743              		.section	.text.CyVdStickyStatus,"ax",%progbits
 3744              		.align	2
 3745              		.global	CyVdStickyStatus
 3746              		.thumb
 3747              		.thumb_func
 3748              		.type	CyVdStickyStatus, %function
 3749              	CyVdStickyStatus:
 3750              	.LFB52:
1881:Generated_Source\PSoC5/CyLib.c **** 
1882:Generated_Source\PSoC5/CyLib.c **** 
1883:Generated_Source\PSoC5/CyLib.c **** /*******************************************************************************
1884:Generated_Source\PSoC5/CyLib.c **** * Function Name: CyVdStickyStatus
1885:Generated_Source\PSoC5/CyLib.c **** ****************************************************************************//**
1886:Generated_Source\PSoC5/CyLib.c **** *
1887:Generated_Source\PSoC5/CyLib.c **** *  Reads and clears the voltage detection status bits in the RESET_SR0 register.
1888:Generated_Source\PSoC5/CyLib.c **** *  The bits are set to 1 by the voltage monitor circuit when the supply is
1889:Generated_Source\PSoC5/CyLib.c **** *  outside the detector trip point. They stay set to 1 until they are read or
1890:Generated_Source\PSoC5/CyLib.c **** *  a POR / LVI / PRES reset occurs. This function uses a shadow register, so
1891:Generated_Source\PSoC5/CyLib.c **** *  only the bits passed in the parameter will be cleared in the shadow register.
1892:Generated_Source\PSoC5/CyLib.c **** *
1893:Generated_Source\PSoC5/CyLib.c **** *  \param mask: Bits in the RESET_SR0 shadow register to clear and return.
1894:Generated_Source\PSoC5/CyLib.c **** *   Define                  Definition
1895:Generated_Source\PSoC5/CyLib.c **** *   CY_VD_LVID            Persistent status of digital LVI.
1896:Generated_Source\PSoC5/CyLib.c **** *   CY_VD_LVIA            Persistent status of analog LVI.
1897:Generated_Source\PSoC5/CyLib.c **** *   CY_VD_HVIA            Persistent status of analog HVI.
1898:Generated_Source\PSoC5/CyLib.c **** *
1899:Generated_Source\PSoC5/CyLib.c **** * \return
1900:Generated_Source\PSoC5/CyLib.c **** *  Status. Same enumerated bit values as used for the mask parameter. A zero is
1901:Generated_Source\PSoC5/CyLib.c **** *  returned for bits not used in the mask parameter.
1902:Generated_Source\PSoC5/CyLib.c **** *
1903:Generated_Source\PSoC5/CyLib.c **** * Side Effects and Restrictions:
1904:Generated_Source\PSoC5/CyLib.c **** *  When an LVI reset occurs, the RESET_SR0 status registers are cleared. This
1905:Generated_Source\PSoC5/CyLib.c **** *  means that the voltage detection status bits are not persistent across an LVI
1906:Generated_Source\PSoC5/CyLib.c **** *  reset and cannot be used to determine a reset source.
1907:Generated_Source\PSoC5/CyLib.c **** *
1908:Generated_Source\PSoC5/CyLib.c **** *******************************************************************************/
1909:Generated_Source\PSoC5/CyLib.c **** uint8 CyVdStickyStatus(uint8 mask) 
1910:Generated_Source\PSoC5/CyLib.c **** {
 3751              		.loc 1 1910 0
 3752              		.cfi_startproc
 3753              		@ args = 0, pretend = 0, frame = 16
 3754              		@ frame_needed = 1, uses_anonymous_args = 0
 3755 0000 80B5     		push	{r7, lr}
 3756              		.cfi_def_cfa_offset 8
 3757              		.cfi_offset 7, -8
 3758              		.cfi_offset 14, -4
 3759 0002 84B0     		sub	sp, sp, #16
 3760              		.cfi_def_cfa_offset 24
 3761 0004 00AF     		add	r7, sp, #0
 3762              		.cfi_def_cfa_register 7
ARM GAS  C:\Users\ben\AppData\Local\Temp\ccnBLHGm.s 			page 101


 3763 0006 0346     		mov	r3, r0
 3764 0008 FB71     		strb	r3, [r7, #7]
1911:Generated_Source\PSoC5/CyLib.c ****     static uint8 interruptStatus;
1912:Generated_Source\PSoC5/CyLib.c ****     uint8 interruptState;
1913:Generated_Source\PSoC5/CyLib.c ****     uint8 tmpStatus;
1914:Generated_Source\PSoC5/CyLib.c **** 
1915:Generated_Source\PSoC5/CyLib.c ****     interruptState = CyEnterCriticalSection();
 3765              		.loc 1 1915 0
 3766 000a FFF7FEFF 		bl	CyEnterCriticalSection
 3767 000e 0346     		mov	r3, r0
 3768 0010 FB73     		strb	r3, [r7, #15]
1916:Generated_Source\PSoC5/CyLib.c **** 
1917:Generated_Source\PSoC5/CyLib.c ****     interruptStatus |= CY_VD_PERSISTENT_STATUS_REG;
 3769              		.loc 1 1917 0
 3770 0012 104B     		ldr	r3, .L262
 3771 0014 1B78     		ldrb	r3, [r3]
 3772 0016 DAB2     		uxtb	r2, r3
 3773 0018 0F4B     		ldr	r3, .L262+4
 3774 001a 1B78     		ldrb	r3, [r3]	@ zero_extendqisi2
 3775 001c 1343     		orrs	r3, r3, r2
 3776 001e DAB2     		uxtb	r2, r3
 3777 0020 0D4B     		ldr	r3, .L262+4
 3778 0022 1A70     		strb	r2, [r3]
1918:Generated_Source\PSoC5/CyLib.c ****     tmpStatus = interruptStatus & (uint8)(CY_VD_LVID | CY_VD_LVIA | CY_VD_HVIA);
 3779              		.loc 1 1918 0
 3780 0024 0C4B     		ldr	r3, .L262+4
 3781 0026 1B78     		ldrb	r3, [r3]	@ zero_extendqisi2
 3782 0028 03F00703 		and	r3, r3, #7
 3783 002c BB73     		strb	r3, [r7, #14]
1919:Generated_Source\PSoC5/CyLib.c ****     interruptStatus &= ((uint8)(~mask));
 3784              		.loc 1 1919 0
 3785 002e FB79     		ldrb	r3, [r7, #7]
 3786 0030 DB43     		mvns	r3, r3
 3787 0032 DAB2     		uxtb	r2, r3
 3788 0034 084B     		ldr	r3, .L262+4
 3789 0036 1B78     		ldrb	r3, [r3]	@ zero_extendqisi2
 3790 0038 1340     		ands	r3, r3, r2
 3791 003a DAB2     		uxtb	r2, r3
 3792 003c 064B     		ldr	r3, .L262+4
 3793 003e 1A70     		strb	r2, [r3]
1920:Generated_Source\PSoC5/CyLib.c **** 
1921:Generated_Source\PSoC5/CyLib.c ****     CyExitCriticalSection(interruptState);
 3794              		.loc 1 1921 0
 3795 0040 FB7B     		ldrb	r3, [r7, #15]	@ zero_extendqisi2
 3796 0042 1846     		mov	r0, r3
 3797 0044 FFF7FEFF 		bl	CyExitCriticalSection
1922:Generated_Source\PSoC5/CyLib.c **** 
1923:Generated_Source\PSoC5/CyLib.c ****     return(tmpStatus);
 3798              		.loc 1 1923 0
 3799 0048 BB7B     		ldrb	r3, [r7, #14]	@ zero_extendqisi2
1924:Generated_Source\PSoC5/CyLib.c **** }
 3800              		.loc 1 1924 0
 3801 004a 1846     		mov	r0, r3
 3802 004c 1037     		adds	r7, r7, #16
 3803              		.cfi_def_cfa_offset 8
 3804 004e BD46     		mov	sp, r7
 3805              		.cfi_def_cfa_register 13
ARM GAS  C:\Users\ben\AppData\Local\Temp\ccnBLHGm.s 			page 102


 3806              		@ sp needed
 3807 0050 80BD     		pop	{r7, pc}
 3808              	.L263:
 3809 0052 00BF     		.align	2
 3810              	.L262:
 3811 0054 FA460040 		.word	1073759994
 3812 0058 18000000 		.word	interruptStatus.5074
 3813              		.cfi_endproc
 3814              	.LFE52:
 3815              		.size	CyVdStickyStatus, .-CyVdStickyStatus
 3816              		.section	.text.CyVdRealTimeStatus,"ax",%progbits
 3817              		.align	2
 3818              		.global	CyVdRealTimeStatus
 3819              		.thumb
 3820              		.thumb_func
 3821              		.type	CyVdRealTimeStatus, %function
 3822              	CyVdRealTimeStatus:
 3823              	.LFB53:
1925:Generated_Source\PSoC5/CyLib.c **** 
1926:Generated_Source\PSoC5/CyLib.c **** 
1927:Generated_Source\PSoC5/CyLib.c **** /*******************************************************************************
1928:Generated_Source\PSoC5/CyLib.c **** * Function Name: CyVdRealTimeStatus
1929:Generated_Source\PSoC5/CyLib.c **** ****************************************************************************//**
1930:Generated_Source\PSoC5/CyLib.c **** *
1931:Generated_Source\PSoC5/CyLib.c **** *  Reads the real-time voltage detection status bits in the RESET_SR2 register.
1932:Generated_Source\PSoC5/CyLib.c **** *  The bits are set to 1 by the voltage monitor circuit when the supply is
1933:Generated_Source\PSoC5/CyLib.c **** *  outside the detectors trip point, and set to 0 when the supply is inside the
1934:Generated_Source\PSoC5/CyLib.c **** *  trip point.
1935:Generated_Source\PSoC5/CyLib.c **** *
1936:Generated_Source\PSoC5/CyLib.c **** * \return
1937:Generated_Source\PSoC5/CyLib.c **** *  Status of the LVID, LVIA, and HVIA bits in the RESET_SR2 register.
1938:Generated_Source\PSoC5/CyLib.c **** *   Define                  Definition
1939:Generated_Source\PSoC5/CyLib.c **** *   CY_VD_LVID            Real-time status of digital LVI.
1940:Generated_Source\PSoC5/CyLib.c **** *   CY_VD_LVIA            Real-time status of analog LVI.
1941:Generated_Source\PSoC5/CyLib.c **** *   CY_VD_HVIA            Real-time status of analog HVI.
1942:Generated_Source\PSoC5/CyLib.c **** *
1943:Generated_Source\PSoC5/CyLib.c **** * Side Effects and Restrictions:
1944:Generated_Source\PSoC5/CyLib.c **** *  When an LVI reset occurs, the RESET_SR2 status registers are cleared. This
1945:Generated_Source\PSoC5/CyLib.c **** *  means that the voltage detection status bits are not persistent across an LVI
1946:Generated_Source\PSoC5/CyLib.c **** *  reset and cannot be used to determine a reset source.
1947:Generated_Source\PSoC5/CyLib.c **** *
1948:Generated_Source\PSoC5/CyLib.c **** *******************************************************************************/
1949:Generated_Source\PSoC5/CyLib.c **** uint8 CyVdRealTimeStatus(void) 
1950:Generated_Source\PSoC5/CyLib.c **** {
 3824              		.loc 1 1950 0
 3825              		.cfi_startproc
 3826              		@ args = 0, pretend = 0, frame = 8
 3827              		@ frame_needed = 1, uses_anonymous_args = 0
 3828 0000 80B5     		push	{r7, lr}
 3829              		.cfi_def_cfa_offset 8
 3830              		.cfi_offset 7, -8
 3831              		.cfi_offset 14, -4
 3832 0002 82B0     		sub	sp, sp, #8
 3833              		.cfi_def_cfa_offset 16
 3834 0004 00AF     		add	r7, sp, #0
 3835              		.cfi_def_cfa_register 7
1951:Generated_Source\PSoC5/CyLib.c ****     uint8 interruptState;
ARM GAS  C:\Users\ben\AppData\Local\Temp\ccnBLHGm.s 			page 103


1952:Generated_Source\PSoC5/CyLib.c ****     uint8 vdFlagsState;
1953:Generated_Source\PSoC5/CyLib.c **** 
1954:Generated_Source\PSoC5/CyLib.c ****     interruptState = CyEnterCriticalSection();
 3836              		.loc 1 1954 0
 3837 0006 FFF7FEFF 		bl	CyEnterCriticalSection
 3838 000a 0346     		mov	r3, r0
 3839 000c FB71     		strb	r3, [r7, #7]
1955:Generated_Source\PSoC5/CyLib.c ****     vdFlagsState = CY_VD_RT_STATUS_REG & (CY_VD_LVID | CY_VD_LVIA | CY_VD_HVIA);
 3840              		.loc 1 1955 0
 3841 000e 074B     		ldr	r3, .L266
 3842 0010 1B78     		ldrb	r3, [r3]
 3843 0012 DBB2     		uxtb	r3, r3
 3844 0014 03F00703 		and	r3, r3, #7
 3845 0018 BB71     		strb	r3, [r7, #6]
1956:Generated_Source\PSoC5/CyLib.c ****     CyExitCriticalSection(interruptState);
 3846              		.loc 1 1956 0
 3847 001a FB79     		ldrb	r3, [r7, #7]	@ zero_extendqisi2
 3848 001c 1846     		mov	r0, r3
 3849 001e FFF7FEFF 		bl	CyExitCriticalSection
1957:Generated_Source\PSoC5/CyLib.c **** 
1958:Generated_Source\PSoC5/CyLib.c ****     return(vdFlagsState);
 3850              		.loc 1 1958 0
 3851 0022 BB79     		ldrb	r3, [r7, #6]	@ zero_extendqisi2
1959:Generated_Source\PSoC5/CyLib.c **** }
 3852              		.loc 1 1959 0
 3853 0024 1846     		mov	r0, r3
 3854 0026 0837     		adds	r7, r7, #8
 3855              		.cfi_def_cfa_offset 8
 3856 0028 BD46     		mov	sp, r7
 3857              		.cfi_def_cfa_register 13
 3858              		@ sp needed
 3859 002a 80BD     		pop	{r7, pc}
 3860              	.L267:
 3861              		.align	2
 3862              	.L266:
 3863 002c FC460040 		.word	1073759996
 3864              		.cfi_endproc
 3865              	.LFE53:
 3866              		.size	CyVdRealTimeStatus, .-CyVdRealTimeStatus
 3867              		.section	.text.CyDisableInts,"ax",%progbits
 3868              		.align	2
 3869              		.global	CyDisableInts
 3870              		.thumb
 3871              		.thumb_func
 3872              		.type	CyDisableInts, %function
 3873              	CyDisableInts:
 3874              	.LFB54:
1960:Generated_Source\PSoC5/CyLib.c **** 
1961:Generated_Source\PSoC5/CyLib.c **** 
1962:Generated_Source\PSoC5/CyLib.c **** /*******************************************************************************
1963:Generated_Source\PSoC5/CyLib.c **** * Function Name: CyDisableInts
1964:Generated_Source\PSoC5/CyLib.c **** ****************************************************************************//**
1965:Generated_Source\PSoC5/CyLib.c **** *
1966:Generated_Source\PSoC5/CyLib.c **** *  Disables the interrupt enable for each interrupt.
1967:Generated_Source\PSoC5/CyLib.c **** *
1968:Generated_Source\PSoC5/CyLib.c **** * \return
1969:Generated_Source\PSoC5/CyLib.c **** *  32 bit mask of previously enabled interrupts.
ARM GAS  C:\Users\ben\AppData\Local\Temp\ccnBLHGm.s 			page 104


1970:Generated_Source\PSoC5/CyLib.c **** *
1971:Generated_Source\PSoC5/CyLib.c **** *******************************************************************************/
1972:Generated_Source\PSoC5/CyLib.c **** uint32 CyDisableInts(void) 
1973:Generated_Source\PSoC5/CyLib.c **** {
 3875              		.loc 1 1973 0
 3876              		.cfi_startproc
 3877              		@ args = 0, pretend = 0, frame = 8
 3878              		@ frame_needed = 1, uses_anonymous_args = 0
 3879 0000 80B5     		push	{r7, lr}
 3880              		.cfi_def_cfa_offset 8
 3881              		.cfi_offset 7, -8
 3882              		.cfi_offset 14, -4
 3883 0002 82B0     		sub	sp, sp, #8
 3884              		.cfi_def_cfa_offset 16
 3885 0004 00AF     		add	r7, sp, #0
 3886              		.cfi_def_cfa_register 7
1974:Generated_Source\PSoC5/CyLib.c ****     uint32 intState;
1975:Generated_Source\PSoC5/CyLib.c ****     uint8 interruptState;
1976:Generated_Source\PSoC5/CyLib.c **** 
1977:Generated_Source\PSoC5/CyLib.c ****     interruptState = CyEnterCriticalSection();
 3887              		.loc 1 1977 0
 3888 0006 FFF7FEFF 		bl	CyEnterCriticalSection
 3889 000a 0346     		mov	r3, r0
 3890 000c FB71     		strb	r3, [r7, #7]
1978:Generated_Source\PSoC5/CyLib.c **** 
1979:Generated_Source\PSoC5/CyLib.c ****     #if(CY_PSOC3)
1980:Generated_Source\PSoC5/CyLib.c **** 
1981:Generated_Source\PSoC5/CyLib.c ****         /* Get the current interrupt state. */
1982:Generated_Source\PSoC5/CyLib.c ****         intState  = ((uint32) CY_GET_REG8(CY_INT_CLR_EN0_PTR));
1983:Generated_Source\PSoC5/CyLib.c ****         intState |= ((uint32) (((uint32) CY_GET_REG8(CY_INT_CLR_EN1_PTR)) << 8u));
1984:Generated_Source\PSoC5/CyLib.c ****         intState |= ((uint32) (((uint32) CY_GET_REG8(CY_INT_CLR_EN2_PTR)) << 16u));
1985:Generated_Source\PSoC5/CyLib.c ****         intState |= ((uint32) (((uint32) CY_GET_REG8(CY_INT_CLR_EN3_PTR)) << 24u));
1986:Generated_Source\PSoC5/CyLib.c **** 
1987:Generated_Source\PSoC5/CyLib.c **** 
1988:Generated_Source\PSoC5/CyLib.c ****         /* Disable all of the interrupts. */
1989:Generated_Source\PSoC5/CyLib.c ****         CY_SET_REG8(CY_INT_CLR_EN0_PTR, 0xFFu);
1990:Generated_Source\PSoC5/CyLib.c ****         CY_SET_REG8(CY_INT_CLR_EN1_PTR, 0xFFu);
1991:Generated_Source\PSoC5/CyLib.c ****         CY_SET_REG8(CY_INT_CLR_EN2_PTR, 0xFFu);
1992:Generated_Source\PSoC5/CyLib.c ****         CY_SET_REG8(CY_INT_CLR_EN3_PTR, 0xFFu);
1993:Generated_Source\PSoC5/CyLib.c **** 
1994:Generated_Source\PSoC5/CyLib.c ****     #else
1995:Generated_Source\PSoC5/CyLib.c **** 
1996:Generated_Source\PSoC5/CyLib.c ****         /* Get the current interrupt state. */
1997:Generated_Source\PSoC5/CyLib.c ****         intState = CY_GET_REG32(CY_INT_CLEAR_PTR);
 3891              		.loc 1 1997 0
 3892 000e 084B     		ldr	r3, .L270
 3893 0010 1B68     		ldr	r3, [r3]
 3894 0012 3B60     		str	r3, [r7]
1998:Generated_Source\PSoC5/CyLib.c **** 
1999:Generated_Source\PSoC5/CyLib.c ****         /* Disable all of the interrupts. */
2000:Generated_Source\PSoC5/CyLib.c ****         CY_SET_REG32(CY_INT_CLEAR_PTR, 0xFFFFFFFFu);
 3895              		.loc 1 2000 0
 3896 0014 064B     		ldr	r3, .L270
 3897 0016 4FF0FF32 		mov	r2, #-1
 3898 001a 1A60     		str	r2, [r3]
2001:Generated_Source\PSoC5/CyLib.c **** 
2002:Generated_Source\PSoC5/CyLib.c ****     #endif /* (CY_PSOC3) */
ARM GAS  C:\Users\ben\AppData\Local\Temp\ccnBLHGm.s 			page 105


2003:Generated_Source\PSoC5/CyLib.c **** 
2004:Generated_Source\PSoC5/CyLib.c ****     CyExitCriticalSection(interruptState);
 3899              		.loc 1 2004 0
 3900 001c FB79     		ldrb	r3, [r7, #7]	@ zero_extendqisi2
 3901 001e 1846     		mov	r0, r3
 3902 0020 FFF7FEFF 		bl	CyExitCriticalSection
2005:Generated_Source\PSoC5/CyLib.c **** 
2006:Generated_Source\PSoC5/CyLib.c ****     return (intState);
 3903              		.loc 1 2006 0
 3904 0024 3B68     		ldr	r3, [r7]
2007:Generated_Source\PSoC5/CyLib.c **** }
 3905              		.loc 1 2007 0
 3906 0026 1846     		mov	r0, r3
 3907 0028 0837     		adds	r7, r7, #8
 3908              		.cfi_def_cfa_offset 8
 3909 002a BD46     		mov	sp, r7
 3910              		.cfi_def_cfa_register 13
 3911              		@ sp needed
 3912 002c 80BD     		pop	{r7, pc}
 3913              	.L271:
 3914 002e 00BF     		.align	2
 3915              	.L270:
 3916 0030 80E100E0 		.word	-536813184
 3917              		.cfi_endproc
 3918              	.LFE54:
 3919              		.size	CyDisableInts, .-CyDisableInts
 3920              		.section	.text.CyEnableInts,"ax",%progbits
 3921              		.align	2
 3922              		.global	CyEnableInts
 3923              		.thumb
 3924              		.thumb_func
 3925              		.type	CyEnableInts, %function
 3926              	CyEnableInts:
 3927              	.LFB55:
2008:Generated_Source\PSoC5/CyLib.c **** 
2009:Generated_Source\PSoC5/CyLib.c **** 
2010:Generated_Source\PSoC5/CyLib.c **** /*******************************************************************************
2011:Generated_Source\PSoC5/CyLib.c **** * Function Name: CyEnableInts
2012:Generated_Source\PSoC5/CyLib.c **** ****************************************************************************//**
2013:Generated_Source\PSoC5/CyLib.c **** *
2014:Generated_Source\PSoC5/CyLib.c **** *  Enables interrupts to a given state.
2015:Generated_Source\PSoC5/CyLib.c **** *
2016:Generated_Source\PSoC5/CyLib.c **** *  \param uint32 mask: 32 bit mask of interrupts to enable.
2017:Generated_Source\PSoC5/CyLib.c **** *
2018:Generated_Source\PSoC5/CyLib.c **** *******************************************************************************/
2019:Generated_Source\PSoC5/CyLib.c **** void CyEnableInts(uint32 mask) 
2020:Generated_Source\PSoC5/CyLib.c **** {
 3928              		.loc 1 2020 0
 3929              		.cfi_startproc
 3930              		@ args = 0, pretend = 0, frame = 16
 3931              		@ frame_needed = 1, uses_anonymous_args = 0
 3932 0000 80B5     		push	{r7, lr}
 3933              		.cfi_def_cfa_offset 8
 3934              		.cfi_offset 7, -8
 3935              		.cfi_offset 14, -4
 3936 0002 84B0     		sub	sp, sp, #16
 3937              		.cfi_def_cfa_offset 24
ARM GAS  C:\Users\ben\AppData\Local\Temp\ccnBLHGm.s 			page 106


 3938 0004 00AF     		add	r7, sp, #0
 3939              		.cfi_def_cfa_register 7
 3940 0006 7860     		str	r0, [r7, #4]
2021:Generated_Source\PSoC5/CyLib.c **** 
2022:Generated_Source\PSoC5/CyLib.c ****     uint8 interruptState;
2023:Generated_Source\PSoC5/CyLib.c **** 
2024:Generated_Source\PSoC5/CyLib.c ****     interruptState = CyEnterCriticalSection();
 3941              		.loc 1 2024 0
 3942 0008 FFF7FEFF 		bl	CyEnterCriticalSection
 3943 000c 0346     		mov	r3, r0
 3944 000e FB73     		strb	r3, [r7, #15]
2025:Generated_Source\PSoC5/CyLib.c **** 
2026:Generated_Source\PSoC5/CyLib.c ****     #if(CY_PSOC3)
2027:Generated_Source\PSoC5/CyLib.c **** 
2028:Generated_Source\PSoC5/CyLib.c ****         /* Set interrupts as enabled. */
2029:Generated_Source\PSoC5/CyLib.c ****         CY_SET_REG8(CY_INT_SET_EN3_PTR, ((uint8) (mask >> 24u)));
2030:Generated_Source\PSoC5/CyLib.c ****         CY_SET_REG8(CY_INT_SET_EN2_PTR, ((uint8) (mask >> 16u)));
2031:Generated_Source\PSoC5/CyLib.c ****         CY_SET_REG8(CY_INT_SET_EN1_PTR, ((uint8) (mask >> 8u )));
2032:Generated_Source\PSoC5/CyLib.c ****         CY_SET_REG8(CY_INT_SET_EN0_PTR, ((uint8) (mask )));
2033:Generated_Source\PSoC5/CyLib.c **** 
2034:Generated_Source\PSoC5/CyLib.c ****     #else
2035:Generated_Source\PSoC5/CyLib.c **** 
2036:Generated_Source\PSoC5/CyLib.c ****         CY_SET_REG32(CY_INT_ENABLE_PTR, mask);
 3945              		.loc 1 2036 0
 3946 0010 044A     		ldr	r2, .L273
 3947 0012 7B68     		ldr	r3, [r7, #4]
 3948 0014 1360     		str	r3, [r2]
2037:Generated_Source\PSoC5/CyLib.c **** 
2038:Generated_Source\PSoC5/CyLib.c ****     #endif /* (CY_PSOC3) */
2039:Generated_Source\PSoC5/CyLib.c **** 
2040:Generated_Source\PSoC5/CyLib.c ****     CyExitCriticalSection(interruptState);
 3949              		.loc 1 2040 0
 3950 0016 FB7B     		ldrb	r3, [r7, #15]	@ zero_extendqisi2
 3951 0018 1846     		mov	r0, r3
 3952 001a FFF7FEFF 		bl	CyExitCriticalSection
2041:Generated_Source\PSoC5/CyLib.c **** 
2042:Generated_Source\PSoC5/CyLib.c **** }
 3953              		.loc 1 2042 0
 3954 001e 1037     		adds	r7, r7, #16
 3955              		.cfi_def_cfa_offset 8
 3956 0020 BD46     		mov	sp, r7
 3957              		.cfi_def_cfa_register 13
 3958              		@ sp needed
 3959 0022 80BD     		pop	{r7, pc}
 3960              	.L274:
 3961              		.align	2
 3962              	.L273:
 3963 0024 00E100E0 		.word	-536813312
 3964              		.cfi_endproc
 3965              	.LFE55:
 3966              		.size	CyEnableInts, .-CyEnableInts
 3967              		.section	.text.CyFlushCache,"ax",%progbits
 3968              		.align	2
 3969              		.global	CyFlushCache
 3970              		.thumb
 3971              		.thumb_func
 3972              		.type	CyFlushCache, %function
ARM GAS  C:\Users\ben\AppData\Local\Temp\ccnBLHGm.s 			page 107


 3973              	CyFlushCache:
 3974              	.LFB56:
2043:Generated_Source\PSoC5/CyLib.c **** 
2044:Generated_Source\PSoC5/CyLib.c **** #if(CY_PSOC5)
2045:Generated_Source\PSoC5/CyLib.c **** 
2046:Generated_Source\PSoC5/CyLib.c ****     /*******************************************************************************
2047:Generated_Source\PSoC5/CyLib.c ****     * Function Name: CyFlushCache
2048:Generated_Source\PSoC5/CyLib.c ****     ****************************************************************************//**
2049:Generated_Source\PSoC5/CyLib.c ****     *  Call this API after a flash row erase/write operation to invalidate or flush
2050:Generated_Source\PSoC5/CyLib.c ****     *  any of that particular flash region content already present in the cache.
2051:Generated_Source\PSoC5/CyLib.c ****     *  After a cache flush operation, any access to that flash region after the
2052:Generated_Source\PSoC5/CyLib.c ****     *  erase/write operation would reload the cache with the modified data from the
2053:Generated_Source\PSoC5/CyLib.c ****     *  flash region. If the flash region update involves multiple flash row write
2054:Generated_Source\PSoC5/CyLib.c ****     *  operations, then the flushing of the cache can be done once at the end of
2055:Generated_Source\PSoC5/CyLib.c ****     *  the operation as long as the flash data would not be accessed in the middle
2056:Generated_Source\PSoC5/CyLib.c ****     *  of the multiple row update process. Else, flush the cache after every flash
2057:Generated_Source\PSoC5/CyLib.c ****     *  row write.
2058:Generated_Source\PSoC5/CyLib.c ****     *
2059:Generated_Source\PSoC5/CyLib.c ****     *******************************************************************************/
2060:Generated_Source\PSoC5/CyLib.c ****     void CyFlushCache(void)
2061:Generated_Source\PSoC5/CyLib.c ****     {
 3975              		.loc 1 2061 0
 3976              		.cfi_startproc
 3977              		@ args = 0, pretend = 0, frame = 8
 3978              		@ frame_needed = 1, uses_anonymous_args = 0
 3979 0000 80B5     		push	{r7, lr}
 3980              		.cfi_def_cfa_offset 8
 3981              		.cfi_offset 7, -8
 3982              		.cfi_offset 14, -4
 3983 0002 82B0     		sub	sp, sp, #8
 3984              		.cfi_def_cfa_offset 16
 3985 0004 00AF     		add	r7, sp, #0
 3986              		.cfi_def_cfa_register 7
2062:Generated_Source\PSoC5/CyLib.c ****         uint8 interruptState;
2063:Generated_Source\PSoC5/CyLib.c **** 
2064:Generated_Source\PSoC5/CyLib.c ****         /* Save current global interrupt enable and disable it */
2065:Generated_Source\PSoC5/CyLib.c ****         interruptState = CyEnterCriticalSection();
 3987              		.loc 1 2065 0
 3988 0006 FFF7FEFF 		bl	CyEnterCriticalSection
 3989 000a 0346     		mov	r3, r0
 3990 000c FB71     		strb	r3, [r7, #7]
2066:Generated_Source\PSoC5/CyLib.c **** 
2067:Generated_Source\PSoC5/CyLib.c ****         /* Fill instruction prefectch unit to insure data integrity */
2068:Generated_Source\PSoC5/CyLib.c ****         CY_NOP;
 3991              		.loc 1 2068 0
 3992              	@ 2068 "Generated_Source\PSoC5\CyLib.c" 1
 3993 000e 00BF     		NOP
 3994              	
 3995              	@ 0 "" 2
2069:Generated_Source\PSoC5/CyLib.c ****         CY_NOP;
 3996              		.loc 1 2069 0
 3997              	@ 2069 "Generated_Source\PSoC5\CyLib.c" 1
 3998 0010 00BF     		NOP
 3999              	
 4000              	@ 0 "" 2
2070:Generated_Source\PSoC5/CyLib.c ****         CY_NOP;
 4001              		.loc 1 2070 0
ARM GAS  C:\Users\ben\AppData\Local\Temp\ccnBLHGm.s 			page 108


 4002              	@ 2070 "Generated_Source\PSoC5\CyLib.c" 1
 4003 0012 00BF     		NOP
 4004              	
 4005              	@ 0 "" 2
2071:Generated_Source\PSoC5/CyLib.c ****         CY_NOP;
 4006              		.loc 1 2071 0
 4007              	@ 2071 "Generated_Source\PSoC5\CyLib.c" 1
 4008 0014 00BF     		NOP
 4009              	
 4010              	@ 0 "" 2
2072:Generated_Source\PSoC5/CyLib.c ****         CY_NOP;
 4011              		.loc 1 2072 0
 4012              	@ 2072 "Generated_Source\PSoC5\CyLib.c" 1
 4013 0016 00BF     		NOP
 4014              	
 4015              	@ 0 "" 2
2073:Generated_Source\PSoC5/CyLib.c ****         CY_NOP;
 4016              		.loc 1 2073 0
 4017              	@ 2073 "Generated_Source\PSoC5\CyLib.c" 1
 4018 0018 00BF     		NOP
 4019              	
 4020              	@ 0 "" 2
2074:Generated_Source\PSoC5/CyLib.c ****         CY_NOP;
 4021              		.loc 1 2074 0
 4022              	@ 2074 "Generated_Source\PSoC5\CyLib.c" 1
 4023 001a 00BF     		NOP
 4024              	
 4025              	@ 0 "" 2
2075:Generated_Source\PSoC5/CyLib.c ****         CY_NOP;
 4026              		.loc 1 2075 0
 4027              	@ 2075 "Generated_Source\PSoC5\CyLib.c" 1
 4028 001c 00BF     		NOP
 4029              	
 4030              	@ 0 "" 2
2076:Generated_Source\PSoC5/CyLib.c ****         CY_NOP;
 4031              		.loc 1 2076 0
 4032              	@ 2076 "Generated_Source\PSoC5\CyLib.c" 1
 4033 001e 00BF     		NOP
 4034              	
 4035              	@ 0 "" 2
2077:Generated_Source\PSoC5/CyLib.c ****         CY_NOP;
 4036              		.loc 1 2077 0
 4037              	@ 2077 "Generated_Source\PSoC5\CyLib.c" 1
 4038 0020 00BF     		NOP
 4039              	
 4040              	@ 0 "" 2
2078:Generated_Source\PSoC5/CyLib.c ****         CY_NOP;
 4041              		.loc 1 2078 0
 4042              	@ 2078 "Generated_Source\PSoC5\CyLib.c" 1
 4043 0022 00BF     		NOP
 4044              	
 4045              	@ 0 "" 2
2079:Generated_Source\PSoC5/CyLib.c ****         CY_NOP;
 4046              		.loc 1 2079 0
 4047              	@ 2079 "Generated_Source\PSoC5\CyLib.c" 1
 4048 0024 00BF     		NOP
 4049              	
ARM GAS  C:\Users\ben\AppData\Local\Temp\ccnBLHGm.s 			page 109


 4050              	@ 0 "" 2
2080:Generated_Source\PSoC5/CyLib.c ****         CY_NOP;
 4051              		.loc 1 2080 0
 4052              	@ 2080 "Generated_Source\PSoC5\CyLib.c" 1
 4053 0026 00BF     		NOP
 4054              	
 4055              	@ 0 "" 2
2081:Generated_Source\PSoC5/CyLib.c ****         CY_NOP;
 4056              		.loc 1 2081 0
 4057              	@ 2081 "Generated_Source\PSoC5\CyLib.c" 1
 4058 0028 00BF     		NOP
 4059              	
 4060              	@ 0 "" 2
2082:Generated_Source\PSoC5/CyLib.c ****         CY_NOP;
 4061              		.loc 1 2082 0
 4062              	@ 2082 "Generated_Source\PSoC5\CyLib.c" 1
 4063 002a 00BF     		NOP
 4064              	
 4065              	@ 0 "" 2
2083:Generated_Source\PSoC5/CyLib.c ****         CY_NOP;
 4066              		.loc 1 2083 0
 4067              	@ 2083 "Generated_Source\PSoC5\CyLib.c" 1
 4068 002c 00BF     		NOP
 4069              	
 4070              	@ 0 "" 2
2084:Generated_Source\PSoC5/CyLib.c **** 
2085:Generated_Source\PSoC5/CyLib.c ****         /* All entries in cache are invalidated on next clock cycle. */
2086:Generated_Source\PSoC5/CyLib.c ****         CY_CACHE_CONTROL_REG |= CY_CACHE_CONTROL_FLUSH;
 4071              		.loc 1 2086 0
 4072              		.thumb
 4073 002e 094A     		ldr	r2, .L276
 4074 0030 084B     		ldr	r3, .L276
 4075 0032 1B88     		ldrh	r3, [r3]	@ movhi
 4076 0034 9BB2     		uxth	r3, r3
 4077 0036 43F00403 		orr	r3, r3, #4
 4078 003a 9BB2     		uxth	r3, r3
 4079 003c 1380     		strh	r3, [r2]	@ movhi
2087:Generated_Source\PSoC5/CyLib.c **** 
2088:Generated_Source\PSoC5/CyLib.c ****         /* Once this is executed it's guaranteed the cache has been flushed */
2089:Generated_Source\PSoC5/CyLib.c ****         (void) CY_CACHE_CONTROL_REG;
 4080              		.loc 1 2089 0
 4081 003e 054B     		ldr	r3, .L276
 4082 0040 1B88     		ldrh	r3, [r3]	@ movhi
2090:Generated_Source\PSoC5/CyLib.c **** 
2091:Generated_Source\PSoC5/CyLib.c ****         /* Flush the pipeline */
2092:Generated_Source\PSoC5/CyLib.c ****         CY_SYS_ISB;
 4083              		.loc 1 2092 0
 4084              	@ 2092 "Generated_Source\PSoC5\CyLib.c" 1
 4085 0042 BFF36F8F 		isb 
 4086              	
 4087              	@ 0 "" 2
2093:Generated_Source\PSoC5/CyLib.c **** 
2094:Generated_Source\PSoC5/CyLib.c ****         /* Restore global interrupt enable state */
2095:Generated_Source\PSoC5/CyLib.c ****         CyExitCriticalSection(interruptState);
 4088              		.loc 1 2095 0
 4089              		.thumb
 4090 0046 FB79     		ldrb	r3, [r7, #7]	@ zero_extendqisi2
ARM GAS  C:\Users\ben\AppData\Local\Temp\ccnBLHGm.s 			page 110


 4091 0048 1846     		mov	r0, r3
 4092 004a FFF7FEFF 		bl	CyExitCriticalSection
2096:Generated_Source\PSoC5/CyLib.c ****     }
 4093              		.loc 1 2096 0
 4094 004e 0837     		adds	r7, r7, #8
 4095              		.cfi_def_cfa_offset 8
 4096 0050 BD46     		mov	sp, r7
 4097              		.cfi_def_cfa_register 13
 4098              		@ sp needed
 4099 0052 80BD     		pop	{r7, pc}
 4100              	.L277:
 4101              		.align	2
 4102              	.L276:
 4103 0054 00480040 		.word	1073760256
 4104              		.cfi_endproc
 4105              	.LFE56:
 4106              		.size	CyFlushCache, .-CyFlushCache
 4107              		.section	.text.CyIntSetSysVector,"ax",%progbits
 4108              		.align	2
 4109              		.global	CyIntSetSysVector
 4110              		.thumb
 4111              		.thumb_func
 4112              		.type	CyIntSetSysVector, %function
 4113              	CyIntSetSysVector:
 4114              	.LFB57:
2097:Generated_Source\PSoC5/CyLib.c **** 
2098:Generated_Source\PSoC5/CyLib.c **** 
2099:Generated_Source\PSoC5/CyLib.c ****     /*******************************************************************************
2100:Generated_Source\PSoC5/CyLib.c ****     * Function Name: CyIntSetSysVector
2101:Generated_Source\PSoC5/CyLib.c ****     ****************************************************************************//**
2102:Generated_Source\PSoC5/CyLib.c ****     *  Sets the interrupt vector of the specified system interrupt number. System
2103:Generated_Source\PSoC5/CyLib.c ****     *  interrupts are present only for the ARM platform. These interrupts are for
2104:Generated_Source\PSoC5/CyLib.c ****     *  SysTick, PendSV and others.
2105:Generated_Source\PSoC5/CyLib.c ****     *
2106:Generated_Source\PSoC5/CyLib.c ****     *  \param number: System interrupt number:
2107:Generated_Source\PSoC5/CyLib.c ****     *    CY_INT_NMI_IRQN                - Non Maskable Interrupt
2108:Generated_Source\PSoC5/CyLib.c ****     *    CY_INT_HARD_FAULT_IRQN         - Hard Fault Interrupt
2109:Generated_Source\PSoC5/CyLib.c ****     *    CY_INT_MEM_MANAGE_IRQN         - Memory Management Interrupt
2110:Generated_Source\PSoC5/CyLib.c ****     *    CY_INT_BUS_FAULT_IRQN          - Bus Fault Interrupt
2111:Generated_Source\PSoC5/CyLib.c ****     *    CY_INT_USAGE_FAULT_IRQN        - Usage Fault Interrupt
2112:Generated_Source\PSoC5/CyLib.c ****     *    CY_INT_SVCALL_IRQN             - SV Call Interrupt
2113:Generated_Source\PSoC5/CyLib.c ****     *    CY_INT_DEBUG_MONITOR_IRQN      - Debug Monitor Interrupt
2114:Generated_Source\PSoC5/CyLib.c ****     *    CY_INT_PEND_SV_IRQN            - Pend SV Interrupt
2115:Generated_Source\PSoC5/CyLib.c ****     *    CY_INT_SYSTICK_IRQN            - System Tick Interrupt
2116:Generated_Source\PSoC5/CyLib.c ****     *
2117:Generated_Source\PSoC5/CyLib.c ****     *  \param address: Pointer to an interrupt service routine.
2118:Generated_Source\PSoC5/CyLib.c ****     *
2119:Generated_Source\PSoC5/CyLib.c ****     * \return
2120:Generated_Source\PSoC5/CyLib.c ****     *   The old ISR vector at this location.
2121:Generated_Source\PSoC5/CyLib.c ****     *
2122:Generated_Source\PSoC5/CyLib.c ****     *******************************************************************************/
2123:Generated_Source\PSoC5/CyLib.c ****     cyisraddress CyIntSetSysVector(uint8 number, cyisraddress address)
2124:Generated_Source\PSoC5/CyLib.c ****     {
 4115              		.loc 1 2124 0
 4116              		.cfi_startproc
 4117              		@ args = 0, pretend = 0, frame = 16
 4118              		@ frame_needed = 1, uses_anonymous_args = 0
ARM GAS  C:\Users\ben\AppData\Local\Temp\ccnBLHGm.s 			page 111


 4119              		@ link register save eliminated.
 4120 0000 80B4     		push	{r7}
 4121              		.cfi_def_cfa_offset 4
 4122              		.cfi_offset 7, -4
 4123 0002 85B0     		sub	sp, sp, #20
 4124              		.cfi_def_cfa_offset 24
 4125 0004 00AF     		add	r7, sp, #0
 4126              		.cfi_def_cfa_register 7
 4127 0006 0346     		mov	r3, r0
 4128 0008 3960     		str	r1, [r7]
 4129 000a FB71     		strb	r3, [r7, #7]
2125:Generated_Source\PSoC5/CyLib.c ****         cyisraddress oldIsr;
2126:Generated_Source\PSoC5/CyLib.c ****         cyisraddress *ramVectorTable = *CY_INT_VECT_TABLE;
 4130              		.loc 1 2126 0
 4131 000c 0C4B     		ldr	r3, .L280
 4132 000e 1B68     		ldr	r3, [r3]
 4133 0010 FB60     		str	r3, [r7, #12]
2127:Generated_Source\PSoC5/CyLib.c **** 
2128:Generated_Source\PSoC5/CyLib.c ****         CYASSERT(number <= CY_INT_SYS_NUMBER_MAX);
2129:Generated_Source\PSoC5/CyLib.c **** 
2130:Generated_Source\PSoC5/CyLib.c ****         /* Save old Interrupt service routine. */
2131:Generated_Source\PSoC5/CyLib.c ****         oldIsr = ramVectorTable[number & CY_INT_SYS_NUMBER_MASK];
 4134              		.loc 1 2131 0
 4135 0012 FB79     		ldrb	r3, [r7, #7]	@ zero_extendqisi2
 4136 0014 03F00F03 		and	r3, r3, #15
 4137 0018 9B00     		lsls	r3, r3, #2
 4138 001a FA68     		ldr	r2, [r7, #12]
 4139 001c 1344     		add	r3, r3, r2
 4140 001e 1B68     		ldr	r3, [r3]
 4141 0020 BB60     		str	r3, [r7, #8]
2132:Generated_Source\PSoC5/CyLib.c **** 
2133:Generated_Source\PSoC5/CyLib.c ****         /* Set new Interrupt service routine. */
2134:Generated_Source\PSoC5/CyLib.c ****         ramVectorTable[number & CY_INT_SYS_NUMBER_MASK] = address;
 4142              		.loc 1 2134 0
 4143 0022 FB79     		ldrb	r3, [r7, #7]	@ zero_extendqisi2
 4144 0024 03F00F03 		and	r3, r3, #15
 4145 0028 9B00     		lsls	r3, r3, #2
 4146 002a FA68     		ldr	r2, [r7, #12]
 4147 002c 1344     		add	r3, r3, r2
 4148 002e 3A68     		ldr	r2, [r7]
 4149 0030 1A60     		str	r2, [r3]
2135:Generated_Source\PSoC5/CyLib.c **** 
2136:Generated_Source\PSoC5/CyLib.c ****         return (oldIsr);
 4150              		.loc 1 2136 0
 4151 0032 BB68     		ldr	r3, [r7, #8]
2137:Generated_Source\PSoC5/CyLib.c ****     }
 4152              		.loc 1 2137 0
 4153 0034 1846     		mov	r0, r3
 4154 0036 1437     		adds	r7, r7, #20
 4155              		.cfi_def_cfa_offset 4
 4156 0038 BD46     		mov	sp, r7
 4157              		.cfi_def_cfa_register 13
 4158              		@ sp needed
 4159 003a 5DF8047B 		ldr	r7, [sp], #4
 4160              		.cfi_restore 7
 4161              		.cfi_def_cfa_offset 0
 4162 003e 7047     		bx	lr
ARM GAS  C:\Users\ben\AppData\Local\Temp\ccnBLHGm.s 			page 112


 4163              	.L281:
 4164              		.align	2
 4165              	.L280:
 4166 0040 08ED00E0 		.word	-536810232
 4167              		.cfi_endproc
 4168              	.LFE57:
 4169              		.size	CyIntSetSysVector, .-CyIntSetSysVector
 4170              		.section	.text.CyIntGetSysVector,"ax",%progbits
 4171              		.align	2
 4172              		.global	CyIntGetSysVector
 4173              		.thumb
 4174              		.thumb_func
 4175              		.type	CyIntGetSysVector, %function
 4176              	CyIntGetSysVector:
 4177              	.LFB58:
2138:Generated_Source\PSoC5/CyLib.c **** 
2139:Generated_Source\PSoC5/CyLib.c **** 
2140:Generated_Source\PSoC5/CyLib.c ****     /*******************************************************************************
2141:Generated_Source\PSoC5/CyLib.c ****     * Function Name: CyIntGetSysVector
2142:Generated_Source\PSoC5/CyLib.c ****     ****************************************************************************//**
2143:Generated_Source\PSoC5/CyLib.c ****     *
2144:Generated_Source\PSoC5/CyLib.c ****     *  Gets the interrupt vector of the specified system interrupt number. System
2145:Generated_Source\PSoC5/CyLib.c ****     *  interrupts are present only for the ARM platform. These interrupts are for
2146:Generated_Source\PSoC5/CyLib.c ****     *  SysTick, PendSV and others.
2147:Generated_Source\PSoC5/CyLib.c ****     *
2148:Generated_Source\PSoC5/CyLib.c ****     *  \param number: System interrupt number:
2149:Generated_Source\PSoC5/CyLib.c ****     *    CY_INT_NMI_IRQN                - Non Maskable Interrupt
2150:Generated_Source\PSoC5/CyLib.c ****     *    CY_INT_HARD_FAULT_IRQN         - Hard Fault Interrupt
2151:Generated_Source\PSoC5/CyLib.c ****     *    CY_INT_MEMORY_MANAGEMENT_IRQN  - Memory Management Interrupt
2152:Generated_Source\PSoC5/CyLib.c ****     *    CY_INT_BUS_FAULT_IRQN          - Bus Fault Interrupt
2153:Generated_Source\PSoC5/CyLib.c ****     *    CY_INT_USAGE_FAULT_IRQN        - Usage Fault Interrupt
2154:Generated_Source\PSoC5/CyLib.c ****     *    CY_INT_SVCALL_IRQN             - SV Call Interrupt
2155:Generated_Source\PSoC5/CyLib.c ****     *    CY_INT_DEBUG_MONITOR_IRQN      - Debug Monitor Interrupt
2156:Generated_Source\PSoC5/CyLib.c ****     *    CY_INT_PEND_SV_IRQN            - Pend SV Interrupt
2157:Generated_Source\PSoC5/CyLib.c ****     *    CY_INT_SYSTICK_IRQN            - System Tick Interrupt
2158:Generated_Source\PSoC5/CyLib.c ****     *
2159:Generated_Source\PSoC5/CyLib.c ****     * \return
2160:Generated_Source\PSoC5/CyLib.c ****     *   Address of the ISR in the interrupt vector table.
2161:Generated_Source\PSoC5/CyLib.c ****     *
2162:Generated_Source\PSoC5/CyLib.c ****     *******************************************************************************/
2163:Generated_Source\PSoC5/CyLib.c ****     cyisraddress CyIntGetSysVector(uint8 number)
2164:Generated_Source\PSoC5/CyLib.c ****     {
 4178              		.loc 1 2164 0
 4179              		.cfi_startproc
 4180              		@ args = 0, pretend = 0, frame = 16
 4181              		@ frame_needed = 1, uses_anonymous_args = 0
 4182              		@ link register save eliminated.
 4183 0000 80B4     		push	{r7}
 4184              		.cfi_def_cfa_offset 4
 4185              		.cfi_offset 7, -4
 4186 0002 85B0     		sub	sp, sp, #20
 4187              		.cfi_def_cfa_offset 24
 4188 0004 00AF     		add	r7, sp, #0
 4189              		.cfi_def_cfa_register 7
 4190 0006 0346     		mov	r3, r0
 4191 0008 FB71     		strb	r3, [r7, #7]
2165:Generated_Source\PSoC5/CyLib.c ****         cyisraddress *ramVectorTable = *CY_INT_VECT_TABLE;
ARM GAS  C:\Users\ben\AppData\Local\Temp\ccnBLHGm.s 			page 113


 4192              		.loc 1 2165 0
 4193 000a 084B     		ldr	r3, .L284
 4194 000c 1B68     		ldr	r3, [r3]
 4195 000e FB60     		str	r3, [r7, #12]
2166:Generated_Source\PSoC5/CyLib.c ****         CYASSERT(number <= CY_INT_SYS_NUMBER_MAX);
2167:Generated_Source\PSoC5/CyLib.c **** 
2168:Generated_Source\PSoC5/CyLib.c ****         return ramVectorTable[number & CY_INT_SYS_NUMBER_MASK];
 4196              		.loc 1 2168 0
 4197 0010 FB79     		ldrb	r3, [r7, #7]	@ zero_extendqisi2
 4198 0012 03F00F03 		and	r3, r3, #15
 4199 0016 9B00     		lsls	r3, r3, #2
 4200 0018 FA68     		ldr	r2, [r7, #12]
 4201 001a 1344     		add	r3, r3, r2
 4202 001c 1B68     		ldr	r3, [r3]
2169:Generated_Source\PSoC5/CyLib.c ****     }
 4203              		.loc 1 2169 0
 4204 001e 1846     		mov	r0, r3
 4205 0020 1437     		adds	r7, r7, #20
 4206              		.cfi_def_cfa_offset 4
 4207 0022 BD46     		mov	sp, r7
 4208              		.cfi_def_cfa_register 13
 4209              		@ sp needed
 4210 0024 5DF8047B 		ldr	r7, [sp], #4
 4211              		.cfi_restore 7
 4212              		.cfi_def_cfa_offset 0
 4213 0028 7047     		bx	lr
 4214              	.L285:
 4215 002a 00BF     		.align	2
 4216              	.L284:
 4217 002c 08ED00E0 		.word	-536810232
 4218              		.cfi_endproc
 4219              	.LFE58:
 4220              		.size	CyIntGetSysVector, .-CyIntGetSysVector
 4221              		.section	.text.CyIntSetVector,"ax",%progbits
 4222              		.align	2
 4223              		.global	CyIntSetVector
 4224              		.thumb
 4225              		.thumb_func
 4226              		.type	CyIntSetVector, %function
 4227              	CyIntSetVector:
 4228              	.LFB59:
2170:Generated_Source\PSoC5/CyLib.c **** 
2171:Generated_Source\PSoC5/CyLib.c **** 
2172:Generated_Source\PSoC5/CyLib.c ****     /*******************************************************************************
2173:Generated_Source\PSoC5/CyLib.c ****     * Function Name: CyIntSetVector
2174:Generated_Source\PSoC5/CyLib.c ****     ****************************************************************************//**
2175:Generated_Source\PSoC5/CyLib.c ****     *
2176:Generated_Source\PSoC5/CyLib.c ****     *  Sets the interrupt vector of the specified interrupt number.
2177:Generated_Source\PSoC5/CyLib.c ****     *
2178:Generated_Source\PSoC5/CyLib.c ****     *  \param number: Valid range [0-31].  Interrupt number
2179:Generated_Source\PSoC5/CyLib.c ****     *  \param address: Pointer to an interrupt service routine
2180:Generated_Source\PSoC5/CyLib.c ****     *
2181:Generated_Source\PSoC5/CyLib.c ****     * \return
2182:Generated_Source\PSoC5/CyLib.c ****     *   Previous interrupt vector value.
2183:Generated_Source\PSoC5/CyLib.c ****     *
2184:Generated_Source\PSoC5/CyLib.c ****     *******************************************************************************/
2185:Generated_Source\PSoC5/CyLib.c ****     cyisraddress CyIntSetVector(uint8 number, cyisraddress address)
ARM GAS  C:\Users\ben\AppData\Local\Temp\ccnBLHGm.s 			page 114


2186:Generated_Source\PSoC5/CyLib.c ****     {
 4229              		.loc 1 2186 0
 4230              		.cfi_startproc
 4231              		@ args = 0, pretend = 0, frame = 16
 4232              		@ frame_needed = 1, uses_anonymous_args = 0
 4233              		@ link register save eliminated.
 4234 0000 80B4     		push	{r7}
 4235              		.cfi_def_cfa_offset 4
 4236              		.cfi_offset 7, -4
 4237 0002 85B0     		sub	sp, sp, #20
 4238              		.cfi_def_cfa_offset 24
 4239 0004 00AF     		add	r7, sp, #0
 4240              		.cfi_def_cfa_register 7
 4241 0006 0346     		mov	r3, r0
 4242 0008 3960     		str	r1, [r7]
 4243 000a FB71     		strb	r3, [r7, #7]
2187:Generated_Source\PSoC5/CyLib.c ****         cyisraddress oldIsr;
2188:Generated_Source\PSoC5/CyLib.c ****         cyisraddress *ramVectorTable = *CY_INT_VECT_TABLE;
 4244              		.loc 1 2188 0
 4245 000c 0D4B     		ldr	r3, .L288
 4246 000e 1B68     		ldr	r3, [r3]
 4247 0010 FB60     		str	r3, [r7, #12]
2189:Generated_Source\PSoC5/CyLib.c **** 
2190:Generated_Source\PSoC5/CyLib.c ****         CYASSERT(number <= CY_INT_NUMBER_MAX);
2191:Generated_Source\PSoC5/CyLib.c **** 
2192:Generated_Source\PSoC5/CyLib.c ****         /* Save old Interrupt service routine. */
2193:Generated_Source\PSoC5/CyLib.c ****         oldIsr = ramVectorTable[CY_INT_IRQ_BASE + (number & CY_INT_NUMBER_MASK)];
 4248              		.loc 1 2193 0
 4249 0012 FB79     		ldrb	r3, [r7, #7]	@ zero_extendqisi2
 4250 0014 03F01F03 		and	r3, r3, #31
 4251 0018 1033     		adds	r3, r3, #16
 4252 001a 9B00     		lsls	r3, r3, #2
 4253 001c FA68     		ldr	r2, [r7, #12]
 4254 001e 1344     		add	r3, r3, r2
 4255 0020 1B68     		ldr	r3, [r3]
 4256 0022 BB60     		str	r3, [r7, #8]
2194:Generated_Source\PSoC5/CyLib.c **** 
2195:Generated_Source\PSoC5/CyLib.c ****         /* Set new Interrupt service routine. */
2196:Generated_Source\PSoC5/CyLib.c ****         ramVectorTable[CY_INT_IRQ_BASE + (number & CY_INT_NUMBER_MASK)] = address;
 4257              		.loc 1 2196 0
 4258 0024 FB79     		ldrb	r3, [r7, #7]	@ zero_extendqisi2
 4259 0026 03F01F03 		and	r3, r3, #31
 4260 002a 1033     		adds	r3, r3, #16
 4261 002c 9B00     		lsls	r3, r3, #2
 4262 002e FA68     		ldr	r2, [r7, #12]
 4263 0030 1344     		add	r3, r3, r2
 4264 0032 3A68     		ldr	r2, [r7]
 4265 0034 1A60     		str	r2, [r3]
2197:Generated_Source\PSoC5/CyLib.c **** 
2198:Generated_Source\PSoC5/CyLib.c ****         return (oldIsr);
 4266              		.loc 1 2198 0
 4267 0036 BB68     		ldr	r3, [r7, #8]
2199:Generated_Source\PSoC5/CyLib.c ****     }
 4268              		.loc 1 2199 0
 4269 0038 1846     		mov	r0, r3
 4270 003a 1437     		adds	r7, r7, #20
 4271              		.cfi_def_cfa_offset 4
ARM GAS  C:\Users\ben\AppData\Local\Temp\ccnBLHGm.s 			page 115


 4272 003c BD46     		mov	sp, r7
 4273              		.cfi_def_cfa_register 13
 4274              		@ sp needed
 4275 003e 5DF8047B 		ldr	r7, [sp], #4
 4276              		.cfi_restore 7
 4277              		.cfi_def_cfa_offset 0
 4278 0042 7047     		bx	lr
 4279              	.L289:
 4280              		.align	2
 4281              	.L288:
 4282 0044 08ED00E0 		.word	-536810232
 4283              		.cfi_endproc
 4284              	.LFE59:
 4285              		.size	CyIntSetVector, .-CyIntSetVector
 4286              		.section	.text.CyIntGetVector,"ax",%progbits
 4287              		.align	2
 4288              		.global	CyIntGetVector
 4289              		.thumb
 4290              		.thumb_func
 4291              		.type	CyIntGetVector, %function
 4292              	CyIntGetVector:
 4293              	.LFB60:
2200:Generated_Source\PSoC5/CyLib.c **** 
2201:Generated_Source\PSoC5/CyLib.c **** 
2202:Generated_Source\PSoC5/CyLib.c ****     /*******************************************************************************
2203:Generated_Source\PSoC5/CyLib.c ****     * Function Name: CyIntGetVector
2204:Generated_Source\PSoC5/CyLib.c ****     ****************************************************************************//**
2205:Generated_Source\PSoC5/CyLib.c ****     *
2206:Generated_Source\PSoC5/CyLib.c ****     *  Gets the interrupt vector of the specified interrupt number.
2207:Generated_Source\PSoC5/CyLib.c ****     *
2208:Generated_Source\PSoC5/CyLib.c ****     *  \param number: Valid range [0-31].  Interrupt number
2209:Generated_Source\PSoC5/CyLib.c ****     *
2210:Generated_Source\PSoC5/CyLib.c ****     * \return
2211:Generated_Source\PSoC5/CyLib.c ****     *  The address of the ISR in the interrupt vector table.
2212:Generated_Source\PSoC5/CyLib.c ****     *
2213:Generated_Source\PSoC5/CyLib.c ****     *******************************************************************************/
2214:Generated_Source\PSoC5/CyLib.c ****     cyisraddress CyIntGetVector(uint8 number)
2215:Generated_Source\PSoC5/CyLib.c ****     {
 4294              		.loc 1 2215 0
 4295              		.cfi_startproc
 4296              		@ args = 0, pretend = 0, frame = 16
 4297              		@ frame_needed = 1, uses_anonymous_args = 0
 4298              		@ link register save eliminated.
 4299 0000 80B4     		push	{r7}
 4300              		.cfi_def_cfa_offset 4
 4301              		.cfi_offset 7, -4
 4302 0002 85B0     		sub	sp, sp, #20
 4303              		.cfi_def_cfa_offset 24
 4304 0004 00AF     		add	r7, sp, #0
 4305              		.cfi_def_cfa_register 7
 4306 0006 0346     		mov	r3, r0
 4307 0008 FB71     		strb	r3, [r7, #7]
2216:Generated_Source\PSoC5/CyLib.c ****         cyisraddress *ramVectorTable = *CY_INT_VECT_TABLE;
 4308              		.loc 1 2216 0
 4309 000a 084B     		ldr	r3, .L292
 4310 000c 1B68     		ldr	r3, [r3]
 4311 000e FB60     		str	r3, [r7, #12]
ARM GAS  C:\Users\ben\AppData\Local\Temp\ccnBLHGm.s 			page 116


2217:Generated_Source\PSoC5/CyLib.c ****         CYASSERT(number <= CY_INT_NUMBER_MAX);
2218:Generated_Source\PSoC5/CyLib.c **** 
2219:Generated_Source\PSoC5/CyLib.c ****         return (ramVectorTable[CY_INT_IRQ_BASE + (number & CY_INT_NUMBER_MASK)]);
 4312              		.loc 1 2219 0
 4313 0010 FB79     		ldrb	r3, [r7, #7]	@ zero_extendqisi2
 4314 0012 03F01F03 		and	r3, r3, #31
 4315 0016 1033     		adds	r3, r3, #16
 4316 0018 9B00     		lsls	r3, r3, #2
 4317 001a FA68     		ldr	r2, [r7, #12]
 4318 001c 1344     		add	r3, r3, r2
 4319 001e 1B68     		ldr	r3, [r3]
2220:Generated_Source\PSoC5/CyLib.c ****     }
 4320              		.loc 1 2220 0
 4321 0020 1846     		mov	r0, r3
 4322 0022 1437     		adds	r7, r7, #20
 4323              		.cfi_def_cfa_offset 4
 4324 0024 BD46     		mov	sp, r7
 4325              		.cfi_def_cfa_register 13
 4326              		@ sp needed
 4327 0026 5DF8047B 		ldr	r7, [sp], #4
 4328              		.cfi_restore 7
 4329              		.cfi_def_cfa_offset 0
 4330 002a 7047     		bx	lr
 4331              	.L293:
 4332              		.align	2
 4333              	.L292:
 4334 002c 08ED00E0 		.word	-536810232
 4335              		.cfi_endproc
 4336              	.LFE60:
 4337              		.size	CyIntGetVector, .-CyIntGetVector
 4338              		.section	.text.CyIntSetPriority,"ax",%progbits
 4339              		.align	2
 4340              		.global	CyIntSetPriority
 4341              		.thumb
 4342              		.thumb_func
 4343              		.type	CyIntSetPriority, %function
 4344              	CyIntSetPriority:
 4345              	.LFB61:
2221:Generated_Source\PSoC5/CyLib.c **** 
2222:Generated_Source\PSoC5/CyLib.c **** 
2223:Generated_Source\PSoC5/CyLib.c ****     /*******************************************************************************
2224:Generated_Source\PSoC5/CyLib.c ****     * Function Name: CyIntSetPriority
2225:Generated_Source\PSoC5/CyLib.c ****     ****************************************************************************//**
2226:Generated_Source\PSoC5/CyLib.c ****     *
2227:Generated_Source\PSoC5/CyLib.c ****     *  Sets the Priority of the Interrupt.
2228:Generated_Source\PSoC5/CyLib.c ****     *
2229:Generated_Source\PSoC5/CyLib.c ****     *  \param priority: Priority of the interrupt. 0 - 7, 0 being the highest.
2230:Generated_Source\PSoC5/CyLib.c ****     *  \param number: The number of the interrupt, 0 - 31.
2231:Generated_Source\PSoC5/CyLib.c ****     *
2232:Generated_Source\PSoC5/CyLib.c ****     *******************************************************************************/
2233:Generated_Source\PSoC5/CyLib.c ****     void CyIntSetPriority(uint8 number, uint8 priority)
2234:Generated_Source\PSoC5/CyLib.c ****     {
 4346              		.loc 1 2234 0
 4347              		.cfi_startproc
 4348              		@ args = 0, pretend = 0, frame = 8
 4349              		@ frame_needed = 1, uses_anonymous_args = 0
 4350              		@ link register save eliminated.
ARM GAS  C:\Users\ben\AppData\Local\Temp\ccnBLHGm.s 			page 117


 4351 0000 80B4     		push	{r7}
 4352              		.cfi_def_cfa_offset 4
 4353              		.cfi_offset 7, -4
 4354 0002 83B0     		sub	sp, sp, #12
 4355              		.cfi_def_cfa_offset 16
 4356 0004 00AF     		add	r7, sp, #0
 4357              		.cfi_def_cfa_register 7
 4358 0006 0346     		mov	r3, r0
 4359 0008 0A46     		mov	r2, r1
 4360 000a FB71     		strb	r3, [r7, #7]
 4361 000c 1346     		mov	r3, r2
 4362 000e BB71     		strb	r3, [r7, #6]
2235:Generated_Source\PSoC5/CyLib.c ****         CYASSERT(priority <= CY_INT_PRIORITY_MAX);
2236:Generated_Source\PSoC5/CyLib.c ****         CYASSERT(number <= CY_INT_NUMBER_MAX);
2237:Generated_Source\PSoC5/CyLib.c ****         CY_INT_PRIORITY_PTR[number & CY_INT_NUMBER_MASK] = (priority & CY_INT_PRIORITY_MASK)<< 5;
 4363              		.loc 1 2237 0
 4364 0010 FB79     		ldrb	r3, [r7, #7]	@ zero_extendqisi2
 4365 0012 03F01F03 		and	r3, r3, #31
 4366 0016 03F16043 		add	r3, r3, #-536870912
 4367 001a 03F56443 		add	r3, r3, #58368
 4368 001e BA79     		ldrb	r2, [r7, #6]
 4369 0020 5201     		lsls	r2, r2, #5
 4370 0022 D2B2     		uxtb	r2, r2
 4371 0024 1A70     		strb	r2, [r3]
2238:Generated_Source\PSoC5/CyLib.c ****     }
 4372              		.loc 1 2238 0
 4373 0026 0C37     		adds	r7, r7, #12
 4374              		.cfi_def_cfa_offset 4
 4375 0028 BD46     		mov	sp, r7
 4376              		.cfi_def_cfa_register 13
 4377              		@ sp needed
 4378 002a 5DF8047B 		ldr	r7, [sp], #4
 4379              		.cfi_restore 7
 4380              		.cfi_def_cfa_offset 0
 4381 002e 7047     		bx	lr
 4382              		.cfi_endproc
 4383              	.LFE61:
 4384              		.size	CyIntSetPriority, .-CyIntSetPriority
 4385              		.section	.text.CyIntGetPriority,"ax",%progbits
 4386              		.align	2
 4387              		.global	CyIntGetPriority
 4388              		.thumb
 4389              		.thumb_func
 4390              		.type	CyIntGetPriority, %function
 4391              	CyIntGetPriority:
 4392              	.LFB62:
2239:Generated_Source\PSoC5/CyLib.c **** 
2240:Generated_Source\PSoC5/CyLib.c **** 
2241:Generated_Source\PSoC5/CyLib.c ****     /*******************************************************************************
2242:Generated_Source\PSoC5/CyLib.c ****     * Function Name: CyIntGetPriority
2243:Generated_Source\PSoC5/CyLib.c ****     ****************************************************************************//**
2244:Generated_Source\PSoC5/CyLib.c ****     *
2245:Generated_Source\PSoC5/CyLib.c ****     *  Gets the Priority of the Interrupt.
2246:Generated_Source\PSoC5/CyLib.c ****     *
2247:Generated_Source\PSoC5/CyLib.c ****     *  \param number: The number of the interrupt, 0 - 31.
2248:Generated_Source\PSoC5/CyLib.c ****     *
2249:Generated_Source\PSoC5/CyLib.c ****     * \return
ARM GAS  C:\Users\ben\AppData\Local\Temp\ccnBLHGm.s 			page 118


2250:Generated_Source\PSoC5/CyLib.c ****     *  Priority of the interrupt. 0 - 7, 0 being the highest.
2251:Generated_Source\PSoC5/CyLib.c ****     *
2252:Generated_Source\PSoC5/CyLib.c ****     *******************************************************************************/
2253:Generated_Source\PSoC5/CyLib.c ****     uint8 CyIntGetPriority(uint8 number)
2254:Generated_Source\PSoC5/CyLib.c ****     {
 4393              		.loc 1 2254 0
 4394              		.cfi_startproc
 4395              		@ args = 0, pretend = 0, frame = 16
 4396              		@ frame_needed = 1, uses_anonymous_args = 0
 4397              		@ link register save eliminated.
 4398 0000 80B4     		push	{r7}
 4399              		.cfi_def_cfa_offset 4
 4400              		.cfi_offset 7, -4
 4401 0002 85B0     		sub	sp, sp, #20
 4402              		.cfi_def_cfa_offset 24
 4403 0004 00AF     		add	r7, sp, #0
 4404              		.cfi_def_cfa_register 7
 4405 0006 0346     		mov	r3, r0
 4406 0008 FB71     		strb	r3, [r7, #7]
2255:Generated_Source\PSoC5/CyLib.c ****         uint8 priority;
2256:Generated_Source\PSoC5/CyLib.c **** 
2257:Generated_Source\PSoC5/CyLib.c ****         CYASSERT(number <= CY_INT_NUMBER_MAX);
2258:Generated_Source\PSoC5/CyLib.c **** 
2259:Generated_Source\PSoC5/CyLib.c ****         priority = CY_INT_PRIORITY_PTR[number & CY_INT_NUMBER_MASK] >> 5;
 4407              		.loc 1 2259 0
 4408 000a FB79     		ldrb	r3, [r7, #7]	@ zero_extendqisi2
 4409 000c 03F01F03 		and	r3, r3, #31
 4410 0010 03F16043 		add	r3, r3, #-536870912
 4411 0014 03F56443 		add	r3, r3, #58368
 4412 0018 1B78     		ldrb	r3, [r3]
 4413 001a DBB2     		uxtb	r3, r3
 4414 001c 5B09     		lsrs	r3, r3, #5
 4415 001e FB73     		strb	r3, [r7, #15]
2260:Generated_Source\PSoC5/CyLib.c **** 
2261:Generated_Source\PSoC5/CyLib.c ****         return (priority);
 4416              		.loc 1 2261 0
 4417 0020 FB7B     		ldrb	r3, [r7, #15]	@ zero_extendqisi2
2262:Generated_Source\PSoC5/CyLib.c ****     }
 4418              		.loc 1 2262 0
 4419 0022 1846     		mov	r0, r3
 4420 0024 1437     		adds	r7, r7, #20
 4421              		.cfi_def_cfa_offset 4
 4422 0026 BD46     		mov	sp, r7
 4423              		.cfi_def_cfa_register 13
 4424              		@ sp needed
 4425 0028 5DF8047B 		ldr	r7, [sp], #4
 4426              		.cfi_restore 7
 4427              		.cfi_def_cfa_offset 0
 4428 002c 7047     		bx	lr
 4429              		.cfi_endproc
 4430              	.LFE62:
 4431              		.size	CyIntGetPriority, .-CyIntGetPriority
 4432 002e 00BF     		.section	.text.CyIntGetState,"ax",%progbits
 4433              		.align	2
 4434              		.global	CyIntGetState
 4435              		.thumb
 4436              		.thumb_func
ARM GAS  C:\Users\ben\AppData\Local\Temp\ccnBLHGm.s 			page 119


 4437              		.type	CyIntGetState, %function
 4438              	CyIntGetState:
 4439              	.LFB63:
2263:Generated_Source\PSoC5/CyLib.c **** 
2264:Generated_Source\PSoC5/CyLib.c **** 
2265:Generated_Source\PSoC5/CyLib.c ****     /*******************************************************************************
2266:Generated_Source\PSoC5/CyLib.c ****     * Function Name: CyIntGetState
2267:Generated_Source\PSoC5/CyLib.c ****     ****************************************************************************//**
2268:Generated_Source\PSoC5/CyLib.c ****     *
2269:Generated_Source\PSoC5/CyLib.c ****     *   Gets the enable state of the specified interrupt number.
2270:Generated_Source\PSoC5/CyLib.c ****     *
2271:Generated_Source\PSoC5/CyLib.c ****     *   \param number: Valid range [0-31].  Interrupt number.
2272:Generated_Source\PSoC5/CyLib.c ****     *
2273:Generated_Source\PSoC5/CyLib.c ****     * \return
2274:Generated_Source\PSoC5/CyLib.c ****     *   Enable status: 1 if enabled, 0 if disabled
2275:Generated_Source\PSoC5/CyLib.c ****     *
2276:Generated_Source\PSoC5/CyLib.c ****     *******************************************************************************/
2277:Generated_Source\PSoC5/CyLib.c ****     uint8 CyIntGetState(uint8 number)
2278:Generated_Source\PSoC5/CyLib.c ****     {
 4440              		.loc 1 2278 0
 4441              		.cfi_startproc
 4442              		@ args = 0, pretend = 0, frame = 16
 4443              		@ frame_needed = 1, uses_anonymous_args = 0
 4444              		@ link register save eliminated.
 4445 0000 80B4     		push	{r7}
 4446              		.cfi_def_cfa_offset 4
 4447              		.cfi_offset 7, -4
 4448 0002 85B0     		sub	sp, sp, #20
 4449              		.cfi_def_cfa_offset 24
 4450 0004 00AF     		add	r7, sp, #0
 4451              		.cfi_def_cfa_register 7
 4452 0006 0346     		mov	r3, r0
 4453 0008 FB71     		strb	r3, [r7, #7]
2279:Generated_Source\PSoC5/CyLib.c ****         reg32 * stateReg;
2280:Generated_Source\PSoC5/CyLib.c **** 
2281:Generated_Source\PSoC5/CyLib.c ****         CYASSERT(number <= CY_INT_NUMBER_MAX);
2282:Generated_Source\PSoC5/CyLib.c **** 
2283:Generated_Source\PSoC5/CyLib.c ****         /* Get pointer to Interrupt enable register. */
2284:Generated_Source\PSoC5/CyLib.c ****         stateReg = CY_INT_ENABLE_PTR;
 4454              		.loc 1 2284 0
 4455 000a 0B4B     		ldr	r3, .L299
 4456 000c FB60     		str	r3, [r7, #12]
2285:Generated_Source\PSoC5/CyLib.c **** 
2286:Generated_Source\PSoC5/CyLib.c ****         /* Get state of interrupt. */
2287:Generated_Source\PSoC5/CyLib.c ****         return (0u != (*stateReg & (((uint32) 1u) << (0x1Fu & number)))) ? ((uint8)(1u)) : ((uint8)
 4457              		.loc 1 2287 0
 4458 000e FB68     		ldr	r3, [r7, #12]
 4459 0010 1A68     		ldr	r2, [r3]
 4460 0012 FB79     		ldrb	r3, [r7, #7]	@ zero_extendqisi2
 4461 0014 03F01F03 		and	r3, r3, #31
 4462 0018 22FA03F3 		lsr	r3, r2, r3
 4463 001c 03F00103 		and	r3, r3, #1
 4464 0020 002B     		cmp	r3, #0
 4465 0022 14BF     		ite	ne
 4466 0024 0123     		movne	r3, #1
 4467 0026 0023     		moveq	r3, #0
 4468 0028 DBB2     		uxtb	r3, r3
ARM GAS  C:\Users\ben\AppData\Local\Temp\ccnBLHGm.s 			page 120


2288:Generated_Source\PSoC5/CyLib.c ****     }
 4469              		.loc 1 2288 0
 4470 002a 1846     		mov	r0, r3
 4471 002c 1437     		adds	r7, r7, #20
 4472              		.cfi_def_cfa_offset 4
 4473 002e BD46     		mov	sp, r7
 4474              		.cfi_def_cfa_register 13
 4475              		@ sp needed
 4476 0030 5DF8047B 		ldr	r7, [sp], #4
 4477              		.cfi_restore 7
 4478              		.cfi_def_cfa_offset 0
 4479 0034 7047     		bx	lr
 4480              	.L300:
 4481 0036 00BF     		.align	2
 4482              	.L299:
 4483 0038 00E100E0 		.word	-536813312
 4484              		.cfi_endproc
 4485              	.LFE63:
 4486              		.size	CyIntGetState, .-CyIntGetState
 4487              		.section	.text.CySysTickStart,"ax",%progbits
 4488              		.align	2
 4489              		.global	CySysTickStart
 4490              		.thumb
 4491              		.thumb_func
 4492              		.type	CySysTickStart, %function
 4493              	CySysTickStart:
 4494              	.LFB64:
2289:Generated_Source\PSoC5/CyLib.c **** 
2290:Generated_Source\PSoC5/CyLib.c **** 
2291:Generated_Source\PSoC5/CyLib.c **** #else   /* PSoC3 */
2292:Generated_Source\PSoC5/CyLib.c **** 
2293:Generated_Source\PSoC5/CyLib.c ****     /*******************************************************************************
2294:Generated_Source\PSoC5/CyLib.c ****     * Function Name: IntDefaultHandler
2295:Generated_Source\PSoC5/CyLib.c ****     ****************************************************************************//**
2296:Generated_Source\PSoC5/CyLib.c ****     *
2297:Generated_Source\PSoC5/CyLib.c ****     *  This function is called for all interrupts, other than a reset that gets
2298:Generated_Source\PSoC5/CyLib.c ****     *  called before the system is setup.
2299:Generated_Source\PSoC5/CyLib.c ****     *
2300:Generated_Source\PSoC5/CyLib.c ****     * Theory:
2301:Generated_Source\PSoC5/CyLib.c ****     *  Any value other than zero is acceptable.
2302:Generated_Source\PSoC5/CyLib.c ****     *
2303:Generated_Source\PSoC5/CyLib.c ****     *******************************************************************************/
2304:Generated_Source\PSoC5/CyLib.c ****     CY_ISR(IntDefaultHandler)
2305:Generated_Source\PSoC5/CyLib.c ****     {
2306:Generated_Source\PSoC5/CyLib.c ****         #ifdef CY_BOOT_INT_DEFAULT_HANDLER_EXCEPTION_ENTRY_CALLBACK
2307:Generated_Source\PSoC5/CyLib.c ****             CyBoot_IntDefaultHandler_Exception_EntryCallback();
2308:Generated_Source\PSoC5/CyLib.c ****         #endif /* CY_BOOT_INT_DEFAULT_HANDLER_EXCEPTION_ENTRY_CALLBACK */
2309:Generated_Source\PSoC5/CyLib.c **** 
2310:Generated_Source\PSoC5/CyLib.c ****         while(1)
2311:Generated_Source\PSoC5/CyLib.c ****         {
2312:Generated_Source\PSoC5/CyLib.c ****             /***********************************************************************
2313:Generated_Source\PSoC5/CyLib.c ****             * We must not get here. If we do, a serious problem occurs, so go
2314:Generated_Source\PSoC5/CyLib.c ****             * into an infinite loop.
2315:Generated_Source\PSoC5/CyLib.c ****             ***********************************************************************/
2316:Generated_Source\PSoC5/CyLib.c ****         }
2317:Generated_Source\PSoC5/CyLib.c ****     }
2318:Generated_Source\PSoC5/CyLib.c **** 
ARM GAS  C:\Users\ben\AppData\Local\Temp\ccnBLHGm.s 			page 121


2319:Generated_Source\PSoC5/CyLib.c **** 
2320:Generated_Source\PSoC5/CyLib.c ****     /*******************************************************************************
2321:Generated_Source\PSoC5/CyLib.c ****     * Function Name: IntDefaultHandler
2322:Generated_Source\PSoC5/CyLib.c ****     ****************************************************************************//**
2323:Generated_Source\PSoC5/CyLib.c ****     *
2324:Generated_Source\PSoC5/CyLib.c ****     *  This function is called during startup to initialize interrupt address vector
2325:Generated_Source\PSoC5/CyLib.c ****     *  registers with the address of the IntDefaultHandler().
2326:Generated_Source\PSoC5/CyLib.c ****     *
2327:Generated_Source\PSoC5/CyLib.c ****     *******************************************************************************/
2328:Generated_Source\PSoC5/CyLib.c ****     void CyIntInitVectors(void) 
2329:Generated_Source\PSoC5/CyLib.c ****     {
2330:Generated_Source\PSoC5/CyLib.c ****         uint8 i;
2331:Generated_Source\PSoC5/CyLib.c **** 
2332:Generated_Source\PSoC5/CyLib.c ****         for (i = 0; i <= CY_INT_NUMBER_MAX; i++)
2333:Generated_Source\PSoC5/CyLib.c ****         {
2334:Generated_Source\PSoC5/CyLib.c ****             CY_SET_REG16(&CY_INT_VECT_TABLE[i], (uint16) &IntDefaultHandler);
2335:Generated_Source\PSoC5/CyLib.c ****         }
2336:Generated_Source\PSoC5/CyLib.c ****     }
2337:Generated_Source\PSoC5/CyLib.c **** 
2338:Generated_Source\PSoC5/CyLib.c **** 
2339:Generated_Source\PSoC5/CyLib.c ****     /*******************************************************************************
2340:Generated_Source\PSoC5/CyLib.c ****     * Function Name: CyIntSetVector
2341:Generated_Source\PSoC5/CyLib.c ****     ****************************************************************************//**
2342:Generated_Source\PSoC5/CyLib.c ****     *
2343:Generated_Source\PSoC5/CyLib.c ****     *  Sets the interrupt vector of the specified interrupt number.
2344:Generated_Source\PSoC5/CyLib.c ****     *
2345:Generated_Source\PSoC5/CyLib.c ****     *  \param number:  Valid range [0-31].  Interrupt number
2346:Generated_Source\PSoC5/CyLib.c ****     *  \param address: Pointer to an interrupt service routine
2347:Generated_Source\PSoC5/CyLib.c ****     *
2348:Generated_Source\PSoC5/CyLib.c ****     * \return
2349:Generated_Source\PSoC5/CyLib.c ****     *  Previous interrupt vector value.
2350:Generated_Source\PSoC5/CyLib.c ****     *
2351:Generated_Source\PSoC5/CyLib.c ****     *******************************************************************************/
2352:Generated_Source\PSoC5/CyLib.c ****     cyisraddress CyIntSetVector(uint8 number, cyisraddress address) 
2353:Generated_Source\PSoC5/CyLib.c ****     {
2354:Generated_Source\PSoC5/CyLib.c ****         cyisraddress oldIsr;
2355:Generated_Source\PSoC5/CyLib.c **** 
2356:Generated_Source\PSoC5/CyLib.c ****         CYASSERT(number <= CY_INT_NUMBER_MAX);
2357:Generated_Source\PSoC5/CyLib.c **** 
2358:Generated_Source\PSoC5/CyLib.c ****         /* Save old Interrupt service routine. */
2359:Generated_Source\PSoC5/CyLib.c ****         oldIsr = (cyisraddress) \
2360:Generated_Source\PSoC5/CyLib.c ****                     CY_GET_REG16(&CY_INT_VECT_TABLE[number & CY_INT_NUMBER_MASK]);
2361:Generated_Source\PSoC5/CyLib.c **** 
2362:Generated_Source\PSoC5/CyLib.c ****         /* Set new Interrupt service routine. */
2363:Generated_Source\PSoC5/CyLib.c ****         CY_SET_REG16(&CY_INT_VECT_TABLE[number], (uint16) address);
2364:Generated_Source\PSoC5/CyLib.c **** 
2365:Generated_Source\PSoC5/CyLib.c ****         return (oldIsr);
2366:Generated_Source\PSoC5/CyLib.c ****     }
2367:Generated_Source\PSoC5/CyLib.c **** 
2368:Generated_Source\PSoC5/CyLib.c **** 
2369:Generated_Source\PSoC5/CyLib.c ****     /*******************************************************************************
2370:Generated_Source\PSoC5/CyLib.c ****     * Function Name: CyIntGetVector
2371:Generated_Source\PSoC5/CyLib.c ****     ****************************************************************************//**
2372:Generated_Source\PSoC5/CyLib.c ****     *
2373:Generated_Source\PSoC5/CyLib.c ****     *  Gets the interrupt vector of the specified interrupt number.
2374:Generated_Source\PSoC5/CyLib.c ****     *
2375:Generated_Source\PSoC5/CyLib.c ****     *  \param number: Valid range [0-31].  Interrupt number
ARM GAS  C:\Users\ben\AppData\Local\Temp\ccnBLHGm.s 			page 122


2376:Generated_Source\PSoC5/CyLib.c ****     *
2377:Generated_Source\PSoC5/CyLib.c ****     * \return
2378:Generated_Source\PSoC5/CyLib.c ****     *  Address of the ISR in the interrupt vector table.
2379:Generated_Source\PSoC5/CyLib.c ****     *
2380:Generated_Source\PSoC5/CyLib.c ****     *******************************************************************************/
2381:Generated_Source\PSoC5/CyLib.c ****     cyisraddress CyIntGetVector(uint8 number) 
2382:Generated_Source\PSoC5/CyLib.c ****     {
2383:Generated_Source\PSoC5/CyLib.c ****         CYASSERT(number <= CY_INT_NUMBER_MAX);
2384:Generated_Source\PSoC5/CyLib.c **** 
2385:Generated_Source\PSoC5/CyLib.c ****         return ((cyisraddress) \
2386:Generated_Source\PSoC5/CyLib.c ****                 CY_GET_REG16(&CY_INT_VECT_TABLE[number & CY_INT_NUMBER_MASK]));
2387:Generated_Source\PSoC5/CyLib.c ****     }
2388:Generated_Source\PSoC5/CyLib.c **** 
2389:Generated_Source\PSoC5/CyLib.c **** 
2390:Generated_Source\PSoC5/CyLib.c ****     /*******************************************************************************
2391:Generated_Source\PSoC5/CyLib.c ****     * Function Name: CyIntSetPriority
2392:Generated_Source\PSoC5/CyLib.c ****     ****************************************************************************//**
2393:Generated_Source\PSoC5/CyLib.c ****     *
2394:Generated_Source\PSoC5/CyLib.c ****     *  Sets the Priority of the Interrupt.
2395:Generated_Source\PSoC5/CyLib.c ****     *
2396:Generated_Source\PSoC5/CyLib.c ****     *  \param priority: Priority of the interrupt. 0 - 7, 0 being the highest.
2397:Generated_Source\PSoC5/CyLib.c ****     *  \param number:   The number of the interrupt, 0 - 31.
2398:Generated_Source\PSoC5/CyLib.c ****     *
2399:Generated_Source\PSoC5/CyLib.c ****     *******************************************************************************/
2400:Generated_Source\PSoC5/CyLib.c ****     void CyIntSetPriority(uint8 number, uint8 priority) 
2401:Generated_Source\PSoC5/CyLib.c ****     {
2402:Generated_Source\PSoC5/CyLib.c ****         CYASSERT(priority <= CY_INT_PRIORITY_MAX);
2403:Generated_Source\PSoC5/CyLib.c **** 
2404:Generated_Source\PSoC5/CyLib.c ****         CYASSERT(number <= CY_INT_NUMBER_MAX);
2405:Generated_Source\PSoC5/CyLib.c **** 
2406:Generated_Source\PSoC5/CyLib.c ****         CY_INT_PRIORITY_PTR[number & CY_INT_NUMBER_MASK] =
2407:Generated_Source\PSoC5/CyLib.c ****                     (priority & CY_INT_PRIORITY_MASK) << 5;
2408:Generated_Source\PSoC5/CyLib.c ****     }
2409:Generated_Source\PSoC5/CyLib.c **** 
2410:Generated_Source\PSoC5/CyLib.c **** 
2411:Generated_Source\PSoC5/CyLib.c ****     /*******************************************************************************
2412:Generated_Source\PSoC5/CyLib.c ****     * Function Name: CyIntGetPriority
2413:Generated_Source\PSoC5/CyLib.c ****     ****************************************************************************//**
2414:Generated_Source\PSoC5/CyLib.c ****     *
2415:Generated_Source\PSoC5/CyLib.c ****     *  Gets the Priority of the Interrupt.
2416:Generated_Source\PSoC5/CyLib.c ****     *
2417:Generated_Source\PSoC5/CyLib.c ****     *  \param number: The number of the interrupt, 0 - 31.
2418:Generated_Source\PSoC5/CyLib.c ****     *
2419:Generated_Source\PSoC5/CyLib.c ****     * \return
2420:Generated_Source\PSoC5/CyLib.c ****     *  Priority of the interrupt. 0 - 7, 0 being the highest.
2421:Generated_Source\PSoC5/CyLib.c ****     *
2422:Generated_Source\PSoC5/CyLib.c ****     *******************************************************************************/
2423:Generated_Source\PSoC5/CyLib.c ****     uint8 CyIntGetPriority(uint8 number) 
2424:Generated_Source\PSoC5/CyLib.c ****     {
2425:Generated_Source\PSoC5/CyLib.c ****         uint8 priority;
2426:Generated_Source\PSoC5/CyLib.c **** 
2427:Generated_Source\PSoC5/CyLib.c ****         CYASSERT(number <= CY_INT_NUMBER_MAX);
2428:Generated_Source\PSoC5/CyLib.c **** 
2429:Generated_Source\PSoC5/CyLib.c ****         priority = CY_INT_PRIORITY_PTR[number & CY_INT_NUMBER_MASK] >> 5;
2430:Generated_Source\PSoC5/CyLib.c **** 
2431:Generated_Source\PSoC5/CyLib.c ****         return (priority);
2432:Generated_Source\PSoC5/CyLib.c ****     }
ARM GAS  C:\Users\ben\AppData\Local\Temp\ccnBLHGm.s 			page 123


2433:Generated_Source\PSoC5/CyLib.c **** 
2434:Generated_Source\PSoC5/CyLib.c **** 
2435:Generated_Source\PSoC5/CyLib.c ****     /*******************************************************************************
2436:Generated_Source\PSoC5/CyLib.c ****     * Function Name: CyIntGetState
2437:Generated_Source\PSoC5/CyLib.c ****     ****************************************************************************//**
2438:Generated_Source\PSoC5/CyLib.c ****     *
2439:Generated_Source\PSoC5/CyLib.c ****     *   Gets the enable state of the specified interrupt number.
2440:Generated_Source\PSoC5/CyLib.c ****     *
2441:Generated_Source\PSoC5/CyLib.c ****     *   \param number: Valid range [0-31].  Interrupt number.
2442:Generated_Source\PSoC5/CyLib.c ****     *
2443:Generated_Source\PSoC5/CyLib.c ****     * \return
2444:Generated_Source\PSoC5/CyLib.c ****     *   Enable status: 1 if enabled, 0 if disabled
2445:Generated_Source\PSoC5/CyLib.c ****     *
2446:Generated_Source\PSoC5/CyLib.c ****     *******************************************************************************/
2447:Generated_Source\PSoC5/CyLib.c ****     uint8 CyIntGetState(uint8 number) 
2448:Generated_Source\PSoC5/CyLib.c ****     {
2449:Generated_Source\PSoC5/CyLib.c ****         reg8 * stateReg;
2450:Generated_Source\PSoC5/CyLib.c **** 
2451:Generated_Source\PSoC5/CyLib.c ****         CYASSERT(number <= CY_INT_NUMBER_MAX);
2452:Generated_Source\PSoC5/CyLib.c **** 
2453:Generated_Source\PSoC5/CyLib.c ****         /* Get pointer to Interrupt enable register. */
2454:Generated_Source\PSoC5/CyLib.c ****         stateReg = CY_INT_ENABLE_PTR + ((number & CY_INT_NUMBER_MASK) >> 3u);
2455:Generated_Source\PSoC5/CyLib.c **** 
2456:Generated_Source\PSoC5/CyLib.c ****         /* Get state of interrupt. */
2457:Generated_Source\PSoC5/CyLib.c ****         return ((0u != (*stateReg & ((uint8)(1u << (0x07u & number))))) ? ((uint8)(1u)) : ((uint8)(
2458:Generated_Source\PSoC5/CyLib.c ****     }
2459:Generated_Source\PSoC5/CyLib.c **** 
2460:Generated_Source\PSoC5/CyLib.c **** #endif  /* (CY_PSOC5) */
2461:Generated_Source\PSoC5/CyLib.c **** 
2462:Generated_Source\PSoC5/CyLib.c **** 
2463:Generated_Source\PSoC5/CyLib.c **** #if(CYDEV_VARIABLE_VDDA == 1)
2464:Generated_Source\PSoC5/CyLib.c **** 
2465:Generated_Source\PSoC5/CyLib.c ****     /*******************************************************************************
2466:Generated_Source\PSoC5/CyLib.c ****     * Function Name: CySetScPumps
2467:Generated_Source\PSoC5/CyLib.c ****     ****************************************************************************//**
2468:Generated_Source\PSoC5/CyLib.c ****     *
2469:Generated_Source\PSoC5/CyLib.c ****     *  If 1 is passed as a parameter:
2470:Generated_Source\PSoC5/CyLib.c ****     *   - if any of the SC blocks are used - enable pumps for the SC blocks and
2471:Generated_Source\PSoC5/CyLib.c ****     *     start boost clock.
2472:Generated_Source\PSoC5/CyLib.c ****     *   - For each enabled SC block set a boost clock index and enable the boost
2473:Generated_Source\PSoC5/CyLib.c ****     *     clock.
2474:Generated_Source\PSoC5/CyLib.c ****     *
2475:Generated_Source\PSoC5/CyLib.c ****     *  If non-1 value is passed as a parameter:
2476:Generated_Source\PSoC5/CyLib.c ****     *   - If all SC blocks are not used - disable pumps for the SC blocks and
2477:Generated_Source\PSoC5/CyLib.c ****     *     stop the boost clock.
2478:Generated_Source\PSoC5/CyLib.c ****     *   - For each enabled SC block clear the boost clock index and disable the
2479:Generated_Source\PSoC5/CyLib.c ****     *     boost clock.
2480:Generated_Source\PSoC5/CyLib.c ****     *
2481:Generated_Source\PSoC5/CyLib.c ****     *  The global variable CyScPumpEnabled is updated to be equal to passed the
2482:Generated_Source\PSoC5/CyLib.c ****     *  parameter.
2483:Generated_Source\PSoC5/CyLib.c ****     *
2484:Generated_Source\PSoC5/CyLib.c ****     *   \param uint8 enable: Enable/disable SC pumps and the boost clock for the enabled
2485:Generated_Source\PSoC5/CyLib.c ****     *                 \param SC block:
2486:Generated_Source\PSoC5/CyLib.c ****     *                 1 - Enable
2487:Generated_Source\PSoC5/CyLib.c ****     *                 0 - Disable
2488:Generated_Source\PSoC5/CyLib.c ****     *
2489:Generated_Source\PSoC5/CyLib.c ****     *******************************************************************************/
ARM GAS  C:\Users\ben\AppData\Local\Temp\ccnBLHGm.s 			page 124


2490:Generated_Source\PSoC5/CyLib.c ****     void CySetScPumps(uint8 enable) 
2491:Generated_Source\PSoC5/CyLib.c ****     {
2492:Generated_Source\PSoC5/CyLib.c ****         if(1u == enable)
2493:Generated_Source\PSoC5/CyLib.c ****         {
2494:Generated_Source\PSoC5/CyLib.c ****             /* The SC pumps should be enabled */
2495:Generated_Source\PSoC5/CyLib.c ****             CyScPumpEnabled = 1u;
2496:Generated_Source\PSoC5/CyLib.c ****             /* Enable pumps if any of SC blocks are used */
2497:Generated_Source\PSoC5/CyLib.c ****             if(0u != (CY_LIB_ACT_CFG9_REG & CY_LIB_ACT_CFG9_SWCAPS_MASK))
2498:Generated_Source\PSoC5/CyLib.c ****             {
2499:Generated_Source\PSoC5/CyLib.c ****                 CY_LIB_SC_MISC_REG |= CY_LIB_SC_MISC_PUMP_FORCE;
2500:Generated_Source\PSoC5/CyLib.c ****                 CyScBoostClk_Start();
2501:Generated_Source\PSoC5/CyLib.c ****             }
2502:Generated_Source\PSoC5/CyLib.c ****             /* Set positive pump for each enabled SC block: set clock index and enable it */
2503:Generated_Source\PSoC5/CyLib.c ****             if(0u != (CY_LIB_ACT_CFG9_REG & CY_LIB_ACT_CFG9_SWCAP0_EN))
2504:Generated_Source\PSoC5/CyLib.c ****             {
2505:Generated_Source\PSoC5/CyLib.c ****                 CY_LIB_SC0_BST_REG = (CY_LIB_SC0_BST_REG & CY_LIB_SC_BST_CLK_INDEX_MASK) | CyScBoos
2506:Generated_Source\PSoC5/CyLib.c ****                 CY_LIB_SC0_BST_REG |= CY_LIB_SC_BST_CLK_EN;
2507:Generated_Source\PSoC5/CyLib.c ****             }
2508:Generated_Source\PSoC5/CyLib.c ****             if(0u != (CY_LIB_ACT_CFG9_REG & CY_LIB_ACT_CFG9_SWCAP1_EN))
2509:Generated_Source\PSoC5/CyLib.c ****             {
2510:Generated_Source\PSoC5/CyLib.c ****                 CY_LIB_SC1_BST_REG = (CY_LIB_SC1_BST_REG & CY_LIB_SC_BST_CLK_INDEX_MASK) | CyScBoos
2511:Generated_Source\PSoC5/CyLib.c ****                 CY_LIB_SC1_BST_REG |= CY_LIB_SC_BST_CLK_EN;
2512:Generated_Source\PSoC5/CyLib.c ****             }
2513:Generated_Source\PSoC5/CyLib.c ****             if(0u != (CY_LIB_ACT_CFG9_REG & CY_LIB_ACT_CFG9_SWCAP2_EN))
2514:Generated_Source\PSoC5/CyLib.c ****             {
2515:Generated_Source\PSoC5/CyLib.c ****                 CY_LIB_SC2_BST_REG = (CY_LIB_SC2_BST_REG & CY_LIB_SC_BST_CLK_INDEX_MASK) | CyScBoos
2516:Generated_Source\PSoC5/CyLib.c ****                 CY_LIB_SC2_BST_REG |= CY_LIB_SC_BST_CLK_EN;
2517:Generated_Source\PSoC5/CyLib.c ****             }
2518:Generated_Source\PSoC5/CyLib.c ****             if(0u != (CY_LIB_ACT_CFG9_REG & CY_LIB_ACT_CFG9_SWCAP3_EN))
2519:Generated_Source\PSoC5/CyLib.c ****             {
2520:Generated_Source\PSoC5/CyLib.c ****                 CY_LIB_SC3_BST_REG = (CY_LIB_SC3_BST_REG & CY_LIB_SC_BST_CLK_INDEX_MASK) | CyScBoos
2521:Generated_Source\PSoC5/CyLib.c ****                 CY_LIB_SC3_BST_REG |= CY_LIB_SC_BST_CLK_EN;
2522:Generated_Source\PSoC5/CyLib.c ****             }
2523:Generated_Source\PSoC5/CyLib.c ****         }
2524:Generated_Source\PSoC5/CyLib.c ****         else
2525:Generated_Source\PSoC5/CyLib.c ****         {
2526:Generated_Source\PSoC5/CyLib.c ****             /* The SC pumps should be disabled */
2527:Generated_Source\PSoC5/CyLib.c ****             CyScPumpEnabled = 0u;
2528:Generated_Source\PSoC5/CyLib.c ****             /* Disable pumps for all SC blocks and stop boost clock */
2529:Generated_Source\PSoC5/CyLib.c ****             CY_LIB_SC_MISC_REG &= ((uint8)(~CY_LIB_SC_MISC_PUMP_FORCE));
2530:Generated_Source\PSoC5/CyLib.c ****             CyScBoostClk_Stop();
2531:Generated_Source\PSoC5/CyLib.c ****             /* Disable boost clock and clear clock index for each SC block */
2532:Generated_Source\PSoC5/CyLib.c ****             CY_LIB_SC0_BST_REG &= ((uint8)(~CY_LIB_SC_BST_CLK_EN));
2533:Generated_Source\PSoC5/CyLib.c ****             CY_LIB_SC0_BST_REG = CY_LIB_SC0_BST_REG & CY_LIB_SC_BST_CLK_INDEX_MASK;
2534:Generated_Source\PSoC5/CyLib.c ****             CY_LIB_SC1_BST_REG &= ((uint8)(~CY_LIB_SC_BST_CLK_EN));
2535:Generated_Source\PSoC5/CyLib.c ****             CY_LIB_SC1_BST_REG = CY_LIB_SC1_BST_REG & CY_LIB_SC_BST_CLK_INDEX_MASK;
2536:Generated_Source\PSoC5/CyLib.c ****             CY_LIB_SC2_BST_REG &= ((uint8)(~CY_LIB_SC_BST_CLK_EN));
2537:Generated_Source\PSoC5/CyLib.c ****             CY_LIB_SC2_BST_REG = CY_LIB_SC2_BST_REG & CY_LIB_SC_BST_CLK_INDEX_MASK;
2538:Generated_Source\PSoC5/CyLib.c ****             CY_LIB_SC3_BST_REG &= ((uint8)(~CY_LIB_SC_BST_CLK_EN));
2539:Generated_Source\PSoC5/CyLib.c ****             CY_LIB_SC3_BST_REG = CY_LIB_SC3_BST_REG & CY_LIB_SC_BST_CLK_INDEX_MASK;
2540:Generated_Source\PSoC5/CyLib.c ****         }
2541:Generated_Source\PSoC5/CyLib.c ****     }
2542:Generated_Source\PSoC5/CyLib.c **** 
2543:Generated_Source\PSoC5/CyLib.c **** #endif  /* (CYDEV_VARIABLE_VDDA == 1) */
2544:Generated_Source\PSoC5/CyLib.c **** 
2545:Generated_Source\PSoC5/CyLib.c **** 
2546:Generated_Source\PSoC5/CyLib.c **** #if(CY_PSOC5)
ARM GAS  C:\Users\ben\AppData\Local\Temp\ccnBLHGm.s 			page 125


2547:Generated_Source\PSoC5/CyLib.c ****     /*******************************************************************************
2548:Generated_Source\PSoC5/CyLib.c ****     * Function Name: CySysTickStart
2549:Generated_Source\PSoC5/CyLib.c ****     ****************************************************************************//**
2550:Generated_Source\PSoC5/CyLib.c ****     *
2551:Generated_Source\PSoC5/CyLib.c ****     *  Configures the SysTick timer to generate interrupt every 1 ms by call to the
2552:Generated_Source\PSoC5/CyLib.c ****     *  CySysTickInit() function and starts it by calling CySysTickEnable() function.
2553:Generated_Source\PSoC5/CyLib.c ****     *  Refer to the corresponding function description for the details.
2554:Generated_Source\PSoC5/CyLib.c **** 
2555:Generated_Source\PSoC5/CyLib.c ****     * \sideeffect
2556:Generated_Source\PSoC5/CyLib.c ****     *  Clears SysTick count flag if it was set
2557:Generated_Source\PSoC5/CyLib.c ****     *
2558:Generated_Source\PSoC5/CyLib.c ****     *******************************************************************************/
2559:Generated_Source\PSoC5/CyLib.c ****     void CySysTickStart(void)
2560:Generated_Source\PSoC5/CyLib.c ****     {
 4495              		.loc 1 2560 0
 4496              		.cfi_startproc
 4497              		@ args = 0, pretend = 0, frame = 0
 4498              		@ frame_needed = 1, uses_anonymous_args = 0
 4499 0000 80B5     		push	{r7, lr}
 4500              		.cfi_def_cfa_offset 8
 4501              		.cfi_offset 7, -8
 4502              		.cfi_offset 14, -4
 4503 0002 00AF     		add	r7, sp, #0
 4504              		.cfi_def_cfa_register 7
2561:Generated_Source\PSoC5/CyLib.c ****         if (0u == CySysTickInitVar)
 4505              		.loc 1 2561 0
 4506 0004 054B     		ldr	r3, .L303
 4507 0006 1B68     		ldr	r3, [r3]
 4508 0008 002B     		cmp	r3, #0
 4509 000a 04D1     		bne	.L302
2562:Generated_Source\PSoC5/CyLib.c ****         {
2563:Generated_Source\PSoC5/CyLib.c ****             CySysTickInit();
 4510              		.loc 1 2563 0
 4511 000c FFF7FEFF 		bl	CySysTickInit
2564:Generated_Source\PSoC5/CyLib.c ****             CySysTickInitVar = 1u;
 4512              		.loc 1 2564 0
 4513 0010 024B     		ldr	r3, .L303
 4514 0012 0122     		movs	r2, #1
 4515 0014 1A60     		str	r2, [r3]
 4516              	.L302:
2565:Generated_Source\PSoC5/CyLib.c ****         }
2566:Generated_Source\PSoC5/CyLib.c **** 
2567:Generated_Source\PSoC5/CyLib.c ****         CySysTickEnable();
 4517              		.loc 1 2567 0
 4518 0016 FFF7FEFF 		bl	CySysTickEnable
2568:Generated_Source\PSoC5/CyLib.c ****     }
 4519              		.loc 1 2568 0
 4520 001a 80BD     		pop	{r7, pc}
 4521              	.L304:
 4522              		.align	2
 4523              	.L303:
 4524 001c 00000000 		.word	CySysTickInitVar
 4525              		.cfi_endproc
 4526              	.LFE64:
 4527              		.size	CySysTickStart, .-CySysTickStart
 4528              		.section	.text.CySysTickInit,"ax",%progbits
 4529              		.align	2
ARM GAS  C:\Users\ben\AppData\Local\Temp\ccnBLHGm.s 			page 126


 4530              		.global	CySysTickInit
 4531              		.thumb
 4532              		.thumb_func
 4533              		.type	CySysTickInit, %function
 4534              	CySysTickInit:
 4535              	.LFB65:
2569:Generated_Source\PSoC5/CyLib.c **** 
2570:Generated_Source\PSoC5/CyLib.c **** 
2571:Generated_Source\PSoC5/CyLib.c ****     /*******************************************************************************
2572:Generated_Source\PSoC5/CyLib.c ****     * Function Name: CySysTickInit
2573:Generated_Source\PSoC5/CyLib.c ****     ****************************************************************************//**
2574:Generated_Source\PSoC5/CyLib.c ****     *
2575:Generated_Source\PSoC5/CyLib.c ****     *  Initializes the callback addresses with pointers to NULL, associates the
2576:Generated_Source\PSoC5/CyLib.c ****     *  SysTick system vector with the function that is responsible for calling
2577:Generated_Source\PSoC5/CyLib.c ****     *  registered callback functions, configures SysTick timer to generate interrupt
2578:Generated_Source\PSoC5/CyLib.c ****     * every 1 ms.
2579:Generated_Source\PSoC5/CyLib.c ****     *
2580:Generated_Source\PSoC5/CyLib.c ****     * \sideeffect
2581:Generated_Source\PSoC5/CyLib.c ****     *  Clears SysTick count flag if it was set.
2582:Generated_Source\PSoC5/CyLib.c ****     *
2583:Generated_Source\PSoC5/CyLib.c ****     *  The 1 ms interrupt interval is configured based on the frequency determined
2584:Generated_Source\PSoC5/CyLib.c ****     *  by PSoC Creator at build time. If System clock frequency is changed in
2585:Generated_Source\PSoC5/CyLib.c ****     *  runtime, the CyDelayFreq() with the appropriate parameter should be called.
2586:Generated_Source\PSoC5/CyLib.c ****     *
2587:Generated_Source\PSoC5/CyLib.c ****     *******************************************************************************/
2588:Generated_Source\PSoC5/CyLib.c ****     void CySysTickInit(void)
2589:Generated_Source\PSoC5/CyLib.c ****     {
 4536              		.loc 1 2589 0
 4537              		.cfi_startproc
 4538              		@ args = 0, pretend = 0, frame = 8
 4539              		@ frame_needed = 1, uses_anonymous_args = 0
 4540 0000 80B5     		push	{r7, lr}
 4541              		.cfi_def_cfa_offset 8
 4542              		.cfi_offset 7, -8
 4543              		.cfi_offset 14, -4
 4544 0002 82B0     		sub	sp, sp, #8
 4545              		.cfi_def_cfa_offset 16
 4546 0004 00AF     		add	r7, sp, #0
 4547              		.cfi_def_cfa_register 7
2590:Generated_Source\PSoC5/CyLib.c ****         uint32 i;
2591:Generated_Source\PSoC5/CyLib.c **** 
2592:Generated_Source\PSoC5/CyLib.c ****         for (i = 0u; i<CY_SYS_SYST_NUM_OF_CALLBACKS; i++)
 4548              		.loc 1 2592 0
 4549 0006 0023     		movs	r3, #0
 4550 0008 7B60     		str	r3, [r7, #4]
 4551 000a 07E0     		b	.L306
 4552              	.L307:
2593:Generated_Source\PSoC5/CyLib.c ****         {
2594:Generated_Source\PSoC5/CyLib.c ****             CySysTickCallbacks[i] = (void *) 0;
 4553              		.loc 1 2594 0 discriminator 3
 4554 000c 114A     		ldr	r2, .L308
 4555 000e 7B68     		ldr	r3, [r7, #4]
 4556 0010 0021     		movs	r1, #0
 4557 0012 42F82310 		str	r1, [r2, r3, lsl #2]
2592:Generated_Source\PSoC5/CyLib.c ****         {
 4558              		.loc 1 2592 0 discriminator 3
 4559 0016 7B68     		ldr	r3, [r7, #4]
ARM GAS  C:\Users\ben\AppData\Local\Temp\ccnBLHGm.s 			page 127


 4560 0018 0133     		adds	r3, r3, #1
 4561 001a 7B60     		str	r3, [r7, #4]
 4562              	.L306:
2592:Generated_Source\PSoC5/CyLib.c ****         {
 4563              		.loc 1 2592 0 is_stmt 0 discriminator 1
 4564 001c 7B68     		ldr	r3, [r7, #4]
 4565 001e 042B     		cmp	r3, #4
 4566 0020 F4D9     		bls	.L307
2595:Generated_Source\PSoC5/CyLib.c ****         }
2596:Generated_Source\PSoC5/CyLib.c **** 
2597:Generated_Source\PSoC5/CyLib.c ****         (void) CyIntSetSysVector(CY_INT_SYSTICK_IRQN, &CySysTickServiceCallbacks);
 4567              		.loc 1 2597 0 is_stmt 1
 4568 0022 0F20     		movs	r0, #15
 4569 0024 0C49     		ldr	r1, .L308+4
 4570 0026 FFF7FEFF 		bl	CyIntSetSysVector
2598:Generated_Source\PSoC5/CyLib.c ****         CySysTickSetClockSource(CY_SYS_SYST_CSR_CLK_SRC_SYSCLK);
 4571              		.loc 1 2598 0
 4572 002a 0120     		movs	r0, #1
 4573 002c FFF7FEFF 		bl	CySysTickSetClockSource
2599:Generated_Source\PSoC5/CyLib.c ****         CySysTickSetReload(cydelay_freq_hz/1000u);
 4574              		.loc 1 2599 0
 4575 0030 0A4B     		ldr	r3, .L308+8
 4576 0032 1B68     		ldr	r3, [r3]
 4577 0034 0A4A     		ldr	r2, .L308+12
 4578 0036 A2FB0323 		umull	r2, r3, r2, r3
 4579 003a 9B09     		lsrs	r3, r3, #6
 4580 003c 1846     		mov	r0, r3
 4581 003e FFF7FEFF 		bl	CySysTickSetReload
2600:Generated_Source\PSoC5/CyLib.c ****         CySysTickClear();
 4582              		.loc 1 2600 0
 4583 0042 FFF7FEFF 		bl	CySysTickClear
2601:Generated_Source\PSoC5/CyLib.c ****         CyIntEnable(CY_INT_SYSTICK_IRQN);
 4584              		.loc 1 2601 0
 4585 0046 074B     		ldr	r3, .L308+16
 4586 0048 4FF40042 		mov	r2, #32768
 4587 004c 1A60     		str	r2, [r3]
2602:Generated_Source\PSoC5/CyLib.c ****     }
 4588              		.loc 1 2602 0
 4589 004e 0837     		adds	r7, r7, #8
 4590              		.cfi_def_cfa_offset 8
 4591 0050 BD46     		mov	sp, r7
 4592              		.cfi_def_cfa_register 13
 4593              		@ sp needed
 4594 0052 80BD     		pop	{r7, pc}
 4595              	.L309:
 4596              		.align	2
 4597              	.L308:
 4598 0054 00000000 		.word	CySysTickCallbacks
 4599 0058 00000000 		.word	CySysTickServiceCallbacks
 4600 005c 00000000 		.word	cydelay_freq_hz
 4601 0060 D34D6210 		.word	274877907
 4602 0064 00E100E0 		.word	-536813312
 4603              		.cfi_endproc
 4604              	.LFE65:
 4605              		.size	CySysTickInit, .-CySysTickInit
 4606              		.section	.text.CySysTickEnable,"ax",%progbits
 4607              		.align	2
ARM GAS  C:\Users\ben\AppData\Local\Temp\ccnBLHGm.s 			page 128


 4608              		.global	CySysTickEnable
 4609              		.thumb
 4610              		.thumb_func
 4611              		.type	CySysTickEnable, %function
 4612              	CySysTickEnable:
 4613              	.LFB66:
2603:Generated_Source\PSoC5/CyLib.c **** 
2604:Generated_Source\PSoC5/CyLib.c **** 
2605:Generated_Source\PSoC5/CyLib.c ****     /*******************************************************************************
2606:Generated_Source\PSoC5/CyLib.c ****     * Function Name: CySysTickEnable
2607:Generated_Source\PSoC5/CyLib.c ****     ****************************************************************************//**
2608:Generated_Source\PSoC5/CyLib.c ****     *
2609:Generated_Source\PSoC5/CyLib.c ****     *  Enables the SysTick timer and its interrupt.
2610:Generated_Source\PSoC5/CyLib.c ****     *
2611:Generated_Source\PSoC5/CyLib.c ****     * \sideeffect
2612:Generated_Source\PSoC5/CyLib.c ****     *  Clears SysTick count flag if it was set
2613:Generated_Source\PSoC5/CyLib.c ****     *
2614:Generated_Source\PSoC5/CyLib.c ****     *******************************************************************************/
2615:Generated_Source\PSoC5/CyLib.c ****     void CySysTickEnable(void)
2616:Generated_Source\PSoC5/CyLib.c ****     {
 4614              		.loc 1 2616 0
 4615              		.cfi_startproc
 4616              		@ args = 0, pretend = 0, frame = 0
 4617              		@ frame_needed = 1, uses_anonymous_args = 0
 4618 0000 80B5     		push	{r7, lr}
 4619              		.cfi_def_cfa_offset 8
 4620              		.cfi_offset 7, -8
 4621              		.cfi_offset 14, -4
 4622 0002 00AF     		add	r7, sp, #0
 4623              		.cfi_def_cfa_register 7
2617:Generated_Source\PSoC5/CyLib.c ****         CySysTickEnableInterrupt();
 4624              		.loc 1 2617 0
 4625 0004 FFF7FEFF 		bl	CySysTickEnableInterrupt
2618:Generated_Source\PSoC5/CyLib.c ****         CY_SYS_SYST_CSR_REG |= CY_SYS_SYST_CSR_ENABLE;
 4626              		.loc 1 2618 0
 4627 0008 034A     		ldr	r2, .L311
 4628 000a 034B     		ldr	r3, .L311
 4629 000c 1B68     		ldr	r3, [r3]
 4630 000e 43F00103 		orr	r3, r3, #1
 4631 0012 1360     		str	r3, [r2]
2619:Generated_Source\PSoC5/CyLib.c ****     }
 4632              		.loc 1 2619 0
 4633 0014 80BD     		pop	{r7, pc}
 4634              	.L312:
 4635 0016 00BF     		.align	2
 4636              	.L311:
 4637 0018 10E000E0 		.word	-536813552
 4638              		.cfi_endproc
 4639              	.LFE66:
 4640              		.size	CySysTickEnable, .-CySysTickEnable
 4641              		.section	.text.CySysTickStop,"ax",%progbits
 4642              		.align	2
 4643              		.global	CySysTickStop
 4644              		.thumb
 4645              		.thumb_func
 4646              		.type	CySysTickStop, %function
 4647              	CySysTickStop:
ARM GAS  C:\Users\ben\AppData\Local\Temp\ccnBLHGm.s 			page 129


 4648              	.LFB67:
2620:Generated_Source\PSoC5/CyLib.c **** 
2621:Generated_Source\PSoC5/CyLib.c **** 
2622:Generated_Source\PSoC5/CyLib.c ****     /*******************************************************************************
2623:Generated_Source\PSoC5/CyLib.c ****     * Function Name: CySysTickStop
2624:Generated_Source\PSoC5/CyLib.c ****     ****************************************************************************//**
2625:Generated_Source\PSoC5/CyLib.c ****     *
2626:Generated_Source\PSoC5/CyLib.c ****     *  Stops the system timer (SysTick).
2627:Generated_Source\PSoC5/CyLib.c ****     *
2628:Generated_Source\PSoC5/CyLib.c ****     * \sideeffect
2629:Generated_Source\PSoC5/CyLib.c ****     *  Clears SysTick count flag if it was set
2630:Generated_Source\PSoC5/CyLib.c ****     *
2631:Generated_Source\PSoC5/CyLib.c ****     *******************************************************************************/
2632:Generated_Source\PSoC5/CyLib.c ****     void CySysTickStop(void)
2633:Generated_Source\PSoC5/CyLib.c ****     {
 4649              		.loc 1 2633 0
 4650              		.cfi_startproc
 4651              		@ args = 0, pretend = 0, frame = 0
 4652              		@ frame_needed = 1, uses_anonymous_args = 0
 4653              		@ link register save eliminated.
 4654 0000 80B4     		push	{r7}
 4655              		.cfi_def_cfa_offset 4
 4656              		.cfi_offset 7, -4
 4657 0002 00AF     		add	r7, sp, #0
 4658              		.cfi_def_cfa_register 7
2634:Generated_Source\PSoC5/CyLib.c ****         CY_SYS_SYST_CSR_REG &= ((uint32) ~(CY_SYS_SYST_CSR_ENABLE));
 4659              		.loc 1 2634 0
 4660 0004 044A     		ldr	r2, .L314
 4661 0006 044B     		ldr	r3, .L314
 4662 0008 1B68     		ldr	r3, [r3]
 4663 000a 23F00103 		bic	r3, r3, #1
 4664 000e 1360     		str	r3, [r2]
2635:Generated_Source\PSoC5/CyLib.c ****     }
 4665              		.loc 1 2635 0
 4666 0010 BD46     		mov	sp, r7
 4667              		.cfi_def_cfa_register 13
 4668              		@ sp needed
 4669 0012 5DF8047B 		ldr	r7, [sp], #4
 4670              		.cfi_restore 7
 4671              		.cfi_def_cfa_offset 0
 4672 0016 7047     		bx	lr
 4673              	.L315:
 4674              		.align	2
 4675              	.L314:
 4676 0018 10E000E0 		.word	-536813552
 4677              		.cfi_endproc
 4678              	.LFE67:
 4679              		.size	CySysTickStop, .-CySysTickStop
 4680              		.section	.text.CySysTickEnableInterrupt,"ax",%progbits
 4681              		.align	2
 4682              		.global	CySysTickEnableInterrupt
 4683              		.thumb
 4684              		.thumb_func
 4685              		.type	CySysTickEnableInterrupt, %function
 4686              	CySysTickEnableInterrupt:
 4687              	.LFB68:
2636:Generated_Source\PSoC5/CyLib.c **** 
ARM GAS  C:\Users\ben\AppData\Local\Temp\ccnBLHGm.s 			page 130


2637:Generated_Source\PSoC5/CyLib.c **** 
2638:Generated_Source\PSoC5/CyLib.c ****     /*******************************************************************************
2639:Generated_Source\PSoC5/CyLib.c ****     * Function Name: CySysTickEnableInterrupt
2640:Generated_Source\PSoC5/CyLib.c ****     ****************************************************************************//**
2641:Generated_Source\PSoC5/CyLib.c ****     *
2642:Generated_Source\PSoC5/CyLib.c ****     *  Enables the SysTick interrupt.
2643:Generated_Source\PSoC5/CyLib.c ****     *
2644:Generated_Source\PSoC5/CyLib.c ****     * \sideeffect
2645:Generated_Source\PSoC5/CyLib.c ****     *  Clears SysTick count flag if it was set
2646:Generated_Source\PSoC5/CyLib.c ****     *
2647:Generated_Source\PSoC5/CyLib.c ****     *******************************************************************************/
2648:Generated_Source\PSoC5/CyLib.c ****     void CySysTickEnableInterrupt(void)
2649:Generated_Source\PSoC5/CyLib.c ****     {
 4688              		.loc 1 2649 0
 4689              		.cfi_startproc
 4690              		@ args = 0, pretend = 0, frame = 0
 4691              		@ frame_needed = 1, uses_anonymous_args = 0
 4692              		@ link register save eliminated.
 4693 0000 80B4     		push	{r7}
 4694              		.cfi_def_cfa_offset 4
 4695              		.cfi_offset 7, -4
 4696 0002 00AF     		add	r7, sp, #0
 4697              		.cfi_def_cfa_register 7
2650:Generated_Source\PSoC5/CyLib.c ****         CY_SYS_SYST_CSR_REG |= CY_SYS_SYST_CSR_ENABLE_INT;
 4698              		.loc 1 2650 0
 4699 0004 044A     		ldr	r2, .L317
 4700 0006 044B     		ldr	r3, .L317
 4701 0008 1B68     		ldr	r3, [r3]
 4702 000a 43F00203 		orr	r3, r3, #2
 4703 000e 1360     		str	r3, [r2]
2651:Generated_Source\PSoC5/CyLib.c ****     }
 4704              		.loc 1 2651 0
 4705 0010 BD46     		mov	sp, r7
 4706              		.cfi_def_cfa_register 13
 4707              		@ sp needed
 4708 0012 5DF8047B 		ldr	r7, [sp], #4
 4709              		.cfi_restore 7
 4710              		.cfi_def_cfa_offset 0
 4711 0016 7047     		bx	lr
 4712              	.L318:
 4713              		.align	2
 4714              	.L317:
 4715 0018 10E000E0 		.word	-536813552
 4716              		.cfi_endproc
 4717              	.LFE68:
 4718              		.size	CySysTickEnableInterrupt, .-CySysTickEnableInterrupt
 4719              		.section	.text.CySysTickDisableInterrupt,"ax",%progbits
 4720              		.align	2
 4721              		.global	CySysTickDisableInterrupt
 4722              		.thumb
 4723              		.thumb_func
 4724              		.type	CySysTickDisableInterrupt, %function
 4725              	CySysTickDisableInterrupt:
 4726              	.LFB69:
2652:Generated_Source\PSoC5/CyLib.c **** 
2653:Generated_Source\PSoC5/CyLib.c **** 
2654:Generated_Source\PSoC5/CyLib.c ****     /*******************************************************************************
ARM GAS  C:\Users\ben\AppData\Local\Temp\ccnBLHGm.s 			page 131


2655:Generated_Source\PSoC5/CyLib.c ****     * Function Name: CySysTickDisableInterrupt
2656:Generated_Source\PSoC5/CyLib.c ****     ****************************************************************************//**
2657:Generated_Source\PSoC5/CyLib.c ****     *
2658:Generated_Source\PSoC5/CyLib.c ****     *  Disables the SysTick interrupt.
2659:Generated_Source\PSoC5/CyLib.c ****     *
2660:Generated_Source\PSoC5/CyLib.c ****     * \sideeffect
2661:Generated_Source\PSoC5/CyLib.c ****     *  Clears SysTick count flag if it was set
2662:Generated_Source\PSoC5/CyLib.c ****     *
2663:Generated_Source\PSoC5/CyLib.c ****     *******************************************************************************/
2664:Generated_Source\PSoC5/CyLib.c ****     void CySysTickDisableInterrupt(void)
2665:Generated_Source\PSoC5/CyLib.c ****     {
 4727              		.loc 1 2665 0
 4728              		.cfi_startproc
 4729              		@ args = 0, pretend = 0, frame = 0
 4730              		@ frame_needed = 1, uses_anonymous_args = 0
 4731              		@ link register save eliminated.
 4732 0000 80B4     		push	{r7}
 4733              		.cfi_def_cfa_offset 4
 4734              		.cfi_offset 7, -4
 4735 0002 00AF     		add	r7, sp, #0
 4736              		.cfi_def_cfa_register 7
2666:Generated_Source\PSoC5/CyLib.c ****         CY_SYS_SYST_CSR_REG &= ((uint32) ~(CY_SYS_SYST_CSR_ENABLE_INT));
 4737              		.loc 1 2666 0
 4738 0004 044A     		ldr	r2, .L320
 4739 0006 044B     		ldr	r3, .L320
 4740 0008 1B68     		ldr	r3, [r3]
 4741 000a 23F00203 		bic	r3, r3, #2
 4742 000e 1360     		str	r3, [r2]
2667:Generated_Source\PSoC5/CyLib.c ****     }
 4743              		.loc 1 2667 0
 4744 0010 BD46     		mov	sp, r7
 4745              		.cfi_def_cfa_register 13
 4746              		@ sp needed
 4747 0012 5DF8047B 		ldr	r7, [sp], #4
 4748              		.cfi_restore 7
 4749              		.cfi_def_cfa_offset 0
 4750 0016 7047     		bx	lr
 4751              	.L321:
 4752              		.align	2
 4753              	.L320:
 4754 0018 10E000E0 		.word	-536813552
 4755              		.cfi_endproc
 4756              	.LFE69:
 4757              		.size	CySysTickDisableInterrupt, .-CySysTickDisableInterrupt
 4758              		.section	.text.CySysTickSetReload,"ax",%progbits
 4759              		.align	2
 4760              		.global	CySysTickSetReload
 4761              		.thumb
 4762              		.thumb_func
 4763              		.type	CySysTickSetReload, %function
 4764              	CySysTickSetReload:
 4765              	.LFB70:
2668:Generated_Source\PSoC5/CyLib.c **** 
2669:Generated_Source\PSoC5/CyLib.c **** 
2670:Generated_Source\PSoC5/CyLib.c ****     /*******************************************************************************
2671:Generated_Source\PSoC5/CyLib.c ****     * Function Name: CySysTickSetReload
2672:Generated_Source\PSoC5/CyLib.c ****     ****************************************************************************//**
ARM GAS  C:\Users\ben\AppData\Local\Temp\ccnBLHGm.s 			page 132


2673:Generated_Source\PSoC5/CyLib.c ****     *
2674:Generated_Source\PSoC5/CyLib.c ****     *  Sets value the counter is set to on startup and after it reaches zero. This
2675:Generated_Source\PSoC5/CyLib.c ****     *  function do not change or reset current sysTick counter value, so it should
2676:Generated_Source\PSoC5/CyLib.c ****     *  be cleared using CySysTickClear() API.
2677:Generated_Source\PSoC5/CyLib.c ****     *
2678:Generated_Source\PSoC5/CyLib.c ****     *  \param value: Valid range [0x0-0x00FFFFFF]. Counter reset value.
2679:Generated_Source\PSoC5/CyLib.c ****     *
2680:Generated_Source\PSoC5/CyLib.c ****     *******************************************************************************/
2681:Generated_Source\PSoC5/CyLib.c ****     void CySysTickSetReload(uint32 value)
2682:Generated_Source\PSoC5/CyLib.c ****     {
 4766              		.loc 1 2682 0
 4767              		.cfi_startproc
 4768              		@ args = 0, pretend = 0, frame = 8
 4769              		@ frame_needed = 1, uses_anonymous_args = 0
 4770              		@ link register save eliminated.
 4771 0000 80B4     		push	{r7}
 4772              		.cfi_def_cfa_offset 4
 4773              		.cfi_offset 7, -4
 4774 0002 83B0     		sub	sp, sp, #12
 4775              		.cfi_def_cfa_offset 16
 4776 0004 00AF     		add	r7, sp, #0
 4777              		.cfi_def_cfa_register 7
 4778 0006 7860     		str	r0, [r7, #4]
2683:Generated_Source\PSoC5/CyLib.c ****         CY_SYS_SYST_RVR_REG = (value & CY_SYS_SYST_RVR_CNT_MASK);
 4779              		.loc 1 2683 0
 4780 0008 044A     		ldr	r2, .L323
 4781 000a 7B68     		ldr	r3, [r7, #4]
 4782 000c 23F07F43 		bic	r3, r3, #-16777216
 4783 0010 1360     		str	r3, [r2]
2684:Generated_Source\PSoC5/CyLib.c ****     }
 4784              		.loc 1 2684 0
 4785 0012 0C37     		adds	r7, r7, #12
 4786              		.cfi_def_cfa_offset 4
 4787 0014 BD46     		mov	sp, r7
 4788              		.cfi_def_cfa_register 13
 4789              		@ sp needed
 4790 0016 5DF8047B 		ldr	r7, [sp], #4
 4791              		.cfi_restore 7
 4792              		.cfi_def_cfa_offset 0
 4793 001a 7047     		bx	lr
 4794              	.L324:
 4795              		.align	2
 4796              	.L323:
 4797 001c 14E000E0 		.word	-536813548
 4798              		.cfi_endproc
 4799              	.LFE70:
 4800              		.size	CySysTickSetReload, .-CySysTickSetReload
 4801              		.section	.text.CySysTickGetReload,"ax",%progbits
 4802              		.align	2
 4803              		.global	CySysTickGetReload
 4804              		.thumb
 4805              		.thumb_func
 4806              		.type	CySysTickGetReload, %function
 4807              	CySysTickGetReload:
 4808              	.LFB71:
2685:Generated_Source\PSoC5/CyLib.c **** 
2686:Generated_Source\PSoC5/CyLib.c **** 
ARM GAS  C:\Users\ben\AppData\Local\Temp\ccnBLHGm.s 			page 133


2687:Generated_Source\PSoC5/CyLib.c ****     /*******************************************************************************
2688:Generated_Source\PSoC5/CyLib.c ****     * Function Name: CySysTickGetReload
2689:Generated_Source\PSoC5/CyLib.c ****     ****************************************************************************//**
2690:Generated_Source\PSoC5/CyLib.c ****     *
2691:Generated_Source\PSoC5/CyLib.c ****     *  Sets value the counter is set to on startup and after it reaches zero.
2692:Generated_Source\PSoC5/CyLib.c ****     *
2693:Generated_Source\PSoC5/CyLib.c ****     * \return
2694:Generated_Source\PSoC5/CyLib.c ****     *  Counter reset value
2695:Generated_Source\PSoC5/CyLib.c ****     *
2696:Generated_Source\PSoC5/CyLib.c ****     *******************************************************************************/
2697:Generated_Source\PSoC5/CyLib.c ****     uint32 CySysTickGetReload(void)
2698:Generated_Source\PSoC5/CyLib.c ****     {
 4809              		.loc 1 2698 0
 4810              		.cfi_startproc
 4811              		@ args = 0, pretend = 0, frame = 0
 4812              		@ frame_needed = 1, uses_anonymous_args = 0
 4813              		@ link register save eliminated.
 4814 0000 80B4     		push	{r7}
 4815              		.cfi_def_cfa_offset 4
 4816              		.cfi_offset 7, -4
 4817 0002 00AF     		add	r7, sp, #0
 4818              		.cfi_def_cfa_register 7
2699:Generated_Source\PSoC5/CyLib.c ****         return(CY_SYS_SYST_RVR_REG & CY_SYS_SYST_RVR_CNT_MASK);
 4819              		.loc 1 2699 0
 4820 0004 044B     		ldr	r3, .L327
 4821 0006 1B68     		ldr	r3, [r3]
 4822 0008 23F07F43 		bic	r3, r3, #-16777216
2700:Generated_Source\PSoC5/CyLib.c ****     }
 4823              		.loc 1 2700 0
 4824 000c 1846     		mov	r0, r3
 4825 000e BD46     		mov	sp, r7
 4826              		.cfi_def_cfa_register 13
 4827              		@ sp needed
 4828 0010 5DF8047B 		ldr	r7, [sp], #4
 4829              		.cfi_restore 7
 4830              		.cfi_def_cfa_offset 0
 4831 0014 7047     		bx	lr
 4832              	.L328:
 4833 0016 00BF     		.align	2
 4834              	.L327:
 4835 0018 14E000E0 		.word	-536813548
 4836              		.cfi_endproc
 4837              	.LFE71:
 4838              		.size	CySysTickGetReload, .-CySysTickGetReload
 4839              		.section	.text.CySysTickGetValue,"ax",%progbits
 4840              		.align	2
 4841              		.global	CySysTickGetValue
 4842              		.thumb
 4843              		.thumb_func
 4844              		.type	CySysTickGetValue, %function
 4845              	CySysTickGetValue:
 4846              	.LFB72:
2701:Generated_Source\PSoC5/CyLib.c **** 
2702:Generated_Source\PSoC5/CyLib.c **** 
2703:Generated_Source\PSoC5/CyLib.c ****     /*******************************************************************************
2704:Generated_Source\PSoC5/CyLib.c ****     * Function Name: CySysTickGetValue
2705:Generated_Source\PSoC5/CyLib.c ****     ****************************************************************************//**
ARM GAS  C:\Users\ben\AppData\Local\Temp\ccnBLHGm.s 			page 134


2706:Generated_Source\PSoC5/CyLib.c ****     *
2707:Generated_Source\PSoC5/CyLib.c ****     *  Gets current SysTick counter value.
2708:Generated_Source\PSoC5/CyLib.c ****     *
2709:Generated_Source\PSoC5/CyLib.c ****     * \return
2710:Generated_Source\PSoC5/CyLib.c ****     *  Current SysTick counter value
2711:Generated_Source\PSoC5/CyLib.c ****     *
2712:Generated_Source\PSoC5/CyLib.c ****     *******************************************************************************/
2713:Generated_Source\PSoC5/CyLib.c ****     uint32 CySysTickGetValue(void)
2714:Generated_Source\PSoC5/CyLib.c ****     {
 4847              		.loc 1 2714 0
 4848              		.cfi_startproc
 4849              		@ args = 0, pretend = 0, frame = 0
 4850              		@ frame_needed = 1, uses_anonymous_args = 0
 4851              		@ link register save eliminated.
 4852 0000 80B4     		push	{r7}
 4853              		.cfi_def_cfa_offset 4
 4854              		.cfi_offset 7, -4
 4855 0002 00AF     		add	r7, sp, #0
 4856              		.cfi_def_cfa_register 7
2715:Generated_Source\PSoC5/CyLib.c ****         return(CY_SYS_SYST_CVR_REG & CY_SYS_SYST_CVR_CNT_MASK);
 4857              		.loc 1 2715 0
 4858 0004 044B     		ldr	r3, .L331
 4859 0006 1B68     		ldr	r3, [r3]
 4860 0008 23F07F43 		bic	r3, r3, #-16777216
2716:Generated_Source\PSoC5/CyLib.c ****     }
 4861              		.loc 1 2716 0
 4862 000c 1846     		mov	r0, r3
 4863 000e BD46     		mov	sp, r7
 4864              		.cfi_def_cfa_register 13
 4865              		@ sp needed
 4866 0010 5DF8047B 		ldr	r7, [sp], #4
 4867              		.cfi_restore 7
 4868              		.cfi_def_cfa_offset 0
 4869 0014 7047     		bx	lr
 4870              	.L332:
 4871 0016 00BF     		.align	2
 4872              	.L331:
 4873 0018 18E000E0 		.word	-536813544
 4874              		.cfi_endproc
 4875              	.LFE72:
 4876              		.size	CySysTickGetValue, .-CySysTickGetValue
 4877              		.section	.text.CySysTickSetClockSource,"ax",%progbits
 4878              		.align	2
 4879              		.global	CySysTickSetClockSource
 4880              		.thumb
 4881              		.thumb_func
 4882              		.type	CySysTickSetClockSource, %function
 4883              	CySysTickSetClockSource:
 4884              	.LFB73:
2717:Generated_Source\PSoC5/CyLib.c **** 
2718:Generated_Source\PSoC5/CyLib.c **** 
2719:Generated_Source\PSoC5/CyLib.c ****     /*******************************************************************************
2720:Generated_Source\PSoC5/CyLib.c ****     * Function Name: CySysTickSetClockSource
2721:Generated_Source\PSoC5/CyLib.c ****     ****************************************************************************//**
2722:Generated_Source\PSoC5/CyLib.c ****     *
2723:Generated_Source\PSoC5/CyLib.c ****     *  Sets the clock source for the SysTick counter.
2724:Generated_Source\PSoC5/CyLib.c ****     *
ARM GAS  C:\Users\ben\AppData\Local\Temp\ccnBLHGm.s 			page 135


2725:Generated_Source\PSoC5/CyLib.c ****     *  \param clockSource: Clock source for SysTick counter
2726:Generated_Source\PSoC5/CyLib.c ****     *         Define                     Clock Source
2727:Generated_Source\PSoC5/CyLib.c ****     *   CY_SYS_SYST_CSR_CLK_SRC_SYSCLK     SysTick is clocked by CPU clock.
2728:Generated_Source\PSoC5/CyLib.c ****     *   CY_SYS_SYST_CSR_CLK_SRC_LFCLK      SysTick is clocked by the low frequency
2729:Generated_Source\PSoC5/CyLib.c ****     *                                      clock (ILO 100 KHz for PSoC 5LP, and
2730:Generated_Source\PSoC5/CyLib.c ****     *                                      LFCLK for PSoC 4).
2731:Generated_Source\PSoC5/CyLib.c ****     *
2732:Generated_Source\PSoC5/CyLib.c ****     * \sideeffect
2733:Generated_Source\PSoC5/CyLib.c ****     *  Clears SysTick count flag if it was set. If clock source is not ready this
2734:Generated_Source\PSoC5/CyLib.c ****     *  function call will have no effect. After changing clock source to the low
2735:Generated_Source\PSoC5/CyLib.c ****     *  frequency clock the counter and reload register values will remain unchanged
2736:Generated_Source\PSoC5/CyLib.c ****     *  so time to the interrupt will be significantly bigger and vice versa.
2737:Generated_Source\PSoC5/CyLib.c ****     *
2738:Generated_Source\PSoC5/CyLib.c ****     *******************************************************************************/
2739:Generated_Source\PSoC5/CyLib.c ****     void CySysTickSetClockSource(uint32 clockSource)
2740:Generated_Source\PSoC5/CyLib.c ****     {
 4885              		.loc 1 2740 0
 4886              		.cfi_startproc
 4887              		@ args = 0, pretend = 0, frame = 8
 4888              		@ frame_needed = 1, uses_anonymous_args = 0
 4889              		@ link register save eliminated.
 4890 0000 80B4     		push	{r7}
 4891              		.cfi_def_cfa_offset 4
 4892              		.cfi_offset 7, -4
 4893 0002 83B0     		sub	sp, sp, #12
 4894              		.cfi_def_cfa_offset 16
 4895 0004 00AF     		add	r7, sp, #0
 4896              		.cfi_def_cfa_register 7
 4897 0006 7860     		str	r0, [r7, #4]
2741:Generated_Source\PSoC5/CyLib.c ****         if (clockSource == CY_SYS_SYST_CSR_CLK_SRC_SYSCLK)
 4898              		.loc 1 2741 0
 4899 0008 7B68     		ldr	r3, [r7, #4]
 4900 000a 012B     		cmp	r3, #1
 4901 000c 06D1     		bne	.L334
2742:Generated_Source\PSoC5/CyLib.c ****         {
2743:Generated_Source\PSoC5/CyLib.c ****             CY_SYS_SYST_CSR_REG |= (uint32)(CY_SYS_SYST_CSR_CLK_SRC_SYSCLK << CY_SYS_SYST_CSR_CLK_S
 4902              		.loc 1 2743 0
 4903 000e 094A     		ldr	r2, .L336
 4904 0010 084B     		ldr	r3, .L336
 4905 0012 1B68     		ldr	r3, [r3]
 4906 0014 43F00403 		orr	r3, r3, #4
 4907 0018 1360     		str	r3, [r2]
 4908 001a 05E0     		b	.L333
 4909              	.L334:
2744:Generated_Source\PSoC5/CyLib.c ****         }
2745:Generated_Source\PSoC5/CyLib.c ****         else
2746:Generated_Source\PSoC5/CyLib.c ****         {
2747:Generated_Source\PSoC5/CyLib.c ****             CY_SYS_SYST_CSR_REG &= ((uint32) ~((uint32)(CY_SYS_SYST_CSR_CLK_SRC_SYSCLK << CY_SYS_SY
 4910              		.loc 1 2747 0
 4911 001c 054A     		ldr	r2, .L336
 4912 001e 054B     		ldr	r3, .L336
 4913 0020 1B68     		ldr	r3, [r3]
 4914 0022 23F00403 		bic	r3, r3, #4
 4915 0026 1360     		str	r3, [r2]
 4916              	.L333:
2748:Generated_Source\PSoC5/CyLib.c ****         }
2749:Generated_Source\PSoC5/CyLib.c ****     }
ARM GAS  C:\Users\ben\AppData\Local\Temp\ccnBLHGm.s 			page 136


 4917              		.loc 1 2749 0
 4918 0028 0C37     		adds	r7, r7, #12
 4919              		.cfi_def_cfa_offset 4
 4920 002a BD46     		mov	sp, r7
 4921              		.cfi_def_cfa_register 13
 4922              		@ sp needed
 4923 002c 5DF8047B 		ldr	r7, [sp], #4
 4924              		.cfi_restore 7
 4925              		.cfi_def_cfa_offset 0
 4926 0030 7047     		bx	lr
 4927              	.L337:
 4928 0032 00BF     		.align	2
 4929              	.L336:
 4930 0034 10E000E0 		.word	-536813552
 4931              		.cfi_endproc
 4932              	.LFE73:
 4933              		.size	CySysTickSetClockSource, .-CySysTickSetClockSource
 4934              		.section	.text.CySysTickGetClockSource,"ax",%progbits
 4935              		.align	2
 4936              		.global	CySysTickGetClockSource
 4937              		.thumb
 4938              		.thumb_func
 4939              		.type	CySysTickGetClockSource, %function
 4940              	CySysTickGetClockSource:
 4941              	.LFB74:
2750:Generated_Source\PSoC5/CyLib.c **** 
2751:Generated_Source\PSoC5/CyLib.c ****     
2752:Generated_Source\PSoC5/CyLib.c ****     /*******************************************************************************
2753:Generated_Source\PSoC5/CyLib.c ****     * Function Name: CySysTickGetClockSource
2754:Generated_Source\PSoC5/CyLib.c ****     ****************************************************************************//**
2755:Generated_Source\PSoC5/CyLib.c ****     *
2756:Generated_Source\PSoC5/CyLib.c ****     *  Returns the current clock source of the SysTick counter.
2757:Generated_Source\PSoC5/CyLib.c ****     *
2758:Generated_Source\PSoC5/CyLib.c ****     *  \return 
2759:Generated_Source\PSoC5/CyLib.c ****     *   CY_SYS_SYST_CSR_CLK_SRC_SYSCLK     SysTick is clocked by CPU clock.
2760:Generated_Source\PSoC5/CyLib.c ****     *   CY_SYS_SYST_CSR_CLK_SRC_LFCLK      SysTick is clocked by the low frequency
2761:Generated_Source\PSoC5/CyLib.c ****     *                                      clock. (ILO 100 KHz for PSoC 5LP, and
2762:Generated_Source\PSoC5/CyLib.c ****     *                                      LFCLK for PSoC 4).
2763:Generated_Source\PSoC5/CyLib.c ****     *******************************************************************************/
2764:Generated_Source\PSoC5/CyLib.c ****     uint32 CySysTickGetClockSource(void)
2765:Generated_Source\PSoC5/CyLib.c ****     {
 4942              		.loc 1 2765 0
 4943              		.cfi_startproc
 4944              		@ args = 0, pretend = 0, frame = 0
 4945              		@ frame_needed = 1, uses_anonymous_args = 0
 4946              		@ link register save eliminated.
 4947 0000 80B4     		push	{r7}
 4948              		.cfi_def_cfa_offset 4
 4949              		.cfi_offset 7, -4
 4950 0002 00AF     		add	r7, sp, #0
 4951              		.cfi_def_cfa_register 7
2766:Generated_Source\PSoC5/CyLib.c ****         return ((CY_SYS_SYST_CSR_REG >> CY_SYS_SYST_CSR_CLK_SOURCE_SHIFT) & CY_SYS_SYST_CSR_CLK_SRC
 4952              		.loc 1 2766 0
 4953 0004 044B     		ldr	r3, .L340
 4954 0006 1B68     		ldr	r3, [r3]
 4955 0008 9B08     		lsrs	r3, r3, #2
 4956 000a 03F00103 		and	r3, r3, #1
ARM GAS  C:\Users\ben\AppData\Local\Temp\ccnBLHGm.s 			page 137


2767:Generated_Source\PSoC5/CyLib.c ****     }
 4957              		.loc 1 2767 0
 4958 000e 1846     		mov	r0, r3
 4959 0010 BD46     		mov	sp, r7
 4960              		.cfi_def_cfa_register 13
 4961              		@ sp needed
 4962 0012 5DF8047B 		ldr	r7, [sp], #4
 4963              		.cfi_restore 7
 4964              		.cfi_def_cfa_offset 0
 4965 0016 7047     		bx	lr
 4966              	.L341:
 4967              		.align	2
 4968              	.L340:
 4969 0018 10E000E0 		.word	-536813552
 4970              		.cfi_endproc
 4971              	.LFE74:
 4972              		.size	CySysTickGetClockSource, .-CySysTickGetClockSource
 4973              		.section	.text.CySysTickGetCountFlag,"ax",%progbits
 4974              		.align	2
 4975              		.global	CySysTickGetCountFlag
 4976              		.thumb
 4977              		.thumb_func
 4978              		.type	CySysTickGetCountFlag, %function
 4979              	CySysTickGetCountFlag:
 4980              	.LFB75:
2768:Generated_Source\PSoC5/CyLib.c **** 
2769:Generated_Source\PSoC5/CyLib.c ****     
2770:Generated_Source\PSoC5/CyLib.c ****     /*******************************************************************************
2771:Generated_Source\PSoC5/CyLib.c ****     * Function Name: CySysTickGetCountFlag
2772:Generated_Source\PSoC5/CyLib.c ****     ****************************************************************************//**
2773:Generated_Source\PSoC5/CyLib.c ****     *
2774:Generated_Source\PSoC5/CyLib.c ****     *  The count flag is set once SysTick counter reaches zero.
2775:Generated_Source\PSoC5/CyLib.c ****     *   The flag cleared on read.
2776:Generated_Source\PSoC5/CyLib.c ****     *
2777:Generated_Source\PSoC5/CyLib.c ****     * \return
2778:Generated_Source\PSoC5/CyLib.c ****     *  Returns non-zero value if flag is set, otherwise zero is returned.
2779:Generated_Source\PSoC5/CyLib.c ****     *
2780:Generated_Source\PSoC5/CyLib.c ****     *
2781:Generated_Source\PSoC5/CyLib.c ****     * \sideeffect
2782:Generated_Source\PSoC5/CyLib.c ****     *  Clears SysTick count flag if it was set.
2783:Generated_Source\PSoC5/CyLib.c ****     *
2784:Generated_Source\PSoC5/CyLib.c ****     *******************************************************************************/
2785:Generated_Source\PSoC5/CyLib.c ****     uint32 CySysTickGetCountFlag(void)
2786:Generated_Source\PSoC5/CyLib.c ****     {
 4981              		.loc 1 2786 0
 4982              		.cfi_startproc
 4983              		@ args = 0, pretend = 0, frame = 0
 4984              		@ frame_needed = 1, uses_anonymous_args = 0
 4985              		@ link register save eliminated.
 4986 0000 80B4     		push	{r7}
 4987              		.cfi_def_cfa_offset 4
 4988              		.cfi_offset 7, -4
 4989 0002 00AF     		add	r7, sp, #0
 4990              		.cfi_def_cfa_register 7
2787:Generated_Source\PSoC5/CyLib.c ****         return ((CY_SYS_SYST_CSR_REG >> CY_SYS_SYST_CSR_COUNTFLAG_SHIFT) & 0x01u);
 4991              		.loc 1 2787 0
 4992 0004 044B     		ldr	r3, .L344
ARM GAS  C:\Users\ben\AppData\Local\Temp\ccnBLHGm.s 			page 138


 4993 0006 1B68     		ldr	r3, [r3]
 4994 0008 1B0C     		lsrs	r3, r3, #16
 4995 000a 03F00103 		and	r3, r3, #1
2788:Generated_Source\PSoC5/CyLib.c ****     }
 4996              		.loc 1 2788 0
 4997 000e 1846     		mov	r0, r3
 4998 0010 BD46     		mov	sp, r7
 4999              		.cfi_def_cfa_register 13
 5000              		@ sp needed
 5001 0012 5DF8047B 		ldr	r7, [sp], #4
 5002              		.cfi_restore 7
 5003              		.cfi_def_cfa_offset 0
 5004 0016 7047     		bx	lr
 5005              	.L345:
 5006              		.align	2
 5007              	.L344:
 5008 0018 10E000E0 		.word	-536813552
 5009              		.cfi_endproc
 5010              	.LFE75:
 5011              		.size	CySysTickGetCountFlag, .-CySysTickGetCountFlag
 5012              		.section	.text.CySysTickClear,"ax",%progbits
 5013              		.align	2
 5014              		.global	CySysTickClear
 5015              		.thumb
 5016              		.thumb_func
 5017              		.type	CySysTickClear, %function
 5018              	CySysTickClear:
 5019              	.LFB76:
2789:Generated_Source\PSoC5/CyLib.c **** 
2790:Generated_Source\PSoC5/CyLib.c **** 
2791:Generated_Source\PSoC5/CyLib.c ****     /*******************************************************************************
2792:Generated_Source\PSoC5/CyLib.c ****     * Function Name: CySysTickClear
2793:Generated_Source\PSoC5/CyLib.c ****     ****************************************************************************//**
2794:Generated_Source\PSoC5/CyLib.c ****     *
2795:Generated_Source\PSoC5/CyLib.c ****     *  Clears the SysTick counter for well-defined startup.
2796:Generated_Source\PSoC5/CyLib.c ****     *
2797:Generated_Source\PSoC5/CyLib.c ****     *******************************************************************************/
2798:Generated_Source\PSoC5/CyLib.c ****     void CySysTickClear(void)
2799:Generated_Source\PSoC5/CyLib.c ****     {
 5020              		.loc 1 2799 0
 5021              		.cfi_startproc
 5022              		@ args = 0, pretend = 0, frame = 0
 5023              		@ frame_needed = 1, uses_anonymous_args = 0
 5024              		@ link register save eliminated.
 5025 0000 80B4     		push	{r7}
 5026              		.cfi_def_cfa_offset 4
 5027              		.cfi_offset 7, -4
 5028 0002 00AF     		add	r7, sp, #0
 5029              		.cfi_def_cfa_register 7
2800:Generated_Source\PSoC5/CyLib.c ****         CY_SYS_SYST_CVR_REG = 0u;
 5030              		.loc 1 2800 0
 5031 0004 034B     		ldr	r3, .L347
 5032 0006 0022     		movs	r2, #0
 5033 0008 1A60     		str	r2, [r3]
2801:Generated_Source\PSoC5/CyLib.c ****     }
 5034              		.loc 1 2801 0
 5035 000a BD46     		mov	sp, r7
ARM GAS  C:\Users\ben\AppData\Local\Temp\ccnBLHGm.s 			page 139


 5036              		.cfi_def_cfa_register 13
 5037              		@ sp needed
 5038 000c 5DF8047B 		ldr	r7, [sp], #4
 5039              		.cfi_restore 7
 5040              		.cfi_def_cfa_offset 0
 5041 0010 7047     		bx	lr
 5042              	.L348:
 5043 0012 00BF     		.align	2
 5044              	.L347:
 5045 0014 18E000E0 		.word	-536813544
 5046              		.cfi_endproc
 5047              	.LFE76:
 5048              		.size	CySysTickClear, .-CySysTickClear
 5049              		.section	.text.CySysTickSetCallback,"ax",%progbits
 5050              		.align	2
 5051              		.global	CySysTickSetCallback
 5052              		.thumb
 5053              		.thumb_func
 5054              		.type	CySysTickSetCallback, %function
 5055              	CySysTickSetCallback:
 5056              	.LFB77:
2802:Generated_Source\PSoC5/CyLib.c **** 
2803:Generated_Source\PSoC5/CyLib.c **** 
2804:Generated_Source\PSoC5/CyLib.c ****     /*******************************************************************************
2805:Generated_Source\PSoC5/CyLib.c ****     * Function Name: CySysTickSetCallback
2806:Generated_Source\PSoC5/CyLib.c ****     ****************************************************************************//**
2807:Generated_Source\PSoC5/CyLib.c ****     *
2808:Generated_Source\PSoC5/CyLib.c ****     *  This function allows up to five user-defined interrupt service routine
2809:Generated_Source\PSoC5/CyLib.c ****     *  functions to be associated with the SysTick interrupt. These are specified
2810:Generated_Source\PSoC5/CyLib.c ****     *  through the use of pointers to the function.
2811:Generated_Source\PSoC5/CyLib.c ****     *
2812:Generated_Source\PSoC5/CyLib.c ****     *  To set a custom callback function without the overhead of the system provided
2813:Generated_Source\PSoC5/CyLib.c ****     *  one, use CyIntSetSysVector(CY_INT_SYSTICK_IRQN, cyisraddress <address>),
2814:Generated_Source\PSoC5/CyLib.c ****     *  where <address> is address of the custom defined interrupt service routine.
2815:Generated_Source\PSoC5/CyLib.c ****     *  Note: a custom callback function overrides the system defined callback
2816:Generated_Source\PSoC5/CyLib.c ****     *  functions.
2817:Generated_Source\PSoC5/CyLib.c ****     *
2818:Generated_Source\PSoC5/CyLib.c ****     *  \param number: The number of the callback function addresses to be set. The valid
2819:Generated_Source\PSoC5/CyLib.c ****     *          range is from 0 to 4.
2820:Generated_Source\PSoC5/CyLib.c ****     *
2821:Generated_Source\PSoC5/CyLib.c ****     *  void(*CallbackFunction(void): A pointer to the function that will be
2822:Generated_Source\PSoC5/CyLib.c ****     *                                associated with the SysTick ISR for the
2823:Generated_Source\PSoC5/CyLib.c ****     *                                specified number.
2824:Generated_Source\PSoC5/CyLib.c ****     *
2825:Generated_Source\PSoC5/CyLib.c ****     * \return
2826:Generated_Source\PSoC5/CyLib.c ****     *  Returns the address of the previous callback function.
2827:Generated_Source\PSoC5/CyLib.c ****     *  The NULL is returned if the specified address in not set.
2828:Generated_Source\PSoC5/CyLib.c ****     *
2829:Generated_Source\PSoC5/CyLib.c ****     * \sideeffect
2830:Generated_Source\PSoC5/CyLib.c ****     *  The registered callback functions will be executed in the interrupt.
2831:Generated_Source\PSoC5/CyLib.c ****     *
2832:Generated_Source\PSoC5/CyLib.c ****     *******************************************************************************/
2833:Generated_Source\PSoC5/CyLib.c ****     cySysTickCallback CySysTickSetCallback(uint32 number, cySysTickCallback function)
2834:Generated_Source\PSoC5/CyLib.c ****     {
 5057              		.loc 1 2834 0
 5058              		.cfi_startproc
 5059              		@ args = 0, pretend = 0, frame = 16
ARM GAS  C:\Users\ben\AppData\Local\Temp\ccnBLHGm.s 			page 140


 5060              		@ frame_needed = 1, uses_anonymous_args = 0
 5061              		@ link register save eliminated.
 5062 0000 80B4     		push	{r7}
 5063              		.cfi_def_cfa_offset 4
 5064              		.cfi_offset 7, -4
 5065 0002 85B0     		sub	sp, sp, #20
 5066              		.cfi_def_cfa_offset 24
 5067 0004 00AF     		add	r7, sp, #0
 5068              		.cfi_def_cfa_register 7
 5069 0006 7860     		str	r0, [r7, #4]
 5070 0008 3960     		str	r1, [r7]
2835:Generated_Source\PSoC5/CyLib.c ****         cySysTickCallback retVal;
2836:Generated_Source\PSoC5/CyLib.c **** 
2837:Generated_Source\PSoC5/CyLib.c ****         retVal = CySysTickCallbacks[number];
 5071              		.loc 1 2837 0
 5072 000a 084A     		ldr	r2, .L351
 5073 000c 7B68     		ldr	r3, [r7, #4]
 5074 000e 52F82330 		ldr	r3, [r2, r3, lsl #2]
 5075 0012 FB60     		str	r3, [r7, #12]
2838:Generated_Source\PSoC5/CyLib.c ****         CySysTickCallbacks[number] = function;
 5076              		.loc 1 2838 0
 5077 0014 0549     		ldr	r1, .L351
 5078 0016 7B68     		ldr	r3, [r7, #4]
 5079 0018 3A68     		ldr	r2, [r7]
 5080 001a 41F82320 		str	r2, [r1, r3, lsl #2]
2839:Generated_Source\PSoC5/CyLib.c ****         return (retVal);
 5081              		.loc 1 2839 0
 5082 001e FB68     		ldr	r3, [r7, #12]
2840:Generated_Source\PSoC5/CyLib.c ****     }
 5083              		.loc 1 2840 0
 5084 0020 1846     		mov	r0, r3
 5085 0022 1437     		adds	r7, r7, #20
 5086              		.cfi_def_cfa_offset 4
 5087 0024 BD46     		mov	sp, r7
 5088              		.cfi_def_cfa_register 13
 5089              		@ sp needed
 5090 0026 5DF8047B 		ldr	r7, [sp], #4
 5091              		.cfi_restore 7
 5092              		.cfi_def_cfa_offset 0
 5093 002a 7047     		bx	lr
 5094              	.L352:
 5095              		.align	2
 5096              	.L351:
 5097 002c 00000000 		.word	CySysTickCallbacks
 5098              		.cfi_endproc
 5099              	.LFE77:
 5100              		.size	CySysTickSetCallback, .-CySysTickSetCallback
 5101              		.section	.text.CySysTickGetCallback,"ax",%progbits
 5102              		.align	2
 5103              		.global	CySysTickGetCallback
 5104              		.thumb
 5105              		.thumb_func
 5106              		.type	CySysTickGetCallback, %function
 5107              	CySysTickGetCallback:
 5108              	.LFB78:
2841:Generated_Source\PSoC5/CyLib.c **** 
2842:Generated_Source\PSoC5/CyLib.c **** 
ARM GAS  C:\Users\ben\AppData\Local\Temp\ccnBLHGm.s 			page 141


2843:Generated_Source\PSoC5/CyLib.c ****     /*******************************************************************************
2844:Generated_Source\PSoC5/CyLib.c ****     * Function Name: CySysTickGetCallback
2845:Generated_Source\PSoC5/CyLib.c ****     ****************************************************************************//**
2846:Generated_Source\PSoC5/CyLib.c ****     *
2847:Generated_Source\PSoC5/CyLib.c ****     *  The function get the specified callback pointer.
2848:Generated_Source\PSoC5/CyLib.c ****     *
2849:Generated_Source\PSoC5/CyLib.c ****     *  \param number: The number of callback function address to get. The valid
2850:Generated_Source\PSoC5/CyLib.c ****     *          range is from 0 to 4.
2851:Generated_Source\PSoC5/CyLib.c ****     *
2852:Generated_Source\PSoC5/CyLib.c ****     * \return
2853:Generated_Source\PSoC5/CyLib.c ****     *  Returns the address of the specified callback function.
2854:Generated_Source\PSoC5/CyLib.c ****     *  The NULL is returned if the specified address in not initialized.
2855:Generated_Source\PSoC5/CyLib.c ****     *
2856:Generated_Source\PSoC5/CyLib.c ****     *******************************************************************************/
2857:Generated_Source\PSoC5/CyLib.c ****     cySysTickCallback CySysTickGetCallback(uint32 number)
2858:Generated_Source\PSoC5/CyLib.c ****     {
 5109              		.loc 1 2858 0
 5110              		.cfi_startproc
 5111              		@ args = 0, pretend = 0, frame = 8
 5112              		@ frame_needed = 1, uses_anonymous_args = 0
 5113              		@ link register save eliminated.
 5114 0000 80B4     		push	{r7}
 5115              		.cfi_def_cfa_offset 4
 5116              		.cfi_offset 7, -4
 5117 0002 83B0     		sub	sp, sp, #12
 5118              		.cfi_def_cfa_offset 16
 5119 0004 00AF     		add	r7, sp, #0
 5120              		.cfi_def_cfa_register 7
 5121 0006 7860     		str	r0, [r7, #4]
2859:Generated_Source\PSoC5/CyLib.c ****         return ((cySysTickCallback) CySysTickCallbacks[number]);
 5122              		.loc 1 2859 0
 5123 0008 044A     		ldr	r2, .L355
 5124 000a 7B68     		ldr	r3, [r7, #4]
 5125 000c 52F82330 		ldr	r3, [r2, r3, lsl #2]
2860:Generated_Source\PSoC5/CyLib.c ****     }
 5126              		.loc 1 2860 0
 5127 0010 1846     		mov	r0, r3
 5128 0012 0C37     		adds	r7, r7, #12
 5129              		.cfi_def_cfa_offset 4
 5130 0014 BD46     		mov	sp, r7
 5131              		.cfi_def_cfa_register 13
 5132              		@ sp needed
 5133 0016 5DF8047B 		ldr	r7, [sp], #4
 5134              		.cfi_restore 7
 5135              		.cfi_def_cfa_offset 0
 5136 001a 7047     		bx	lr
 5137              	.L356:
 5138              		.align	2
 5139              	.L355:
 5140 001c 00000000 		.word	CySysTickCallbacks
 5141              		.cfi_endproc
 5142              	.LFE78:
 5143              		.size	CySysTickGetCallback, .-CySysTickGetCallback
 5144              		.section	.text.CySysTickServiceCallbacks,"ax",%progbits
 5145              		.align	2
 5146              		.thumb
 5147              		.thumb_func
ARM GAS  C:\Users\ben\AppData\Local\Temp\ccnBLHGm.s 			page 142


 5148              		.type	CySysTickServiceCallbacks, %function
 5149              	CySysTickServiceCallbacks:
 5150              	.LFB79:
2861:Generated_Source\PSoC5/CyLib.c **** 
2862:Generated_Source\PSoC5/CyLib.c **** 
2863:Generated_Source\PSoC5/CyLib.c ****     /*******************************************************************************
2864:Generated_Source\PSoC5/CyLib.c ****     * Function Name: CySysTickServiceCallbacks
2865:Generated_Source\PSoC5/CyLib.c ****     ****************************************************************************//**
2866:Generated_Source\PSoC5/CyLib.c ****     *
2867:Generated_Source\PSoC5/CyLib.c ****     *  System Tick timer interrupt routine
2868:Generated_Source\PSoC5/CyLib.c ****     *
2869:Generated_Source\PSoC5/CyLib.c ****     *******************************************************************************/
2870:Generated_Source\PSoC5/CyLib.c ****     static void CySysTickServiceCallbacks(void)
2871:Generated_Source\PSoC5/CyLib.c ****     {
 5151              		.loc 1 2871 0
 5152              		.cfi_startproc
 5153              		@ args = 0, pretend = 0, frame = 8
 5154              		@ frame_needed = 1, uses_anonymous_args = 0
 5155 0000 80B5     		push	{r7, lr}
 5156              		.cfi_def_cfa_offset 8
 5157              		.cfi_offset 7, -8
 5158              		.cfi_offset 14, -4
 5159 0002 82B0     		sub	sp, sp, #8
 5160              		.cfi_def_cfa_offset 16
 5161 0004 00AF     		add	r7, sp, #0
 5162              		.cfi_def_cfa_register 7
2872:Generated_Source\PSoC5/CyLib.c ****         uint32 i;
2873:Generated_Source\PSoC5/CyLib.c **** 
2874:Generated_Source\PSoC5/CyLib.c ****         /* Verify that tick timer flag was set */
2875:Generated_Source\PSoC5/CyLib.c ****         if (1u == CySysTickGetCountFlag())
 5163              		.loc 1 2875 0
 5164 0006 FFF7FEFF 		bl	CySysTickGetCountFlag
 5165 000a 0346     		mov	r3, r0
 5166 000c 012B     		cmp	r3, #1
 5167 000e 13D1     		bne	.L357
2876:Generated_Source\PSoC5/CyLib.c ****         {
2877:Generated_Source\PSoC5/CyLib.c ****             for (i=0u; i < CY_SYS_SYST_NUM_OF_CALLBACKS; i++)
 5168              		.loc 1 2877 0
 5169 0010 0023     		movs	r3, #0
 5170 0012 7B60     		str	r3, [r7, #4]
 5171 0014 0DE0     		b	.L359
 5172              	.L361:
2878:Generated_Source\PSoC5/CyLib.c ****             {
2879:Generated_Source\PSoC5/CyLib.c ****                 if (CySysTickCallbacks[i] != (void *) 0)
 5173              		.loc 1 2879 0
 5174 0016 0A4A     		ldr	r2, .L362
 5175 0018 7B68     		ldr	r3, [r7, #4]
 5176 001a 52F82330 		ldr	r3, [r2, r3, lsl #2]
 5177 001e 002B     		cmp	r3, #0
 5178 0020 04D0     		beq	.L360
2880:Generated_Source\PSoC5/CyLib.c ****                 {
2881:Generated_Source\PSoC5/CyLib.c ****                     (void)(CySysTickCallbacks[i])();
 5179              		.loc 1 2881 0
 5180 0022 074A     		ldr	r2, .L362
 5181 0024 7B68     		ldr	r3, [r7, #4]
 5182 0026 52F82330 		ldr	r3, [r2, r3, lsl #2]
 5183 002a 9847     		blx	r3
ARM GAS  C:\Users\ben\AppData\Local\Temp\ccnBLHGm.s 			page 143


 5184              	.L360:
2877:Generated_Source\PSoC5/CyLib.c ****             {
 5185              		.loc 1 2877 0 discriminator 2
 5186 002c 7B68     		ldr	r3, [r7, #4]
 5187 002e 0133     		adds	r3, r3, #1
 5188 0030 7B60     		str	r3, [r7, #4]
 5189              	.L359:
2877:Generated_Source\PSoC5/CyLib.c ****             {
 5190              		.loc 1 2877 0 is_stmt 0 discriminator 1
 5191 0032 7B68     		ldr	r3, [r7, #4]
 5192 0034 042B     		cmp	r3, #4
 5193 0036 EED9     		bls	.L361
 5194              	.L357:
2882:Generated_Source\PSoC5/CyLib.c ****                 }
2883:Generated_Source\PSoC5/CyLib.c ****             }
2884:Generated_Source\PSoC5/CyLib.c ****         }
2885:Generated_Source\PSoC5/CyLib.c ****     }
 5195              		.loc 1 2885 0 is_stmt 1
 5196 0038 0837     		adds	r7, r7, #8
 5197              		.cfi_def_cfa_offset 8
 5198 003a BD46     		mov	sp, r7
 5199              		.cfi_def_cfa_register 13
 5200              		@ sp needed
 5201 003c 80BD     		pop	{r7, pc}
 5202              	.L363:
 5203 003e 00BF     		.align	2
 5204              	.L362:
 5205 0040 00000000 		.word	CySysTickCallbacks
 5206              		.cfi_endproc
 5207              	.LFE79:
 5208              		.size	CySysTickServiceCallbacks, .-CySysTickServiceCallbacks
 5209              		.section	.text.CyGetUniqueId,"ax",%progbits
 5210              		.align	2
 5211              		.global	CyGetUniqueId
 5212              		.thumb
 5213              		.thumb_func
 5214              		.type	CyGetUniqueId, %function
 5215              	CyGetUniqueId:
 5216              	.LFB80:
2886:Generated_Source\PSoC5/CyLib.c **** #endif /* (CY_PSOC5) */
2887:Generated_Source\PSoC5/CyLib.c **** 
2888:Generated_Source\PSoC5/CyLib.c **** 
2889:Generated_Source\PSoC5/CyLib.c **** /*******************************************************************************
2890:Generated_Source\PSoC5/CyLib.c **** * Function Name: CyGetUniqueId
2891:Generated_Source\PSoC5/CyLib.c **** ****************************************************************************//**
2892:Generated_Source\PSoC5/CyLib.c **** *
2893:Generated_Source\PSoC5/CyLib.c **** *  Returns the 64-bit unique ID of the device. The uniqueness of the number is
2894:Generated_Source\PSoC5/CyLib.c **** *  guaranteed for 10 years due to the die lot number having a cycle life of 10
2895:Generated_Source\PSoC5/CyLib.c **** *  years and even after 10 years, the probability of getting two identical
2896:Generated_Source\PSoC5/CyLib.c **** *  numbers is very small.
2897:Generated_Source\PSoC5/CyLib.c **** *
2898:Generated_Source\PSoC5/CyLib.c **** *  \param uniqueId: The pointer to a two element 32-bit unsigned integer array. Returns
2899:Generated_Source\PSoC5/CyLib.c **** *  the 64-bit unique ID of the device by loading them into the integer array
2900:Generated_Source\PSoC5/CyLib.c **** *  pointed to by uniqueId.
2901:Generated_Source\PSoC5/CyLib.c **** *
2902:Generated_Source\PSoC5/CyLib.c **** *******************************************************************************/
2903:Generated_Source\PSoC5/CyLib.c **** void CyGetUniqueId(uint32* uniqueId)
ARM GAS  C:\Users\ben\AppData\Local\Temp\ccnBLHGm.s 			page 144


2904:Generated_Source\PSoC5/CyLib.c **** {
 5217              		.loc 1 2904 0
 5218              		.cfi_startproc
 5219              		@ args = 0, pretend = 0, frame = 8
 5220              		@ frame_needed = 1, uses_anonymous_args = 0
 5221              		@ link register save eliminated.
 5222 0000 80B4     		push	{r7}
 5223              		.cfi_def_cfa_offset 4
 5224              		.cfi_offset 7, -4
 5225 0002 83B0     		sub	sp, sp, #12
 5226              		.cfi_def_cfa_offset 16
 5227 0004 00AF     		add	r7, sp, #0
 5228              		.cfi_def_cfa_register 7
 5229 0006 7860     		str	r0, [r7, #4]
2905:Generated_Source\PSoC5/CyLib.c **** #if(CY_PSOC4)
2906:Generated_Source\PSoC5/CyLib.c ****     uniqueId[0u]  =  (uint32)(* (reg8 *) CYREG_SFLASH_DIE_LOT0  );
2907:Generated_Source\PSoC5/CyLib.c ****     uniqueId[0u] |= ((uint32)(* (reg8 *) CYREG_SFLASH_DIE_LOT1  ) <<  8u);
2908:Generated_Source\PSoC5/CyLib.c ****     uniqueId[0u] |= ((uint32)(* (reg8 *) CYREG_SFLASH_DIE_LOT2  ) << 16u);
2909:Generated_Source\PSoC5/CyLib.c ****     uniqueId[0u] |= ((uint32)(* (reg8 *) CYREG_SFLASH_DIE_WAFER ) << 24u);
2910:Generated_Source\PSoC5/CyLib.c **** 
2911:Generated_Source\PSoC5/CyLib.c ****     uniqueId[1u]  =  (uint32)(* (reg8 *) CYREG_SFLASH_DIE_X     );
2912:Generated_Source\PSoC5/CyLib.c ****     uniqueId[1u] |= ((uint32)(* (reg8 *) CYREG_SFLASH_DIE_Y     ) <<  8u);
2913:Generated_Source\PSoC5/CyLib.c ****     uniqueId[1u] |= ((uint32)(* (reg8 *) CYREG_SFLASH_DIE_SORT  ) << 16u);
2914:Generated_Source\PSoC5/CyLib.c ****     uniqueId[1u] |= ((uint32)(* (reg8 *) CYREG_SFLASH_DIE_MINOR ) << 24u);
2915:Generated_Source\PSoC5/CyLib.c **** #else
2916:Generated_Source\PSoC5/CyLib.c ****     uniqueId[0u]  =  (uint32) CY_GET_XTND_REG8((void CYFAR *) (CYREG_FLSHID_CUST_TABLES_LOT_LSB   )
 5230              		.loc 1 2916 0
 5231 0008 264B     		ldr	r3, .L365
 5232 000a 1B78     		ldrb	r3, [r3]
 5233 000c DBB2     		uxtb	r3, r3
 5234 000e 1A46     		mov	r2, r3
 5235 0010 7B68     		ldr	r3, [r7, #4]
 5236 0012 1A60     		str	r2, [r3]
2917:Generated_Source\PSoC5/CyLib.c ****     uniqueId[0u] |= ((uint32) CY_GET_XTND_REG8((void CYFAR *) (CYREG_FLSHID_CUST_TABLES_LOT_MSB   )
 5237              		.loc 1 2917 0
 5238 0014 244B     		ldr	r3, .L365+4
 5239 0016 1B78     		ldrb	r3, [r3]
 5240 0018 DBB2     		uxtb	r3, r3
 5241 001a 1B02     		lsls	r3, r3, #8
 5242 001c 7A68     		ldr	r2, [r7, #4]
 5243 001e 1268     		ldr	r2, [r2]
 5244 0020 1A43     		orrs	r2, r2, r3
 5245 0022 7B68     		ldr	r3, [r7, #4]
 5246 0024 1A60     		str	r2, [r3]
2918:Generated_Source\PSoC5/CyLib.c ****     uniqueId[0u] |= ((uint32) CY_GET_XTND_REG8((void CYFAR *) (CYREG_MLOGIC_REV_ID                )
 5247              		.loc 1 2918 0
 5248 0026 214B     		ldr	r3, .L365+8
 5249 0028 1B78     		ldrb	r3, [r3]
 5250 002a DBB2     		uxtb	r3, r3
 5251 002c 1B04     		lsls	r3, r3, #16
 5252 002e 7A68     		ldr	r2, [r7, #4]
 5253 0030 1268     		ldr	r2, [r2]
 5254 0032 1A43     		orrs	r2, r2, r3
 5255 0034 7B68     		ldr	r3, [r7, #4]
 5256 0036 1A60     		str	r2, [r3]
2919:Generated_Source\PSoC5/CyLib.c ****     uniqueId[0u] |= ((uint32) CY_GET_XTND_REG8((void CYFAR *) (CYREG_FLSHID_CUST_TABLES_WAFER_NUM )
 5257              		.loc 1 2919 0
ARM GAS  C:\Users\ben\AppData\Local\Temp\ccnBLHGm.s 			page 145


 5258 0038 1D4B     		ldr	r3, .L365+12
 5259 003a 1B78     		ldrb	r3, [r3]
 5260 003c DBB2     		uxtb	r3, r3
 5261 003e 1B06     		lsls	r3, r3, #24
 5262 0040 7A68     		ldr	r2, [r7, #4]
 5263 0042 1268     		ldr	r2, [r2]
 5264 0044 1A43     		orrs	r2, r2, r3
 5265 0046 7B68     		ldr	r3, [r7, #4]
 5266 0048 1A60     		str	r2, [r3]
2920:Generated_Source\PSoC5/CyLib.c **** 
2921:Generated_Source\PSoC5/CyLib.c ****     uniqueId[1u]  =  (uint32) CY_GET_XTND_REG8((void CYFAR *) (CYREG_FLSHID_CUST_TABLES_X_LOC     )
 5267              		.loc 1 2921 0
 5268 004a 7B68     		ldr	r3, [r7, #4]
 5269 004c 0433     		adds	r3, r3, #4
 5270 004e 194A     		ldr	r2, .L365+16
 5271 0050 1278     		ldrb	r2, [r2]
 5272 0052 D2B2     		uxtb	r2, r2
 5273 0054 1A60     		str	r2, [r3]
2922:Generated_Source\PSoC5/CyLib.c ****     uniqueId[1u] |= ((uint32) CY_GET_XTND_REG8((void CYFAR *) (CYREG_FLSHID_CUST_TABLES_Y_LOC     )
 5274              		.loc 1 2922 0
 5275 0056 184B     		ldr	r3, .L365+20
 5276 0058 1B78     		ldrb	r3, [r3]
 5277 005a DBB2     		uxtb	r3, r3
 5278 005c 1A02     		lsls	r2, r3, #8
 5279 005e 7B68     		ldr	r3, [r7, #4]
 5280 0060 0433     		adds	r3, r3, #4
 5281 0062 7968     		ldr	r1, [r7, #4]
 5282 0064 0431     		adds	r1, r1, #4
 5283 0066 0968     		ldr	r1, [r1]
 5284 0068 0A43     		orrs	r2, r2, r1
 5285 006a 1A60     		str	r2, [r3]
2923:Generated_Source\PSoC5/CyLib.c ****     uniqueId[1u] |= ((uint32) CY_GET_XTND_REG8((void CYFAR *) (CYREG_FLSHID_CUST_TABLES_WRK_WK    )
 5286              		.loc 1 2923 0
 5287 006c 134B     		ldr	r3, .L365+24
 5288 006e 1B78     		ldrb	r3, [r3]
 5289 0070 DBB2     		uxtb	r3, r3
 5290 0072 1A04     		lsls	r2, r3, #16
 5291 0074 7B68     		ldr	r3, [r7, #4]
 5292 0076 0433     		adds	r3, r3, #4
 5293 0078 7968     		ldr	r1, [r7, #4]
 5294 007a 0431     		adds	r1, r1, #4
 5295 007c 0968     		ldr	r1, [r1]
 5296 007e 0A43     		orrs	r2, r2, r1
 5297 0080 1A60     		str	r2, [r3]
2924:Generated_Source\PSoC5/CyLib.c ****     uniqueId[1u] |= ((uint32) CY_GET_XTND_REG8((void CYFAR *) (CYREG_FLSHID_CUST_TABLES_FAB_YR    )
 5298              		.loc 1 2924 0
 5299 0082 0F4B     		ldr	r3, .L365+28
 5300 0084 1B78     		ldrb	r3, [r3]
 5301 0086 DBB2     		uxtb	r3, r3
 5302 0088 1A06     		lsls	r2, r3, #24
 5303 008a 7B68     		ldr	r3, [r7, #4]
 5304 008c 0433     		adds	r3, r3, #4
 5305 008e 7968     		ldr	r1, [r7, #4]
 5306 0090 0431     		adds	r1, r1, #4
 5307 0092 0968     		ldr	r1, [r1]
 5308 0094 0A43     		orrs	r2, r2, r1
 5309 0096 1A60     		str	r2, [r3]
ARM GAS  C:\Users\ben\AppData\Local\Temp\ccnBLHGm.s 			page 146


2925:Generated_Source\PSoC5/CyLib.c **** #endif  /* (CY_PSOC4) */
2926:Generated_Source\PSoC5/CyLib.c **** }
 5310              		.loc 1 2926 0
 5311 0098 0C37     		adds	r7, r7, #12
 5312              		.cfi_def_cfa_offset 4
 5313 009a BD46     		mov	sp, r7
 5314              		.cfi_def_cfa_register 13
 5315              		@ sp needed
 5316 009c 5DF8047B 		ldr	r7, [sp], #4
 5317              		.cfi_restore 7
 5318              		.cfi_def_cfa_offset 0
 5319 00a0 7047     		bx	lr
 5320              	.L366:
 5321 00a2 00BF     		.align	2
 5322              	.L365:
 5323 00a4 03010049 		.word	1224737027
 5324 00a8 04010049 		.word	1224737028
 5325 00ac EC460040 		.word	1073759980
 5326 00b0 02010049 		.word	1224737026
 5327 00b4 01010049 		.word	1224737025
 5328 00b8 00010049 		.word	1224737024
 5329 00bc 05010049 		.word	1224737029
 5330 00c0 06010049 		.word	1224737030
 5331              		.cfi_endproc
 5332              	.LFE80:
 5333              		.size	CyGetUniqueId, .-CyGetUniqueId
 5334              		.bss
 5335              	interruptStatus.5074:
 5336 0018 00       		.space	1
 5337 0019 000000   		.text
 5338              	.Letext0:
 5339              		.file 2 "Generated_Source\\PSoC5\\cytypes.h"
 5340              		.file 3 "Generated_Source\\PSoC5\\CyLib.h"
 5341              		.section	.debug_info,"",%progbits
 5342              	.Ldebug_info0:
 5343 0000 460E0000 		.4byte	0xe46
 5344 0004 0400     		.2byte	0x4
 5345 0006 00000000 		.4byte	.Ldebug_abbrev0
 5346 000a 04       		.byte	0x4
 5347 000b 01       		.uleb128 0x1
 5348 000c 61050000 		.4byte	.LASF161
 5349 0010 01       		.byte	0x1
 5350 0011 78000000 		.4byte	.LASF162
 5351 0015 62040000 		.4byte	.LASF163
 5352 0019 00000000 		.4byte	.Ldebug_ranges0+0
 5353 001d 00000000 		.4byte	0
 5354 0021 00000000 		.4byte	.Ldebug_line0
 5355 0025 02       		.uleb128 0x2
 5356 0026 04       		.byte	0x4
 5357 0027 05       		.byte	0x5
 5358 0028 696E7400 		.ascii	"int\000"
 5359 002c 03       		.uleb128 0x3
 5360 002d 04       		.byte	0x4
 5361 002e 07       		.byte	0x7
 5362 002f EF000000 		.4byte	.LASF0
 5363 0033 03       		.uleb128 0x3
 5364 0034 01       		.byte	0x1
ARM GAS  C:\Users\ben\AppData\Local\Temp\ccnBLHGm.s 			page 147


 5365 0035 06       		.byte	0x6
 5366 0036 69090000 		.4byte	.LASF1
 5367 003a 03       		.uleb128 0x3
 5368 003b 01       		.byte	0x1
 5369 003c 08       		.byte	0x8
 5370 003d 9B080000 		.4byte	.LASF2
 5371 0041 03       		.uleb128 0x3
 5372 0042 02       		.byte	0x2
 5373 0043 05       		.byte	0x5
 5374 0044 4F070000 		.4byte	.LASF3
 5375 0048 03       		.uleb128 0x3
 5376 0049 02       		.byte	0x2
 5377 004a 07       		.byte	0x7
 5378 004b 75090000 		.4byte	.LASF4
 5379 004f 03       		.uleb128 0x3
 5380 0050 04       		.byte	0x4
 5381 0051 05       		.byte	0x5
 5382 0052 61070000 		.4byte	.LASF5
 5383 0056 03       		.uleb128 0x3
 5384 0057 04       		.byte	0x4
 5385 0058 07       		.byte	0x7
 5386 0059 14080000 		.4byte	.LASF6
 5387 005d 03       		.uleb128 0x3
 5388 005e 08       		.byte	0x8
 5389 005f 05       		.byte	0x5
 5390 0060 E5040000 		.4byte	.LASF7
 5391 0064 03       		.uleb128 0x3
 5392 0065 08       		.byte	0x8
 5393 0066 07       		.byte	0x7
 5394 0067 81020000 		.4byte	.LASF8
 5395 006b 03       		.uleb128 0x3
 5396 006c 04       		.byte	0x4
 5397 006d 07       		.byte	0x7
 5398 006e 0B080000 		.4byte	.LASF9
 5399 0072 04       		.uleb128 0x4
 5400 0073 04       		.byte	0x4
 5401 0074 78000000 		.4byte	0x78
 5402 0078 05       		.uleb128 0x5
 5403 0079 03       		.uleb128 0x3
 5404 007a 01       		.byte	0x1
 5405 007b 08       		.byte	0x8
 5406 007c E5030000 		.4byte	.LASF10
 5407 0080 06       		.uleb128 0x6
 5408 0081 C6090000 		.4byte	.LASF11
 5409 0085 02       		.byte	0x2
 5410 0086 9201     		.2byte	0x192
 5411 0088 3A000000 		.4byte	0x3a
 5412 008c 06       		.uleb128 0x6
 5413 008d 19040000 		.4byte	.LASF12
 5414 0091 02       		.byte	0x2
 5415 0092 9301     		.2byte	0x193
 5416 0094 48000000 		.4byte	0x48
 5417 0098 06       		.uleb128 0x6
 5418 0099 21060000 		.4byte	.LASF13
 5419 009d 02       		.byte	0x2
 5420 009e 9401     		.2byte	0x194
 5421 00a0 56000000 		.4byte	0x56
ARM GAS  C:\Users\ben\AppData\Local\Temp\ccnBLHGm.s 			page 148


 5422 00a4 03       		.uleb128 0x3
 5423 00a5 04       		.byte	0x4
 5424 00a6 04       		.byte	0x4
 5425 00a7 1E020000 		.4byte	.LASF14
 5426 00ab 03       		.uleb128 0x3
 5427 00ac 08       		.byte	0x8
 5428 00ad 04       		.byte	0x4
 5429 00ae CC090000 		.4byte	.LASF15
 5430 00b2 06       		.uleb128 0x6
 5431 00b3 7E080000 		.4byte	.LASF16
 5432 00b7 02       		.byte	0x2
 5433 00b8 3402     		.2byte	0x234
 5434 00ba 56000000 		.4byte	0x56
 5435 00be 06       		.uleb128 0x6
 5436 00bf 3C010000 		.4byte	.LASF17
 5437 00c3 02       		.byte	0x2
 5438 00c4 3C02     		.2byte	0x23c
 5439 00c6 CA000000 		.4byte	0xca
 5440 00ca 07       		.uleb128 0x7
 5441 00cb 80000000 		.4byte	0x80
 5442 00cf 06       		.uleb128 0x6
 5443 00d0 F3040000 		.4byte	.LASF18
 5444 00d4 02       		.byte	0x2
 5445 00d5 3D02     		.2byte	0x23d
 5446 00d7 DB000000 		.4byte	0xdb
 5447 00db 07       		.uleb128 0x7
 5448 00dc 8C000000 		.4byte	0x8c
 5449 00e0 06       		.uleb128 0x6
 5450 00e1 0B070000 		.4byte	.LASF19
 5451 00e5 02       		.byte	0x2
 5452 00e6 3E02     		.2byte	0x23e
 5453 00e8 EC000000 		.4byte	0xec
 5454 00ec 07       		.uleb128 0x7
 5455 00ed 98000000 		.4byte	0x98
 5456 00f1 06       		.uleb128 0x6
 5457 00f2 FD050000 		.4byte	.LASF20
 5458 00f6 02       		.byte	0x2
 5459 00f7 4E02     		.2byte	0x24e
 5460 00f9 72000000 		.4byte	0x72
 5461 00fd 08       		.uleb128 0x8
 5462 00fe D3030000 		.4byte	.LASF21
 5463 0102 03       		.byte	0x3
 5464 0103 AC       		.byte	0xac
 5465 0104 72000000 		.4byte	0x72
 5466 0108 09       		.uleb128 0x9
 5467 0109 00040000 		.4byte	.LASF65
 5468 010d 01       		.byte	0x1
 5469 010e 61       		.byte	0x61
 5470 010f B2000000 		.4byte	0xb2
 5471 0113 00000000 		.4byte	.LFB0
 5472 0117 B0000000 		.4byte	.LFE0-.LFB0
 5473 011b 01       		.uleb128 0x1
 5474 011c 9C       		.byte	0x9c
 5475 011d 68010000 		.4byte	0x168
 5476 0121 0A       		.uleb128 0xa
 5477 0122 9E060000 		.4byte	.LASF26
 5478 0126 01       		.byte	0x1
ARM GAS  C:\Users\ben\AppData\Local\Temp\ccnBLHGm.s 			page 149


 5479 0127 61       		.byte	0x61
 5480 0128 80000000 		.4byte	0x80
 5481 012c 02       		.uleb128 0x2
 5482 012d 91       		.byte	0x91
 5483 012e 6F       		.sleb128 -17
 5484 012f 0B       		.uleb128 0xb
 5485 0130 39040000 		.4byte	.LASF22
 5486 0134 01       		.byte	0x1
 5487 0135 63       		.byte	0x63
 5488 0136 B2000000 		.4byte	0xb2
 5489 013a 02       		.uleb128 0x2
 5490 013b 91       		.byte	0x91
 5491 013c 74       		.sleb128 -12
 5492 013d 0B       		.uleb128 0xb
 5493 013e D3090000 		.4byte	.LASF23
 5494 0142 01       		.byte	0x1
 5495 0143 65       		.byte	0x65
 5496 0144 80000000 		.4byte	0x80
 5497 0148 02       		.uleb128 0x2
 5498 0149 91       		.byte	0x91
 5499 014a 73       		.sleb128 -13
 5500 014b 0B       		.uleb128 0xb
 5501 014c EF050000 		.4byte	.LASF24
 5502 0150 01       		.byte	0x1
 5503 0151 66       		.byte	0x66
 5504 0152 80000000 		.4byte	0x80
 5505 0156 02       		.uleb128 0x2
 5506 0157 91       		.byte	0x91
 5507 0158 72       		.sleb128 -14
 5508 0159 0B       		.uleb128 0xb
 5509 015a C2070000 		.4byte	.LASF25
 5510 015e 01       		.byte	0x1
 5511 015f 67       		.byte	0x67
 5512 0160 80000000 		.4byte	0x80
 5513 0164 02       		.uleb128 0x2
 5514 0165 91       		.byte	0x91
 5515 0166 71       		.sleb128 -15
 5516 0167 00       		.byte	0
 5517 0168 0C       		.uleb128 0xc
 5518 0169 3B020000 		.4byte	.LASF37
 5519 016d 01       		.byte	0x1
 5520 016e 9A       		.byte	0x9a
 5521 016f 00000000 		.4byte	.LFB1
 5522 0173 20000000 		.4byte	.LFE1-.LFB1
 5523 0177 01       		.uleb128 0x1
 5524 0178 9C       		.byte	0x9c
 5525 0179 0D       		.uleb128 0xd
 5526 017a C6000000 		.4byte	.LASF30
 5527 017e 01       		.byte	0x1
 5528 017f BB       		.byte	0xbb
 5529 0180 00000000 		.4byte	.LFB2
 5530 0184 74000000 		.4byte	.LFE2-.LFB2
 5531 0188 01       		.uleb128 0x1
 5532 0189 9C       		.byte	0x9c
 5533 018a B9010000 		.4byte	0x1b9
 5534 018e 0A       		.uleb128 0xa
 5535 018f 90010000 		.4byte	.LASF27
ARM GAS  C:\Users\ben\AppData\Local\Temp\ccnBLHGm.s 			page 150


 5536 0193 01       		.byte	0x1
 5537 0194 BB       		.byte	0xbb
 5538 0195 80000000 		.4byte	0x80
 5539 0199 02       		.uleb128 0x2
 5540 019a 91       		.byte	0x91
 5541 019b 77       		.sleb128 -9
 5542 019c 0A       		.uleb128 0xa
 5543 019d E4070000 		.4byte	.LASF28
 5544 01a1 01       		.byte	0x1
 5545 01a2 BB       		.byte	0xbb
 5546 01a3 80000000 		.4byte	0x80
 5547 01a7 02       		.uleb128 0x2
 5548 01a8 91       		.byte	0x91
 5549 01a9 76       		.sleb128 -10
 5550 01aa 0A       		.uleb128 0xa
 5551 01ab AE090000 		.4byte	.LASF29
 5552 01af 01       		.byte	0x1
 5553 01b0 BB       		.byte	0xbb
 5554 01b1 80000000 		.4byte	0x80
 5555 01b5 02       		.uleb128 0x2
 5556 01b6 91       		.byte	0x91
 5557 01b7 75       		.sleb128 -11
 5558 01b8 00       		.byte	0
 5559 01b9 0D       		.uleb128 0xd
 5560 01ba 28070000 		.4byte	.LASF31
 5561 01be 01       		.byte	0x1
 5562 01bf ED       		.byte	0xed
 5563 01c0 00000000 		.4byte	.LFB3
 5564 01c4 3A000000 		.4byte	.LFE3-.LFB3
 5565 01c8 01       		.uleb128 0x1
 5566 01c9 9C       		.byte	0x9c
 5567 01ca DD010000 		.4byte	0x1dd
 5568 01ce 0A       		.uleb128 0xa
 5569 01cf EF070000 		.4byte	.LASF32
 5570 01d3 01       		.byte	0x1
 5571 01d4 ED       		.byte	0xed
 5572 01d5 80000000 		.4byte	0x80
 5573 01d9 02       		.uleb128 0x2
 5574 01da 91       		.byte	0x91
 5575 01db 77       		.sleb128 -9
 5576 01dc 00       		.byte	0
 5577 01dd 0E       		.uleb128 0xe
 5578 01de 1D050000 		.4byte	.LASF33
 5579 01e2 01       		.byte	0x1
 5580 01e3 1A01     		.2byte	0x11a
 5581 01e5 00000000 		.4byte	.LFB4
 5582 01e9 94000000 		.4byte	.LFE4-.LFB4
 5583 01ed 01       		.uleb128 0x1
 5584 01ee 9C       		.byte	0x9c
 5585 01ef 30020000 		.4byte	0x230
 5586 01f3 0F       		.uleb128 0xf
 5587 01f4 9E060000 		.4byte	.LASF26
 5588 01f8 01       		.byte	0x1
 5589 01f9 1A01     		.2byte	0x11a
 5590 01fb 80000000 		.4byte	0x80
 5591 01ff 02       		.uleb128 0x2
 5592 0200 91       		.byte	0x91
ARM GAS  C:\Users\ben\AppData\Local\Temp\ccnBLHGm.s 			page 151


 5593 0201 6F       		.sleb128 -17
 5594 0202 10       		.uleb128 0x10
 5595 0203 E2000000 		.4byte	.LASF34
 5596 0207 01       		.byte	0x1
 5597 0208 1C01     		.2byte	0x11c
 5598 020a 80000000 		.4byte	0x80
 5599 020e 02       		.uleb128 0x2
 5600 020f 91       		.byte	0x91
 5601 0210 75       		.sleb128 -11
 5602 0211 10       		.uleb128 0x10
 5603 0212 88090000 		.4byte	.LASF35
 5604 0216 01       		.byte	0x1
 5605 0217 1D01     		.2byte	0x11d
 5606 0219 80000000 		.4byte	0x80
 5607 021d 02       		.uleb128 0x2
 5608 021e 91       		.byte	0x91
 5609 021f 76       		.sleb128 -10
 5610 0220 10       		.uleb128 0x10
 5611 0221 46080000 		.4byte	.LASF36
 5612 0225 01       		.byte	0x1
 5613 0226 1E01     		.2byte	0x11e
 5614 0228 80000000 		.4byte	0x80
 5615 022c 02       		.uleb128 0x2
 5616 022d 91       		.byte	0x91
 5617 022e 77       		.sleb128 -9
 5618 022f 00       		.byte	0
 5619 0230 11       		.uleb128 0x11
 5620 0231 2B030000 		.4byte	.LASF38
 5621 0235 01       		.byte	0x1
 5622 0236 4401     		.2byte	0x144
 5623 0238 00000000 		.4byte	.LFB5
 5624 023c 34000000 		.4byte	.LFE5-.LFB5
 5625 0240 01       		.uleb128 0x1
 5626 0241 9C       		.byte	0x9c
 5627 0242 12       		.uleb128 0x12
 5628 0243 9B030000 		.4byte	.LASF164
 5629 0247 01       		.byte	0x1
 5630 0248 5501     		.2byte	0x155
 5631 024a 80000000 		.4byte	0x80
 5632 024e 00000000 		.4byte	.LFB6
 5633 0252 60000000 		.4byte	.LFE6-.LFB6
 5634 0256 01       		.uleb128 0x1
 5635 0257 9C       		.byte	0x9c
 5636 0258 6C020000 		.4byte	0x26c
 5637 025c 10       		.uleb128 0x10
 5638 025d 20040000 		.4byte	.LASF39
 5639 0261 01       		.byte	0x1
 5640 0262 5701     		.2byte	0x157
 5641 0264 80000000 		.4byte	0x80
 5642 0268 02       		.uleb128 0x2
 5643 0269 91       		.byte	0x91
 5644 026a 77       		.sleb128 -9
 5645 026b 00       		.byte	0
 5646 026c 13       		.uleb128 0x13
 5647 026d 37000000 		.4byte	.LASF51
 5648 0271 01       		.byte	0x1
 5649 0272 6F01     		.2byte	0x16f
ARM GAS  C:\Users\ben\AppData\Local\Temp\ccnBLHGm.s 			page 152


 5650 0274 00000000 		.4byte	.LFB7
 5651 0278 00010000 		.4byte	.LFE7-.LFB7
 5652 027c 01       		.uleb128 0x1
 5653 027d 9C       		.byte	0x9c
 5654 027e A1020000 		.4byte	0x2a1
 5655 0282 0F       		.uleb128 0xf
 5656 0283 96030000 		.4byte	.LASF40
 5657 0287 01       		.byte	0x1
 5658 0288 6F01     		.2byte	0x16f
 5659 028a 80000000 		.4byte	0x80
 5660 028e 02       		.uleb128 0x2
 5661 028f 91       		.byte	0x91
 5662 0290 6F       		.sleb128 -17
 5663 0291 10       		.uleb128 0x10
 5664 0292 1D070000 		.4byte	.LASF41
 5665 0296 01       		.byte	0x1
 5666 0297 7101     		.2byte	0x171
 5667 0299 80000000 		.4byte	0x80
 5668 029d 02       		.uleb128 0x2
 5669 029e 91       		.byte	0x91
 5670 029f 77       		.sleb128 -9
 5671 02a0 00       		.byte	0
 5672 02a1 0E       		.uleb128 0xe
 5673 02a2 FC010000 		.4byte	.LASF42
 5674 02a6 01       		.byte	0x1
 5675 02a7 C901     		.2byte	0x1c9
 5676 02a9 00000000 		.4byte	.LFB8
 5677 02ad A0010000 		.4byte	.LFE8-.LFB8
 5678 02b1 01       		.uleb128 0x1
 5679 02b2 9C       		.byte	0x9c
 5680 02b3 E5020000 		.4byte	0x2e5
 5681 02b7 0F       		.uleb128 0xf
 5682 02b8 96030000 		.4byte	.LASF40
 5683 02bc 01       		.byte	0x1
 5684 02bd C901     		.2byte	0x1c9
 5685 02bf 80000000 		.4byte	0x80
 5686 02c3 02       		.uleb128 0x2
 5687 02c4 91       		.byte	0x91
 5688 02c5 6F       		.sleb128 -17
 5689 02c6 10       		.uleb128 0x10
 5690 02c7 6F030000 		.4byte	.LASF43
 5691 02cb 01       		.byte	0x1
 5692 02cc CB01     		.2byte	0x1cb
 5693 02ce 80000000 		.4byte	0x80
 5694 02d2 02       		.uleb128 0x2
 5695 02d3 91       		.byte	0x91
 5696 02d4 77       		.sleb128 -9
 5697 02d5 10       		.uleb128 0x10
 5698 02d6 5D020000 		.4byte	.LASF44
 5699 02da 01       		.byte	0x1
 5700 02db CC01     		.2byte	0x1cc
 5701 02dd 80000000 		.4byte	0x80
 5702 02e1 02       		.uleb128 0x2
 5703 02e2 91       		.byte	0x91
 5704 02e3 76       		.sleb128 -10
 5705 02e4 00       		.byte	0
 5706 02e5 14       		.uleb128 0x14
ARM GAS  C:\Users\ben\AppData\Local\Temp\ccnBLHGm.s 			page 153


 5707 02e6 95090000 		.4byte	.LASF45
 5708 02ea 01       		.byte	0x1
 5709 02eb 5F02     		.2byte	0x25f
 5710 02ed 00000000 		.4byte	.LFB9
 5711 02f1 88000000 		.4byte	.LFE9-.LFB9
 5712 02f5 01       		.uleb128 0x1
 5713 02f6 9C       		.byte	0x9c
 5714 02f7 0B030000 		.4byte	0x30b
 5715 02fb 0F       		.uleb128 0xf
 5716 02fc EF070000 		.4byte	.LASF32
 5717 0300 01       		.byte	0x1
 5718 0301 5F02     		.2byte	0x25f
 5719 0303 80000000 		.4byte	0x80
 5720 0307 02       		.uleb128 0x2
 5721 0308 91       		.byte	0x91
 5722 0309 77       		.sleb128 -9
 5723 030a 00       		.byte	0
 5724 030b 11       		.uleb128 0x11
 5725 030c 7C010000 		.4byte	.LASF46
 5726 0310 01       		.byte	0x1
 5727 0311 8102     		.2byte	0x281
 5728 0313 00000000 		.4byte	.LFB10
 5729 0317 20000000 		.4byte	.LFE10-.LFB10
 5730 031b 01       		.uleb128 0x1
 5731 031c 9C       		.byte	0x9c
 5732 031d 11       		.uleb128 0x11
 5733 031e DB060000 		.4byte	.LASF47
 5734 0322 01       		.byte	0x1
 5735 0323 8F02     		.2byte	0x28f
 5736 0325 00000000 		.4byte	.LFB11
 5737 0329 20000000 		.4byte	.LFE11-.LFB11
 5738 032d 01       		.uleb128 0x1
 5739 032e 9C       		.byte	0x9c
 5740 032f 14       		.uleb128 0x14
 5741 0330 B5060000 		.4byte	.LASF48
 5742 0334 01       		.byte	0x1
 5743 0335 AD02     		.2byte	0x2ad
 5744 0337 00000000 		.4byte	.LFB12
 5745 033b 34000000 		.4byte	.LFE12-.LFB12
 5746 033f 01       		.uleb128 0x1
 5747 0340 9C       		.byte	0x9c
 5748 0341 55030000 		.4byte	0x355
 5749 0345 0F       		.uleb128 0xf
 5750 0346 EF070000 		.4byte	.LASF32
 5751 034a 01       		.byte	0x1
 5752 034b AD02     		.2byte	0x2ad
 5753 034d 80000000 		.4byte	0x80
 5754 0351 02       		.uleb128 0x2
 5755 0352 91       		.byte	0x91
 5756 0353 77       		.sleb128 -9
 5757 0354 00       		.byte	0
 5758 0355 14       		.uleb128 0x14
 5759 0356 24020000 		.4byte	.LASF49
 5760 035a 01       		.byte	0x1
 5761 035b CB02     		.2byte	0x2cb
 5762 035d 00000000 		.4byte	.LFB13
 5763 0361 20000000 		.4byte	.LFE13-.LFB13
ARM GAS  C:\Users\ben\AppData\Local\Temp\ccnBLHGm.s 			page 154


 5764 0365 01       		.uleb128 0x1
 5765 0366 9C       		.byte	0x9c
 5766 0367 7B030000 		.4byte	0x37b
 5767 036b 0F       		.uleb128 0xf
 5768 036c 59070000 		.4byte	.LASF50
 5769 0370 01       		.byte	0x1
 5770 0371 CB02     		.2byte	0x2cb
 5771 0373 80000000 		.4byte	0x80
 5772 0377 02       		.uleb128 0x2
 5773 0378 91       		.byte	0x91
 5774 0379 77       		.sleb128 -9
 5775 037a 00       		.byte	0
 5776 037b 15       		.uleb128 0x15
 5777 037c F2020000 		.4byte	.LASF52
 5778 0380 01       		.byte	0x1
 5779 0381 DC02     		.2byte	0x2dc
 5780 0383 00000000 		.4byte	.LFB14
 5781 0387 78000000 		.4byte	.LFE14-.LFB14
 5782 038b 01       		.uleb128 0x1
 5783 038c 9C       		.byte	0x9c
 5784 038d A1030000 		.4byte	0x3a1
 5785 0391 0F       		.uleb128 0xf
 5786 0392 59070000 		.4byte	.LASF50
 5787 0396 01       		.byte	0x1
 5788 0397 DC02     		.2byte	0x2dc
 5789 0399 8C000000 		.4byte	0x8c
 5790 039d 02       		.uleb128 0x2
 5791 039e 91       		.byte	0x91
 5792 039f 76       		.sleb128 -10
 5793 03a0 00       		.byte	0
 5794 03a1 0E       		.uleb128 0xe
 5795 03a2 87080000 		.4byte	.LASF53
 5796 03a6 01       		.byte	0x1
 5797 03a7 0603     		.2byte	0x306
 5798 03a9 00000000 		.4byte	.LFB15
 5799 03ad B4000000 		.4byte	.LFE15-.LFB15
 5800 03b1 01       		.uleb128 0x1
 5801 03b2 9C       		.byte	0x9c
 5802 03b3 F4030000 		.4byte	0x3f4
 5803 03b7 0F       		.uleb128 0xf
 5804 03b8 59070000 		.4byte	.LASF50
 5805 03bc 01       		.byte	0x1
 5806 03bd 0603     		.2byte	0x306
 5807 03bf 8C000000 		.4byte	0x8c
 5808 03c3 02       		.uleb128 0x2
 5809 03c4 91       		.byte	0x91
 5810 03c5 6E       		.sleb128 -18
 5811 03c6 10       		.uleb128 0x10
 5812 03c7 FC000000 		.4byte	.LASF54
 5813 03cb 01       		.byte	0x1
 5814 03cc 0803     		.2byte	0x308
 5815 03ce 80000000 		.4byte	0x80
 5816 03d2 02       		.uleb128 0x2
 5817 03d3 91       		.byte	0x91
 5818 03d4 73       		.sleb128 -13
 5819 03d5 10       		.uleb128 0x10
 5820 03d6 65030000 		.4byte	.LASF55
ARM GAS  C:\Users\ben\AppData\Local\Temp\ccnBLHGm.s 			page 155


 5821 03da 01       		.byte	0x1
 5822 03db 0903     		.2byte	0x309
 5823 03dd 8C000000 		.4byte	0x8c
 5824 03e1 02       		.uleb128 0x2
 5825 03e2 91       		.byte	0x91
 5826 03e3 74       		.sleb128 -12
 5827 03e4 10       		.uleb128 0x10
 5828 03e5 2D010000 		.4byte	.LASF56
 5829 03e9 01       		.byte	0x1
 5830 03ea 0A03     		.2byte	0x30a
 5831 03ec 80000000 		.4byte	0x80
 5832 03f0 02       		.uleb128 0x2
 5833 03f1 91       		.byte	0x91
 5834 03f2 77       		.sleb128 -9
 5835 03f3 00       		.byte	0
 5836 03f4 14       		.uleb128 0x14
 5837 03f5 EB080000 		.4byte	.LASF57
 5838 03f9 01       		.byte	0x1
 5839 03fa 6003     		.2byte	0x360
 5840 03fc 00000000 		.4byte	.LFB16
 5841 0400 34000000 		.4byte	.LFE16-.LFB16
 5842 0404 01       		.uleb128 0x1
 5843 0405 9C       		.byte	0x9c
 5844 0406 1A040000 		.4byte	0x41a
 5845 040a 0F       		.uleb128 0xf
 5846 040b EF070000 		.4byte	.LASF32
 5847 040f 01       		.byte	0x1
 5848 0410 6003     		.2byte	0x360
 5849 0412 80000000 		.4byte	0x80
 5850 0416 02       		.uleb128 0x2
 5851 0417 91       		.byte	0x91
 5852 0418 77       		.sleb128 -9
 5853 0419 00       		.byte	0
 5854 041a 11       		.uleb128 0x11
 5855 041b 88030000 		.4byte	.LASF58
 5856 041f 01       		.byte	0x1
 5857 0420 7203     		.2byte	0x372
 5858 0422 00000000 		.4byte	.LFB17
 5859 0426 20000000 		.4byte	.LFE17-.LFB17
 5860 042a 01       		.uleb128 0x1
 5861 042b 9C       		.byte	0x9c
 5862 042c 11       		.uleb128 0x11
 5863 042d 59010000 		.4byte	.LASF59
 5864 0431 01       		.byte	0x1
 5865 0432 8703     		.2byte	0x387
 5866 0434 00000000 		.4byte	.LFB18
 5867 0438 20000000 		.4byte	.LFE18-.LFB18
 5868 043c 01       		.uleb128 0x1
 5869 043d 9C       		.byte	0x9c
 5870 043e 11       		.uleb128 0x11
 5871 043f CB060000 		.4byte	.LASF60
 5872 0443 01       		.byte	0x1
 5873 0444 9503     		.2byte	0x395
 5874 0446 00000000 		.4byte	.LFB19
 5875 044a 20000000 		.4byte	.LFE19-.LFB19
 5876 044e 01       		.uleb128 0x1
 5877 044f 9C       		.byte	0x9c
ARM GAS  C:\Users\ben\AppData\Local\Temp\ccnBLHGm.s 			page 156


 5878 0450 11       		.uleb128 0x11
 5879 0451 21090000 		.4byte	.LASF61
 5880 0455 01       		.byte	0x1
 5881 0456 A203     		.2byte	0x3a2
 5882 0458 00000000 		.4byte	.LFB20
 5883 045c 20000000 		.4byte	.LFE20-.LFB20
 5884 0460 01       		.uleb128 0x1
 5885 0461 9C       		.byte	0x9c
 5886 0462 11       		.uleb128 0x11
 5887 0463 B6090000 		.4byte	.LASF62
 5888 0467 01       		.byte	0x1
 5889 0468 B203     		.2byte	0x3b2
 5890 046a 00000000 		.4byte	.LFB21
 5891 046e 20000000 		.4byte	.LFE21-.LFB21
 5892 0472 01       		.uleb128 0x1
 5893 0473 9C       		.byte	0x9c
 5894 0474 11       		.uleb128 0x11
 5895 0475 B5000000 		.4byte	.LASF63
 5896 0479 01       		.byte	0x1
 5897 047a C303     		.2byte	0x3c3
 5898 047c 00000000 		.4byte	.LFB22
 5899 0480 20000000 		.4byte	.LFE22-.LFB22
 5900 0484 01       		.uleb128 0x1
 5901 0485 9C       		.byte	0x9c
 5902 0486 14       		.uleb128 0x14
 5903 0487 D5040000 		.4byte	.LASF64
 5904 048b 01       		.byte	0x1
 5905 048c D603     		.2byte	0x3d6
 5906 048e 00000000 		.4byte	.LFB23
 5907 0492 38000000 		.4byte	.LFE23-.LFB23
 5908 0496 01       		.uleb128 0x1
 5909 0497 9C       		.byte	0x9c
 5910 0498 AC040000 		.4byte	0x4ac
 5911 049c 0F       		.uleb128 0xf
 5912 049d EF070000 		.4byte	.LASF32
 5913 04a1 01       		.byte	0x1
 5914 04a2 D603     		.2byte	0x3d6
 5915 04a4 80000000 		.4byte	0x80
 5916 04a8 02       		.uleb128 0x2
 5917 04a9 91       		.byte	0x91
 5918 04aa 77       		.sleb128 -9
 5919 04ab 00       		.byte	0
 5920 04ac 16       		.uleb128 0x16
 5921 04ad 29050000 		.4byte	.LASF66
 5922 04b1 01       		.byte	0x1
 5923 04b2 EB03     		.2byte	0x3eb
 5924 04b4 80000000 		.4byte	0x80
 5925 04b8 00000000 		.4byte	.LFB24
 5926 04bc 4C000000 		.4byte	.LFE24-.LFB24
 5927 04c0 01       		.uleb128 0x1
 5928 04c1 9C       		.byte	0x9c
 5929 04c2 E5040000 		.4byte	0x4e5
 5930 04c6 0F       		.uleb128 0xf
 5931 04c7 66010000 		.4byte	.LASF67
 5932 04cb 01       		.byte	0x1
 5933 04cc EB03     		.2byte	0x3eb
 5934 04ce 80000000 		.4byte	0x80
ARM GAS  C:\Users\ben\AppData\Local\Temp\ccnBLHGm.s 			page 157


 5935 04d2 02       		.uleb128 0x2
 5936 04d3 91       		.byte	0x91
 5937 04d4 6F       		.sleb128 -17
 5938 04d5 10       		.uleb128 0x10
 5939 04d6 FE080000 		.4byte	.LASF68
 5940 04da 01       		.byte	0x1
 5941 04db ED03     		.2byte	0x3ed
 5942 04dd 80000000 		.4byte	0x80
 5943 04e1 02       		.uleb128 0x2
 5944 04e2 91       		.byte	0x91
 5945 04e3 77       		.sleb128 -9
 5946 04e4 00       		.byte	0
 5947 04e5 0E       		.uleb128 0xe
 5948 04e6 9F020000 		.4byte	.LASF69
 5949 04ea 01       		.byte	0x1
 5950 04eb 0804     		.2byte	0x408
 5951 04ed 00000000 		.4byte	.LFB25
 5952 04f1 84000000 		.4byte	.LFE25-.LFB25
 5953 04f5 01       		.uleb128 0x1
 5954 04f6 9C       		.byte	0x9c
 5955 04f7 09050000 		.4byte	0x509
 5956 04fb 17       		.uleb128 0x17
 5957 04fc 6900     		.ascii	"i\000"
 5958 04fe 01       		.byte	0x1
 5959 04ff 0A04     		.2byte	0x40a
 5960 0501 DB000000 		.4byte	0xdb
 5961 0505 02       		.uleb128 0x2
 5962 0506 91       		.byte	0x91
 5963 0507 76       		.sleb128 -10
 5964 0508 00       		.byte	0
 5965 0509 11       		.uleb128 0x11
 5966 050a A3060000 		.4byte	.LASF70
 5967 050e 01       		.byte	0x1
 5968 050f 2D04     		.2byte	0x42d
 5969 0511 00000000 		.4byte	.LFB26
 5970 0515 50000000 		.4byte	.LFE26-.LFB26
 5971 0519 01       		.uleb128 0x1
 5972 051a 9C       		.byte	0x9c
 5973 051b 18       		.uleb128 0x18
 5974 051c 63060000 		.4byte	.LASF80
 5975 0520 01       		.byte	0x1
 5976 0521 4804     		.2byte	0x448
 5977 0523 80000000 		.4byte	0x80
 5978 0527 00000000 		.4byte	.LFB27
 5979 052b 20000000 		.4byte	.LFE27-.LFB27
 5980 052f 01       		.uleb128 0x1
 5981 0530 9C       		.byte	0x9c
 5982 0531 19       		.uleb128 0x19
 5983 0532 BF020000 		.4byte	.LASF71
 5984 0536 01       		.byte	0x1
 5985 0537 5E04     		.2byte	0x45e
 5986 0539 80000000 		.4byte	0x80
 5987 053d 00000000 		.4byte	.LFB28
 5988 0541 B4000000 		.4byte	.LFE28-.LFB28
 5989 0545 01       		.uleb128 0x1
 5990 0546 9C       		.byte	0x9c
 5991 0547 6A050000 		.4byte	0x56a
ARM GAS  C:\Users\ben\AppData\Local\Temp\ccnBLHGm.s 			page 158


 5992 054b 0F       		.uleb128 0xf
 5993 054c 66010000 		.4byte	.LASF67
 5994 0550 01       		.byte	0x1
 5995 0551 5E04     		.2byte	0x45e
 5996 0553 80000000 		.4byte	0x80
 5997 0557 02       		.uleb128 0x2
 5998 0558 91       		.byte	0x91
 5999 0559 6F       		.sleb128 -17
 6000 055a 10       		.uleb128 0x10
 6001 055b FE080000 		.4byte	.LASF68
 6002 055f 01       		.byte	0x1
 6003 0560 6004     		.2byte	0x460
 6004 0562 80000000 		.4byte	0x80
 6005 0566 02       		.uleb128 0x2
 6006 0567 91       		.byte	0x91
 6007 0568 77       		.sleb128 -9
 6008 0569 00       		.byte	0
 6009 056a 19       		.uleb128 0x19
 6010 056b B2020000 		.4byte	.LASF72
 6011 056f 01       		.byte	0x1
 6012 0570 9E04     		.2byte	0x49e
 6013 0572 B2000000 		.4byte	0xb2
 6014 0576 00000000 		.4byte	.LFB29
 6015 057a D0000000 		.4byte	.LFE29-.LFB29
 6016 057e 01       		.uleb128 0x1
 6017 057f 9C       		.byte	0x9c
 6018 0580 EE050000 		.4byte	0x5ee
 6019 0584 0F       		.uleb128 0xf
 6020 0585 9E060000 		.4byte	.LASF26
 6021 0589 01       		.byte	0x1
 6022 058a 9E04     		.2byte	0x49e
 6023 058c 80000000 		.4byte	0x80
 6024 0590 02       		.uleb128 0x2
 6025 0591 91       		.byte	0x91
 6026 0592 67       		.sleb128 -25
 6027 0593 10       		.uleb128 0x10
 6028 0594 39040000 		.4byte	.LASF22
 6029 0598 01       		.byte	0x1
 6030 0599 A004     		.2byte	0x4a0
 6031 059b B2000000 		.4byte	0xb2
 6032 059f 02       		.uleb128 0x2
 6033 05a0 91       		.byte	0x91
 6034 05a1 74       		.sleb128 -12
 6035 05a2 10       		.uleb128 0x10
 6036 05a3 CF080000 		.4byte	.LASF73
 6037 05a7 01       		.byte	0x1
 6038 05a8 A104     		.2byte	0x4a1
 6039 05aa CA000000 		.4byte	0xca
 6040 05ae 02       		.uleb128 0x2
 6041 05af 91       		.byte	0x91
 6042 05b0 70       		.sleb128 -16
 6043 05b1 10       		.uleb128 0x10
 6044 05b2 CD030000 		.4byte	.LASF74
 6045 05b6 01       		.byte	0x1
 6046 05b7 A204     		.2byte	0x4a2
 6047 05b9 CA000000 		.4byte	0xca
 6048 05bd 02       		.uleb128 0x2
ARM GAS  C:\Users\ben\AppData\Local\Temp\ccnBLHGm.s 			page 159


 6049 05be 91       		.byte	0x91
 6050 05bf 6F       		.sleb128 -17
 6051 05c0 10       		.uleb128 0x10
 6052 05c1 D3090000 		.4byte	.LASF23
 6053 05c5 01       		.byte	0x1
 6054 05c6 A304     		.2byte	0x4a3
 6055 05c8 80000000 		.4byte	0x80
 6056 05cc 02       		.uleb128 0x2
 6057 05cd 91       		.byte	0x91
 6058 05ce 73       		.sleb128 -13
 6059 05cf 10       		.uleb128 0x10
 6060 05d0 D6000000 		.4byte	.LASF75
 6061 05d4 01       		.byte	0x1
 6062 05d5 A404     		.2byte	0x4a4
 6063 05d7 80000000 		.4byte	0x80
 6064 05db 02       		.uleb128 0x2
 6065 05dc 91       		.byte	0x91
 6066 05dd 72       		.sleb128 -14
 6067 05de 10       		.uleb128 0x10
 6068 05df 12020000 		.4byte	.LASF76
 6069 05e3 01       		.byte	0x1
 6070 05e4 A504     		.2byte	0x4a5
 6071 05e6 80000000 		.4byte	0x80
 6072 05ea 02       		.uleb128 0x2
 6073 05eb 91       		.byte	0x91
 6074 05ec 71       		.sleb128 -15
 6075 05ed 00       		.byte	0
 6076 05ee 11       		.uleb128 0x11
 6077 05ef BD010000 		.4byte	.LASF77
 6078 05f3 01       		.byte	0x1
 6079 05f4 E704     		.2byte	0x4e7
 6080 05f6 00000000 		.4byte	.LFB30
 6081 05fa 20000000 		.4byte	.LFE30-.LFB30
 6082 05fe 01       		.uleb128 0x1
 6083 05ff 9C       		.byte	0x9c
 6084 0600 11       		.uleb128 0x11
 6085 0601 0A060000 		.4byte	.LASF78
 6086 0605 01       		.byte	0x1
 6087 0606 F604     		.2byte	0x4f6
 6088 0608 00000000 		.4byte	.LFB31
 6089 060c 20000000 		.4byte	.LFE31-.LFB31
 6090 0610 01       		.uleb128 0x1
 6091 0611 9C       		.byte	0x9c
 6092 0612 11       		.uleb128 0x11
 6093 0613 09010000 		.4byte	.LASF79
 6094 0617 01       		.byte	0x1
 6095 0618 0505     		.2byte	0x505
 6096 061a 00000000 		.4byte	.LFB32
 6097 061e 20000000 		.4byte	.LFE32-.LFB32
 6098 0622 01       		.uleb128 0x1
 6099 0623 9C       		.byte	0x9c
 6100 0624 18       		.uleb128 0x18
 6101 0625 4A000000 		.4byte	.LASF81
 6102 0629 01       		.byte	0x1
 6103 062a 1905     		.2byte	0x519
 6104 062c 80000000 		.4byte	0x80
 6105 0630 00000000 		.4byte	.LFB33
ARM GAS  C:\Users\ben\AppData\Local\Temp\ccnBLHGm.s 			page 160


 6106 0634 28000000 		.4byte	.LFE33-.LFB33
 6107 0638 01       		.uleb128 0x1
 6108 0639 9C       		.byte	0x9c
 6109 063a 11       		.uleb128 0x11
 6110 063b 30090000 		.4byte	.LASF82
 6111 063f 01       		.byte	0x1
 6112 0640 2D05     		.2byte	0x52d
 6113 0642 00000000 		.4byte	.LFB34
 6114 0646 20000000 		.4byte	.LFE34-.LFB34
 6115 064a 01       		.uleb128 0x1
 6116 064b 9C       		.byte	0x9c
 6117 064c 11       		.uleb128 0x11
 6118 064d D6010000 		.4byte	.LASF83
 6119 0651 01       		.byte	0x1
 6120 0652 3C05     		.2byte	0x53c
 6121 0654 00000000 		.4byte	.LFB35
 6122 0658 20000000 		.4byte	.LFE35-.LFB35
 6123 065c 01       		.uleb128 0x1
 6124 065d 9C       		.byte	0x9c
 6125 065e 14       		.uleb128 0x14
 6126 065f 47010000 		.4byte	.LASF84
 6127 0663 01       		.byte	0x1
 6128 0664 5105     		.2byte	0x551
 6129 0666 00000000 		.4byte	.LFB36
 6130 066a 34000000 		.4byte	.LFE36-.LFB36
 6131 066e 01       		.uleb128 0x1
 6132 066f 9C       		.byte	0x9c
 6133 0670 84060000 		.4byte	0x684
 6134 0674 0F       		.uleb128 0xf
 6135 0675 0A020000 		.4byte	.LASF85
 6136 0679 01       		.byte	0x1
 6137 067a 5105     		.2byte	0x551
 6138 067c 80000000 		.4byte	0x80
 6139 0680 02       		.uleb128 0x2
 6140 0681 91       		.byte	0x91
 6141 0682 77       		.sleb128 -9
 6142 0683 00       		.byte	0
 6143 0684 14       		.uleb128 0x14
 6144 0685 4B090000 		.4byte	.LASF86
 6145 0689 01       		.byte	0x1
 6146 068a 6405     		.2byte	0x564
 6147 068c 00000000 		.4byte	.LFB37
 6148 0690 34000000 		.4byte	.LFE37-.LFB37
 6149 0694 01       		.uleb128 0x1
 6150 0695 9C       		.byte	0x9c
 6151 0696 AA060000 		.4byte	0x6aa
 6152 069a 0F       		.uleb128 0xf
 6153 069b 0A020000 		.4byte	.LASF85
 6154 069f 01       		.byte	0x1
 6155 06a0 6405     		.2byte	0x564
 6156 06a2 80000000 		.4byte	0x80
 6157 06a6 02       		.uleb128 0x2
 6158 06a7 91       		.byte	0x91
 6159 06a8 77       		.sleb128 -9
 6160 06a9 00       		.byte	0
 6161 06aa 14       		.uleb128 0x14
 6162 06ab 09050000 		.4byte	.LASF87
ARM GAS  C:\Users\ben\AppData\Local\Temp\ccnBLHGm.s 			page 161


 6163 06af 01       		.byte	0x1
 6164 06b0 7605     		.2byte	0x576
 6165 06b2 00000000 		.4byte	.LFB38
 6166 06b6 38000000 		.4byte	.LFE38-.LFB38
 6167 06ba 01       		.uleb128 0x1
 6168 06bb 9C       		.byte	0x9c
 6169 06bc D0060000 		.4byte	0x6d0
 6170 06c0 0F       		.uleb128 0xf
 6171 06c1 0A020000 		.4byte	.LASF85
 6172 06c5 01       		.byte	0x1
 6173 06c6 7605     		.2byte	0x576
 6174 06c8 80000000 		.4byte	0x80
 6175 06cc 02       		.uleb128 0x2
 6176 06cd 91       		.byte	0x91
 6177 06ce 77       		.sleb128 -9
 6178 06cf 00       		.byte	0
 6179 06d0 14       		.uleb128 0x14
 6180 06d1 E4080000 		.4byte	.LASF88
 6181 06d5 01       		.byte	0x1
 6182 06d6 8605     		.2byte	0x586
 6183 06d8 00000000 		.4byte	.LFB39
 6184 06dc 16000000 		.4byte	.LFE39-.LFB39
 6185 06e0 01       		.uleb128 0x1
 6186 06e1 9C       		.byte	0x9c
 6187 06e2 F6060000 		.4byte	0x6f6
 6188 06e6 0F       		.uleb128 0xf
 6189 06e7 98020000 		.4byte	.LASF89
 6190 06eb 01       		.byte	0x1
 6191 06ec 8605     		.2byte	0x586
 6192 06ee 80000000 		.4byte	0x80
 6193 06f2 02       		.uleb128 0x2
 6194 06f3 91       		.byte	0x91
 6195 06f4 77       		.sleb128 -9
 6196 06f5 00       		.byte	0
 6197 06f6 11       		.uleb128 0x11
 6198 06f7 6E080000 		.4byte	.LASF90
 6199 06fb 01       		.byte	0x1
 6200 06fc 9E05     		.2byte	0x59e
 6201 06fe 00000000 		.4byte	.LFB40
 6202 0702 20000000 		.4byte	.LFE40-.LFB40
 6203 0706 01       		.uleb128 0x1
 6204 0707 9C       		.byte	0x9c
 6205 0708 0E       		.uleb128 0xe
 6206 0709 1E000000 		.4byte	.LASF91
 6207 070d 01       		.byte	0x1
 6208 070e B305     		.2byte	0x5b3
 6209 0710 00000000 		.4byte	.LFB41
 6210 0714 44000000 		.4byte	.LFE41-.LFB41
 6211 0718 01       		.uleb128 0x1
 6212 0719 9C       		.byte	0x9c
 6213 071a 2E070000 		.4byte	0x72e
 6214 071e 0F       		.uleb128 0xf
 6215 071f A8000000 		.4byte	.LASF92
 6216 0723 01       		.byte	0x1
 6217 0724 B305     		.2byte	0x5b3
 6218 0726 98000000 		.4byte	0x98
 6219 072a 02       		.uleb128 0x2
ARM GAS  C:\Users\ben\AppData\Local\Temp\ccnBLHGm.s 			page 162


 6220 072b 91       		.byte	0x91
 6221 072c 74       		.sleb128 -12
 6222 072d 00       		.byte	0
 6223 072e 0E       		.uleb128 0xe
 6224 072f 77020000 		.4byte	.LASF93
 6225 0733 01       		.byte	0x1
 6226 0734 DF05     		.2byte	0x5df
 6227 0736 00000000 		.4byte	.LFB42
 6228 073a 24000000 		.4byte	.LFE42-.LFB42
 6229 073e 01       		.uleb128 0x1
 6230 073f 9C       		.byte	0x9c
 6231 0740 54070000 		.4byte	0x754
 6232 0744 0F       		.uleb128 0xf
 6233 0745 D7080000 		.4byte	.LASF94
 6234 0749 01       		.byte	0x1
 6235 074a DF05     		.2byte	0x5df
 6236 074c 8C000000 		.4byte	0x8c
 6237 0750 02       		.uleb128 0x2
 6238 0751 91       		.byte	0x91
 6239 0752 76       		.sleb128 -10
 6240 0753 00       		.byte	0
 6241 0754 14       		.uleb128 0x14
 6242 0755 6A070000 		.4byte	.LASF95
 6243 0759 01       		.byte	0x1
 6244 075a F005     		.2byte	0x5f0
 6245 075c 00000000 		.4byte	.LFB43
 6246 0760 7C000000 		.4byte	.LFE43-.LFB43
 6247 0764 01       		.uleb128 0x1
 6248 0765 9C       		.byte	0x9c
 6249 0766 7A070000 		.4byte	0x77a
 6250 076a 0F       		.uleb128 0xf
 6251 076b 96030000 		.4byte	.LASF40
 6252 076f 01       		.byte	0x1
 6253 0770 F005     		.2byte	0x5f0
 6254 0772 98000000 		.4byte	0x98
 6255 0776 02       		.uleb128 0x2
 6256 0777 91       		.byte	0x91
 6257 0778 74       		.sleb128 -12
 6258 0779 00       		.byte	0
 6259 077a 14       		.uleb128 0x14
 6260 077b 93060000 		.4byte	.LASF96
 6261 077f 01       		.byte	0x1
 6262 0780 2A06     		.2byte	0x62a
 6263 0782 00000000 		.4byte	.LFB44
 6264 0786 8C000000 		.4byte	.LFE44-.LFB44
 6265 078a 01       		.uleb128 0x1
 6266 078b 9C       		.byte	0x9c
 6267 078c AF070000 		.4byte	0x7af
 6268 0790 0F       		.uleb128 0xf
 6269 0791 41010000 		.4byte	.LASF97
 6270 0795 01       		.byte	0x1
 6271 0796 2A06     		.2byte	0x62a
 6272 0798 80000000 		.4byte	0x80
 6273 079c 02       		.uleb128 0x2
 6274 079d 91       		.byte	0x91
 6275 079e 77       		.sleb128 -9
 6276 079f 0F       		.uleb128 0xf
ARM GAS  C:\Users\ben\AppData\Local\Temp\ccnBLHGm.s 			page 163


 6277 07a0 26010000 		.4byte	.LASF98
 6278 07a4 01       		.byte	0x1
 6279 07a5 2A06     		.2byte	0x62a
 6280 07a7 80000000 		.4byte	0x80
 6281 07ab 02       		.uleb128 0x2
 6282 07ac 91       		.byte	0x91
 6283 07ad 76       		.sleb128 -10
 6284 07ae 00       		.byte	0
 6285 07af 11       		.uleb128 0x11
 6286 07b0 6D000000 		.4byte	.LASF99
 6287 07b4 01       		.byte	0x1
 6288 07b5 4306     		.2byte	0x643
 6289 07b7 00000000 		.4byte	.LFB45
 6290 07bb 18000000 		.4byte	.LFE45-.LFB45
 6291 07bf 01       		.uleb128 0x1
 6292 07c0 9C       		.byte	0x9c
 6293 07c1 0E       		.uleb128 0xe
 6294 07c2 40040000 		.4byte	.LASF100
 6295 07c6 01       		.byte	0x1
 6296 07c7 6F06     		.2byte	0x66f
 6297 07c9 00000000 		.4byte	.LFB46
 6298 07cd CC000000 		.4byte	.LFE46-.LFB46
 6299 07d1 01       		.uleb128 0x1
 6300 07d2 9C       		.byte	0x9c
 6301 07d3 14080000 		.4byte	0x814
 6302 07d7 0F       		.uleb128 0xf
 6303 07d8 E9070000 		.4byte	.LASF101
 6304 07dc 01       		.byte	0x1
 6305 07dd 6F06     		.2byte	0x66f
 6306 07df 80000000 		.4byte	0x80
 6307 07e3 02       		.uleb128 0x2
 6308 07e4 91       		.byte	0x91
 6309 07e5 6F       		.sleb128 -17
 6310 07e6 0F       		.uleb128 0xf
 6311 07e7 5F090000 		.4byte	.LASF102
 6312 07eb 01       		.byte	0x1
 6313 07ec 6F06     		.2byte	0x66f
 6314 07ee 80000000 		.4byte	0x80
 6315 07f2 02       		.uleb128 0x2
 6316 07f3 91       		.byte	0x91
 6317 07f4 6E       		.sleb128 -18
 6318 07f5 10       		.uleb128 0x10
 6319 07f6 F2010000 		.4byte	.LASF103
 6320 07fa 01       		.byte	0x1
 6321 07fb 7106     		.2byte	0x671
 6322 07fd 98000000 		.4byte	0x98
 6323 0801 02       		.uleb128 0x2
 6324 0802 91       		.byte	0x91
 6325 0803 70       		.sleb128 -16
 6326 0804 10       		.uleb128 0x10
 6327 0805 2D010000 		.4byte	.LASF56
 6328 0809 01       		.byte	0x1
 6329 080a 7206     		.2byte	0x672
 6330 080c 80000000 		.4byte	0x80
 6331 0810 02       		.uleb128 0x2
 6332 0811 91       		.byte	0x91
 6333 0812 77       		.sleb128 -9
ARM GAS  C:\Users\ben\AppData\Local\Temp\ccnBLHGm.s 			page 164


 6334 0813 00       		.byte	0
 6335 0814 0E       		.uleb128 0xe
 6336 0815 4B030000 		.4byte	.LASF104
 6337 0819 01       		.byte	0x1
 6338 081a BF06     		.2byte	0x6bf
 6339 081c 00000000 		.4byte	.LFB47
 6340 0820 C8000000 		.4byte	.LFE47-.LFB47
 6341 0824 01       		.uleb128 0x1
 6342 0825 9C       		.byte	0x9c
 6343 0826 67080000 		.4byte	0x867
 6344 082a 0F       		.uleb128 0xf
 6345 082b E9070000 		.4byte	.LASF101
 6346 082f 01       		.byte	0x1
 6347 0830 BF06     		.2byte	0x6bf
 6348 0832 80000000 		.4byte	0x80
 6349 0836 02       		.uleb128 0x2
 6350 0837 91       		.byte	0x91
 6351 0838 6F       		.sleb128 -17
 6352 0839 0F       		.uleb128 0xf
 6353 083a 5F090000 		.4byte	.LASF102
 6354 083e 01       		.byte	0x1
 6355 083f BF06     		.2byte	0x6bf
 6356 0841 80000000 		.4byte	0x80
 6357 0845 02       		.uleb128 0x2
 6358 0846 91       		.byte	0x91
 6359 0847 6E       		.sleb128 -18
 6360 0848 10       		.uleb128 0x10
 6361 0849 F2010000 		.4byte	.LASF103
 6362 084d 01       		.byte	0x1
 6363 084e C106     		.2byte	0x6c1
 6364 0850 98000000 		.4byte	0x98
 6365 0854 02       		.uleb128 0x2
 6366 0855 91       		.byte	0x91
 6367 0856 70       		.sleb128 -16
 6368 0857 10       		.uleb128 0x10
 6369 0858 2D010000 		.4byte	.LASF56
 6370 085c 01       		.byte	0x1
 6371 085d C206     		.2byte	0x6c2
 6372 085f 80000000 		.4byte	0x80
 6373 0863 02       		.uleb128 0x2
 6374 0864 91       		.byte	0x91
 6375 0865 77       		.sleb128 -9
 6376 0866 00       		.byte	0
 6377 0867 1A       		.uleb128 0x1a
 6378 0868 AA010000 		.4byte	.LASF105
 6379 086c 01       		.byte	0x1
 6380 086d F506     		.2byte	0x6f5
 6381 086f 00000000 		.4byte	.LFB48
 6382 0873 48000000 		.4byte	.LFE48-.LFB48
 6383 0877 01       		.uleb128 0x1
 6384 0878 9C       		.byte	0x9c
 6385 0879 1A       		.uleb128 0x1a
 6386 087a D0070000 		.4byte	.LASF106
 6387 087e 01       		.byte	0x1
 6388 087f 0E07     		.2byte	0x70e
 6389 0881 00000000 		.4byte	.LFB49
 6390 0885 40000000 		.4byte	.LFE49-.LFB49
ARM GAS  C:\Users\ben\AppData\Local\Temp\ccnBLHGm.s 			page 165


 6391 0889 01       		.uleb128 0x1
 6392 088a 9C       		.byte	0x9c
 6393 088b 0E       		.uleb128 0xe
 6394 088c C2040000 		.4byte	.LASF107
 6395 0890 01       		.byte	0x1
 6396 0891 2507     		.2byte	0x725
 6397 0893 00000000 		.4byte	.LFB50
 6398 0897 78000000 		.4byte	.LFE50-.LFB50
 6399 089b 01       		.uleb128 0x1
 6400 089c 9C       		.byte	0x9c
 6401 089d C0080000 		.4byte	0x8c0
 6402 08a1 10       		.uleb128 0x10
 6403 08a2 F2010000 		.4byte	.LASF103
 6404 08a6 01       		.byte	0x1
 6405 08a7 2707     		.2byte	0x727
 6406 08a9 98000000 		.4byte	0x98
 6407 08ad 02       		.uleb128 0x2
 6408 08ae 91       		.byte	0x91
 6409 08af 70       		.sleb128 -16
 6410 08b0 10       		.uleb128 0x10
 6411 08b1 2D010000 		.4byte	.LASF56
 6412 08b5 01       		.byte	0x1
 6413 08b6 2807     		.2byte	0x728
 6414 08b8 80000000 		.4byte	0x80
 6415 08bc 02       		.uleb128 0x2
 6416 08bd 91       		.byte	0x91
 6417 08be 77       		.sleb128 -9
 6418 08bf 00       		.byte	0
 6419 08c0 1A       		.uleb128 0x1a
 6420 08c1 E8090000 		.4byte	.LASF108
 6421 08c5 01       		.byte	0x1
 6422 08c6 5107     		.2byte	0x751
 6423 08c8 00000000 		.4byte	.LFB51
 6424 08cc 2C000000 		.4byte	.LFE51-.LFB51
 6425 08d0 01       		.uleb128 0x1
 6426 08d1 9C       		.byte	0x9c
 6427 08d2 19       		.uleb128 0x19
 6428 08d3 35080000 		.4byte	.LASF109
 6429 08d7 01       		.byte	0x1
 6430 08d8 7507     		.2byte	0x775
 6431 08da 80000000 		.4byte	0x80
 6432 08de 00000000 		.4byte	.LFB52
 6433 08e2 5C000000 		.4byte	.LFE52-.LFB52
 6434 08e6 01       		.uleb128 0x1
 6435 08e7 9C       		.byte	0x9c
 6436 08e8 2C090000 		.4byte	0x92c
 6437 08ec 0F       		.uleb128 0xf
 6438 08ed 21010000 		.4byte	.LASF110
 6439 08f1 01       		.byte	0x1
 6440 08f2 7507     		.2byte	0x775
 6441 08f4 80000000 		.4byte	0x80
 6442 08f8 02       		.uleb128 0x2
 6443 08f9 91       		.byte	0x91
 6444 08fa 6F       		.sleb128 -17
 6445 08fb 10       		.uleb128 0x10
 6446 08fc AE030000 		.4byte	.LASF111
 6447 0900 01       		.byte	0x1
ARM GAS  C:\Users\ben\AppData\Local\Temp\ccnBLHGm.s 			page 166


 6448 0901 7707     		.2byte	0x777
 6449 0903 80000000 		.4byte	0x80
 6450 0907 05       		.uleb128 0x5
 6451 0908 03       		.byte	0x3
 6452 0909 18000000 		.4byte	interruptStatus.5074
 6453 090d 10       		.uleb128 0x10
 6454 090e 2D010000 		.4byte	.LASF56
 6455 0912 01       		.byte	0x1
 6456 0913 7807     		.2byte	0x778
 6457 0915 80000000 		.4byte	0x80
 6458 0919 02       		.uleb128 0x2
 6459 091a 91       		.byte	0x91
 6460 091b 77       		.sleb128 -9
 6461 091c 10       		.uleb128 0x10
 6462 091d 17090000 		.4byte	.LASF112
 6463 0921 01       		.byte	0x1
 6464 0922 7907     		.2byte	0x779
 6465 0924 80000000 		.4byte	0x80
 6466 0928 02       		.uleb128 0x2
 6467 0929 91       		.byte	0x91
 6468 092a 76       		.sleb128 -10
 6469 092b 00       		.byte	0
 6470 092c 19       		.uleb128 0x19
 6471 092d 04090000 		.4byte	.LASF113
 6472 0931 01       		.byte	0x1
 6473 0932 9D07     		.2byte	0x79d
 6474 0934 80000000 		.4byte	0x80
 6475 0938 00000000 		.4byte	.LFB53
 6476 093c 30000000 		.4byte	.LFE53-.LFB53
 6477 0940 01       		.uleb128 0x1
 6478 0941 9C       		.byte	0x9c
 6479 0942 65090000 		.4byte	0x965
 6480 0946 10       		.uleb128 0x10
 6481 0947 2D010000 		.4byte	.LASF56
 6482 094b 01       		.byte	0x1
 6483 094c 9F07     		.2byte	0x79f
 6484 094e 80000000 		.4byte	0x80
 6485 0952 02       		.uleb128 0x2
 6486 0953 91       		.byte	0x91
 6487 0954 77       		.sleb128 -9
 6488 0955 10       		.uleb128 0x10
 6489 0956 7B030000 		.4byte	.LASF114
 6490 095a 01       		.byte	0x1
 6491 095b A007     		.2byte	0x7a0
 6492 095d 80000000 		.4byte	0x80
 6493 0961 02       		.uleb128 0x2
 6494 0962 91       		.byte	0x91
 6495 0963 76       		.sleb128 -10
 6496 0964 00       		.byte	0
 6497 0965 19       		.uleb128 0x19
 6498 0966 FD060000 		.4byte	.LASF115
 6499 096a 01       		.byte	0x1
 6500 096b B407     		.2byte	0x7b4
 6501 096d 98000000 		.4byte	0x98
 6502 0971 00000000 		.4byte	.LFB54
 6503 0975 34000000 		.4byte	.LFE54-.LFB54
 6504 0979 01       		.uleb128 0x1
ARM GAS  C:\Users\ben\AppData\Local\Temp\ccnBLHGm.s 			page 167


 6505 097a 9C       		.byte	0x9c
 6506 097b 9E090000 		.4byte	0x99e
 6507 097f 10       		.uleb128 0x10
 6508 0980 10040000 		.4byte	.LASF116
 6509 0984 01       		.byte	0x1
 6510 0985 B607     		.2byte	0x7b6
 6511 0987 98000000 		.4byte	0x98
 6512 098b 02       		.uleb128 0x2
 6513 098c 91       		.byte	0x91
 6514 098d 70       		.sleb128 -16
 6515 098e 10       		.uleb128 0x10
 6516 098f 2D010000 		.4byte	.LASF56
 6517 0993 01       		.byte	0x1
 6518 0994 B707     		.2byte	0x7b7
 6519 0996 80000000 		.4byte	0x80
 6520 099a 02       		.uleb128 0x2
 6521 099b 91       		.byte	0x91
 6522 099c 77       		.sleb128 -9
 6523 099d 00       		.byte	0
 6524 099e 0E       		.uleb128 0xe
 6525 099f C9010000 		.4byte	.LASF117
 6526 09a3 01       		.byte	0x1
 6527 09a4 E307     		.2byte	0x7e3
 6528 09a6 00000000 		.4byte	.LFB55
 6529 09aa 28000000 		.4byte	.LFE55-.LFB55
 6530 09ae 01       		.uleb128 0x1
 6531 09af 9C       		.byte	0x9c
 6532 09b0 D3090000 		.4byte	0x9d3
 6533 09b4 0F       		.uleb128 0xf
 6534 09b5 21010000 		.4byte	.LASF110
 6535 09b9 01       		.byte	0x1
 6536 09ba E307     		.2byte	0x7e3
 6537 09bc 98000000 		.4byte	0x98
 6538 09c0 02       		.uleb128 0x2
 6539 09c1 91       		.byte	0x91
 6540 09c2 6C       		.sleb128 -20
 6541 09c3 10       		.uleb128 0x10
 6542 09c4 2D010000 		.4byte	.LASF56
 6543 09c8 01       		.byte	0x1
 6544 09c9 E607     		.2byte	0x7e6
 6545 09cb 80000000 		.4byte	0x80
 6546 09cf 02       		.uleb128 0x2
 6547 09d0 91       		.byte	0x91
 6548 09d1 77       		.sleb128 -9
 6549 09d2 00       		.byte	0
 6550 09d3 0E       		.uleb128 0xe
 6551 09d4 F0060000 		.4byte	.LASF118
 6552 09d8 01       		.byte	0x1
 6553 09d9 0C08     		.2byte	0x80c
 6554 09db 00000000 		.4byte	.LFB56
 6555 09df 58000000 		.4byte	.LFE56-.LFB56
 6556 09e3 01       		.uleb128 0x1
 6557 09e4 9C       		.byte	0x9c
 6558 09e5 F9090000 		.4byte	0x9f9
 6559 09e9 10       		.uleb128 0x10
 6560 09ea 2D010000 		.4byte	.LASF56
 6561 09ee 01       		.byte	0x1
ARM GAS  C:\Users\ben\AppData\Local\Temp\ccnBLHGm.s 			page 168


 6562 09ef 0E08     		.2byte	0x80e
 6563 09f1 80000000 		.4byte	0x80
 6564 09f5 02       		.uleb128 0x2
 6565 09f6 91       		.byte	0x91
 6566 09f7 77       		.sleb128 -9
 6567 09f8 00       		.byte	0
 6568 09f9 16       		.uleb128 0x16
 6569 09fa 7F070000 		.4byte	.LASF119
 6570 09fe 01       		.byte	0x1
 6571 09ff 4B08     		.2byte	0x84b
 6572 0a01 F1000000 		.4byte	0xf1
 6573 0a05 00000000 		.4byte	.LFB57
 6574 0a09 44000000 		.4byte	.LFE57-.LFB57
 6575 0a0d 01       		.uleb128 0x1
 6576 0a0e 9C       		.byte	0x9c
 6577 0a0f 500A0000 		.4byte	0xa50
 6578 0a13 0F       		.uleb128 0xf
 6579 0a14 F6070000 		.4byte	.LASF120
 6580 0a18 01       		.byte	0x1
 6581 0a19 4B08     		.2byte	0x84b
 6582 0a1b 80000000 		.4byte	0x80
 6583 0a1f 02       		.uleb128 0x2
 6584 0a20 91       		.byte	0x91
 6585 0a21 6F       		.sleb128 -17
 6586 0a22 0F       		.uleb128 0xf
 6587 0a23 2D080000 		.4byte	.LASF121
 6588 0a27 01       		.byte	0x1
 6589 0a28 4B08     		.2byte	0x84b
 6590 0a2a F1000000 		.4byte	0xf1
 6591 0a2e 02       		.uleb128 0x2
 6592 0a2f 91       		.byte	0x91
 6593 0a30 68       		.sleb128 -24
 6594 0a31 10       		.uleb128 0x10
 6595 0a32 5E030000 		.4byte	.LASF122
 6596 0a36 01       		.byte	0x1
 6597 0a37 4D08     		.2byte	0x84d
 6598 0a39 F1000000 		.4byte	0xf1
 6599 0a3d 02       		.uleb128 0x2
 6600 0a3e 91       		.byte	0x91
 6601 0a3f 70       		.sleb128 -16
 6602 0a40 10       		.uleb128 0x10
 6603 0a41 A9080000 		.4byte	.LASF123
 6604 0a45 01       		.byte	0x1
 6605 0a46 4E08     		.2byte	0x84e
 6606 0a48 500A0000 		.4byte	0xa50
 6607 0a4c 02       		.uleb128 0x2
 6608 0a4d 91       		.byte	0x91
 6609 0a4e 74       		.sleb128 -12
 6610 0a4f 00       		.byte	0
 6611 0a50 04       		.uleb128 0x4
 6612 0a51 04       		.byte	0x4
 6613 0a52 F1000000 		.4byte	0xf1
 6614 0a56 16       		.uleb128 0x16
 6615 0a57 3C050000 		.4byte	.LASF124
 6616 0a5b 01       		.byte	0x1
 6617 0a5c 7308     		.2byte	0x873
 6618 0a5e F1000000 		.4byte	0xf1
ARM GAS  C:\Users\ben\AppData\Local\Temp\ccnBLHGm.s 			page 169


 6619 0a62 00000000 		.4byte	.LFB58
 6620 0a66 30000000 		.4byte	.LFE58-.LFB58
 6621 0a6a 01       		.uleb128 0x1
 6622 0a6b 9C       		.byte	0x9c
 6623 0a6c 8F0A0000 		.4byte	0xa8f
 6624 0a70 0F       		.uleb128 0xf
 6625 0a71 F6070000 		.4byte	.LASF120
 6626 0a75 01       		.byte	0x1
 6627 0a76 7308     		.2byte	0x873
 6628 0a78 80000000 		.4byte	0x80
 6629 0a7c 02       		.uleb128 0x2
 6630 0a7d 91       		.byte	0x91
 6631 0a7e 6F       		.sleb128 -17
 6632 0a7f 10       		.uleb128 0x10
 6633 0a80 A9080000 		.4byte	.LASF123
 6634 0a84 01       		.byte	0x1
 6635 0a85 7508     		.2byte	0x875
 6636 0a87 500A0000 		.4byte	0xa50
 6637 0a8b 02       		.uleb128 0x2
 6638 0a8c 91       		.byte	0x91
 6639 0a8d 74       		.sleb128 -12
 6640 0a8e 00       		.byte	0
 6641 0a8f 16       		.uleb128 0x16
 6642 0a90 2A040000 		.4byte	.LASF125
 6643 0a94 01       		.byte	0x1
 6644 0a95 8908     		.2byte	0x889
 6645 0a97 F1000000 		.4byte	0xf1
 6646 0a9b 00000000 		.4byte	.LFB59
 6647 0a9f 48000000 		.4byte	.LFE59-.LFB59
 6648 0aa3 01       		.uleb128 0x1
 6649 0aa4 9C       		.byte	0x9c
 6650 0aa5 E60A0000 		.4byte	0xae6
 6651 0aa9 0F       		.uleb128 0xf
 6652 0aaa F6070000 		.4byte	.LASF120
 6653 0aae 01       		.byte	0x1
 6654 0aaf 8908     		.2byte	0x889
 6655 0ab1 80000000 		.4byte	0x80
 6656 0ab5 02       		.uleb128 0x2
 6657 0ab6 91       		.byte	0x91
 6658 0ab7 6F       		.sleb128 -17
 6659 0ab8 0F       		.uleb128 0xf
 6660 0ab9 2D080000 		.4byte	.LASF121
 6661 0abd 01       		.byte	0x1
 6662 0abe 8908     		.2byte	0x889
 6663 0ac0 F1000000 		.4byte	0xf1
 6664 0ac4 02       		.uleb128 0x2
 6665 0ac5 91       		.byte	0x91
 6666 0ac6 68       		.sleb128 -24
 6667 0ac7 10       		.uleb128 0x10
 6668 0ac8 5E030000 		.4byte	.LASF122
 6669 0acc 01       		.byte	0x1
 6670 0acd 8B08     		.2byte	0x88b
 6671 0acf F1000000 		.4byte	0xf1
 6672 0ad3 02       		.uleb128 0x2
 6673 0ad4 91       		.byte	0x91
 6674 0ad5 70       		.sleb128 -16
 6675 0ad6 10       		.uleb128 0x10
ARM GAS  C:\Users\ben\AppData\Local\Temp\ccnBLHGm.s 			page 170


 6676 0ad7 A9080000 		.4byte	.LASF123
 6677 0adb 01       		.byte	0x1
 6678 0adc 8C08     		.2byte	0x88c
 6679 0ade 500A0000 		.4byte	0xa50
 6680 0ae2 02       		.uleb128 0x2
 6681 0ae3 91       		.byte	0x91
 6682 0ae4 74       		.sleb128 -12
 6683 0ae5 00       		.byte	0
 6684 0ae6 16       		.uleb128 0x16
 6685 0ae7 00000000 		.4byte	.LASF126
 6686 0aeb 01       		.byte	0x1
 6687 0aec A608     		.2byte	0x8a6
 6688 0aee F1000000 		.4byte	0xf1
 6689 0af2 00000000 		.4byte	.LFB60
 6690 0af6 30000000 		.4byte	.LFE60-.LFB60
 6691 0afa 01       		.uleb128 0x1
 6692 0afb 9C       		.byte	0x9c
 6693 0afc 1F0B0000 		.4byte	0xb1f
 6694 0b00 0F       		.uleb128 0xf
 6695 0b01 F6070000 		.4byte	.LASF120
 6696 0b05 01       		.byte	0x1
 6697 0b06 A608     		.2byte	0x8a6
 6698 0b08 80000000 		.4byte	0x80
 6699 0b0c 02       		.uleb128 0x2
 6700 0b0d 91       		.byte	0x91
 6701 0b0e 6F       		.sleb128 -17
 6702 0b0f 10       		.uleb128 0x10
 6703 0b10 A9080000 		.4byte	.LASF123
 6704 0b14 01       		.byte	0x1
 6705 0b15 A808     		.2byte	0x8a8
 6706 0b17 500A0000 		.4byte	0xa50
 6707 0b1b 02       		.uleb128 0x2
 6708 0b1c 91       		.byte	0x91
 6709 0b1d 74       		.sleb128 -12
 6710 0b1e 00       		.byte	0
 6711 0b1f 14       		.uleb128 0x14
 6712 0b20 26000000 		.4byte	.LASF127
 6713 0b24 01       		.byte	0x1
 6714 0b25 B908     		.2byte	0x8b9
 6715 0b27 00000000 		.4byte	.LFB61
 6716 0b2b 30000000 		.4byte	.LFE61-.LFB61
 6717 0b2f 01       		.uleb128 0x1
 6718 0b30 9C       		.byte	0x9c
 6719 0b31 540B0000 		.4byte	0xb54
 6720 0b35 0F       		.uleb128 0xf
 6721 0b36 F6070000 		.4byte	.LASF120
 6722 0b3a 01       		.byte	0x1
 6723 0b3b B908     		.2byte	0x8b9
 6724 0b3d 80000000 		.4byte	0x80
 6725 0b41 02       		.uleb128 0x2
 6726 0b42 91       		.byte	0x91
 6727 0b43 77       		.sleb128 -9
 6728 0b44 0F       		.uleb128 0xf
 6729 0b45 91070000 		.4byte	.LASF128
 6730 0b49 01       		.byte	0x1
 6731 0b4a B908     		.2byte	0x8b9
 6732 0b4c 80000000 		.4byte	0x80
ARM GAS  C:\Users\ben\AppData\Local\Temp\ccnBLHGm.s 			page 171


 6733 0b50 02       		.uleb128 0x2
 6734 0b51 91       		.byte	0x91
 6735 0b52 76       		.sleb128 -10
 6736 0b53 00       		.byte	0
 6737 0b54 16       		.uleb128 0x16
 6738 0b55 5C000000 		.4byte	.LASF129
 6739 0b59 01       		.byte	0x1
 6740 0b5a CD08     		.2byte	0x8cd
 6741 0b5c 80000000 		.4byte	0x80
 6742 0b60 00000000 		.4byte	.LFB62
 6743 0b64 2E000000 		.4byte	.LFE62-.LFB62
 6744 0b68 01       		.uleb128 0x1
 6745 0b69 9C       		.byte	0x9c
 6746 0b6a 8D0B0000 		.4byte	0xb8d
 6747 0b6e 0F       		.uleb128 0xf
 6748 0b6f F6070000 		.4byte	.LASF120
 6749 0b73 01       		.byte	0x1
 6750 0b74 CD08     		.2byte	0x8cd
 6751 0b76 80000000 		.4byte	0x80
 6752 0b7a 02       		.uleb128 0x2
 6753 0b7b 91       		.byte	0x91
 6754 0b7c 6F       		.sleb128 -17
 6755 0b7d 10       		.uleb128 0x10
 6756 0b7e 91070000 		.4byte	.LASF128
 6757 0b82 01       		.byte	0x1
 6758 0b83 CF08     		.2byte	0x8cf
 6759 0b85 80000000 		.4byte	0x80
 6760 0b89 02       		.uleb128 0x2
 6761 0b8a 91       		.byte	0x91
 6762 0b8b 77       		.sleb128 -9
 6763 0b8c 00       		.byte	0
 6764 0b8d 16       		.uleb128 0x16
 6765 0b8e 1D030000 		.4byte	.LASF130
 6766 0b92 01       		.byte	0x1
 6767 0b93 E508     		.2byte	0x8e5
 6768 0b95 80000000 		.4byte	0x80
 6769 0b99 00000000 		.4byte	.LFB63
 6770 0b9d 3C000000 		.4byte	.LFE63-.LFB63
 6771 0ba1 01       		.uleb128 0x1
 6772 0ba2 9C       		.byte	0x9c
 6773 0ba3 C60B0000 		.4byte	0xbc6
 6774 0ba7 0F       		.uleb128 0xf
 6775 0ba8 F6070000 		.4byte	.LASF120
 6776 0bac 01       		.byte	0x1
 6777 0bad E508     		.2byte	0x8e5
 6778 0baf 80000000 		.4byte	0x80
 6779 0bb3 02       		.uleb128 0x2
 6780 0bb4 91       		.byte	0x91
 6781 0bb5 6F       		.sleb128 -17
 6782 0bb6 10       		.uleb128 0x10
 6783 0bb7 76070000 		.4byte	.LASF131
 6784 0bbb 01       		.byte	0x1
 6785 0bbc E708     		.2byte	0x8e7
 6786 0bbe C60B0000 		.4byte	0xbc6
 6787 0bc2 02       		.uleb128 0x2
 6788 0bc3 91       		.byte	0x91
 6789 0bc4 74       		.sleb128 -12
ARM GAS  C:\Users\ben\AppData\Local\Temp\ccnBLHGm.s 			page 172


 6790 0bc5 00       		.byte	0
 6791 0bc6 04       		.uleb128 0x4
 6792 0bc7 04       		.byte	0x4
 6793 0bc8 E0000000 		.4byte	0xe0
 6794 0bcc 1A       		.uleb128 0x1a
 6795 0bcd 3A060000 		.4byte	.LASF132
 6796 0bd1 01       		.byte	0x1
 6797 0bd2 FF09     		.2byte	0x9ff
 6798 0bd4 00000000 		.4byte	.LFB64
 6799 0bd8 20000000 		.4byte	.LFE64-.LFB64
 6800 0bdc 01       		.uleb128 0x1
 6801 0bdd 9C       		.byte	0x9c
 6802 0bde 0E       		.uleb128 0xe
 6803 0bdf FD070000 		.4byte	.LASF133
 6804 0be3 01       		.byte	0x1
 6805 0be4 1C0A     		.2byte	0xa1c
 6806 0be6 00000000 		.4byte	.LFB65
 6807 0bea 68000000 		.4byte	.LFE65-.LFB65
 6808 0bee 01       		.uleb128 0x1
 6809 0bef 9C       		.byte	0x9c
 6810 0bf0 020C0000 		.4byte	0xc02
 6811 0bf4 17       		.uleb128 0x17
 6812 0bf5 6900     		.ascii	"i\000"
 6813 0bf7 01       		.byte	0x1
 6814 0bf8 1E0A     		.2byte	0xa1e
 6815 0bfa 98000000 		.4byte	0x98
 6816 0bfe 02       		.uleb128 0x2
 6817 0bff 91       		.byte	0x91
 6818 0c00 74       		.sleb128 -12
 6819 0c01 00       		.byte	0
 6820 0c02 1A       		.uleb128 0x1a
 6821 0c03 F9040000 		.4byte	.LASF134
 6822 0c07 01       		.byte	0x1
 6823 0c08 370A     		.2byte	0xa37
 6824 0c0a 00000000 		.4byte	.LFB66
 6825 0c0e 1C000000 		.4byte	.LFE66-.LFB66
 6826 0c12 01       		.uleb128 0x1
 6827 0c13 9C       		.byte	0x9c
 6828 0c14 11       		.uleb128 0x11
 6829 0c15 0F030000 		.4byte	.LASF135
 6830 0c19 01       		.byte	0x1
 6831 0c1a 480A     		.2byte	0xa48
 6832 0c1c 00000000 		.4byte	.LFB67
 6833 0c20 1C000000 		.4byte	.LFE67-.LFB67
 6834 0c24 01       		.uleb128 0x1
 6835 0c25 9C       		.byte	0x9c
 6836 0c26 11       		.uleb128 0x11
 6837 0c27 D9020000 		.4byte	.LASF136
 6838 0c2b 01       		.byte	0x1
 6839 0c2c 580A     		.2byte	0xa58
 6840 0c2e 00000000 		.4byte	.LFB68
 6841 0c32 1C000000 		.4byte	.LFE68-.LFB68
 6842 0c36 01       		.uleb128 0x1
 6843 0c37 9C       		.byte	0x9c
 6844 0c38 11       		.uleb128 0x11
 6845 0c39 A8070000 		.4byte	.LASF137
 6846 0c3d 01       		.byte	0x1
ARM GAS  C:\Users\ben\AppData\Local\Temp\ccnBLHGm.s 			page 173


 6847 0c3e 680A     		.2byte	0xa68
 6848 0c40 00000000 		.4byte	.LFB69
 6849 0c44 1C000000 		.4byte	.LFE69-.LFB69
 6850 0c48 01       		.uleb128 0x1
 6851 0c49 9C       		.byte	0x9c
 6852 0c4a 14       		.uleb128 0x14
 6853 0c4b 3C070000 		.4byte	.LASF138
 6854 0c4f 01       		.byte	0x1
 6855 0c50 790A     		.2byte	0xa79
 6856 0c52 00000000 		.4byte	.LFB70
 6857 0c56 20000000 		.4byte	.LFE70-.LFB70
 6858 0c5a 01       		.uleb128 0x1
 6859 0c5b 9C       		.byte	0x9c
 6860 0c5c 700C0000 		.4byte	0xc70
 6861 0c60 0F       		.uleb128 0xf
 6862 0c61 E2090000 		.4byte	.LASF139
 6863 0c65 01       		.byte	0x1
 6864 0c66 790A     		.2byte	0xa79
 6865 0c68 98000000 		.4byte	0x98
 6866 0c6c 02       		.uleb128 0x2
 6867 0c6d 91       		.byte	0x91
 6868 0c6e 74       		.sleb128 -12
 6869 0c6f 00       		.byte	0
 6870 0c70 18       		.uleb128 0x18
 6871 0c71 4A020000 		.4byte	.LASF140
 6872 0c75 01       		.byte	0x1
 6873 0c76 890A     		.2byte	0xa89
 6874 0c78 98000000 		.4byte	0x98
 6875 0c7c 00000000 		.4byte	.LFB71
 6876 0c80 1C000000 		.4byte	.LFE71-.LFB71
 6877 0c84 01       		.uleb128 0x1
 6878 0c85 9C       		.byte	0x9c
 6879 0c86 18       		.uleb128 0x18
 6880 0c87 28060000 		.4byte	.LASF141
 6881 0c8b 01       		.byte	0x1
 6882 0c8c 990A     		.2byte	0xa99
 6883 0c8e 98000000 		.4byte	0x98
 6884 0c92 00000000 		.4byte	.LFB72
 6885 0c96 1C000000 		.4byte	.LFE72-.LFB72
 6886 0c9a 01       		.uleb128 0x1
 6887 0c9b 9C       		.byte	0x9c
 6888 0c9c 14       		.uleb128 0x14
 6889 0c9d 7B060000 		.4byte	.LASF142
 6890 0ca1 01       		.byte	0x1
 6891 0ca2 B30A     		.2byte	0xab3
 6892 0ca4 00000000 		.4byte	.LFB73
 6893 0ca8 38000000 		.4byte	.LFE73-.LFB73
 6894 0cac 01       		.uleb128 0x1
 6895 0cad 9C       		.byte	0x9c
 6896 0cae C20C0000 		.4byte	0xcc2
 6897 0cb2 0F       		.uleb128 0xf
 6898 0cb3 11070000 		.4byte	.LASF143
 6899 0cb7 01       		.byte	0x1
 6900 0cb8 B30A     		.2byte	0xab3
 6901 0cba 98000000 		.4byte	0x98
 6902 0cbe 02       		.uleb128 0x2
 6903 0cbf 91       		.byte	0x91
ARM GAS  C:\Users\ben\AppData\Local\Temp\ccnBLHGm.s 			page 174


 6904 0cc0 74       		.sleb128 -12
 6905 0cc1 00       		.byte	0
 6906 0cc2 18       		.uleb128 0x18
 6907 0cc3 56080000 		.4byte	.LASF144
 6908 0cc7 01       		.byte	0x1
 6909 0cc8 CC0A     		.2byte	0xacc
 6910 0cca 98000000 		.4byte	0x98
 6911 0cce 00000000 		.4byte	.LFB74
 6912 0cd2 1C000000 		.4byte	.LFE74-.LFB74
 6913 0cd6 01       		.uleb128 0x1
 6914 0cd7 9C       		.byte	0x9c
 6915 0cd8 18       		.uleb128 0x18
 6916 0cd9 EA030000 		.4byte	.LASF145
 6917 0cdd 01       		.byte	0x1
 6918 0cde E10A     		.2byte	0xae1
 6919 0ce0 98000000 		.4byte	0x98
 6920 0ce4 00000000 		.4byte	.LFB75
 6921 0ce8 1C000000 		.4byte	.LFE75-.LFB75
 6922 0cec 01       		.uleb128 0x1
 6923 0ced 9C       		.byte	0x9c
 6924 0cee 11       		.uleb128 0x11
 6925 0cef 0F000000 		.4byte	.LASF146
 6926 0cf3 01       		.byte	0x1
 6927 0cf4 EE0A     		.2byte	0xaee
 6928 0cf6 00000000 		.4byte	.LFB76
 6929 0cfa 18000000 		.4byte	.LFE76-.LFB76
 6930 0cfe 01       		.uleb128 0x1
 6931 0cff 9C       		.byte	0x9c
 6932 0d00 16       		.uleb128 0x16
 6933 0d01 95010000 		.4byte	.LASF147
 6934 0d05 01       		.byte	0x1
 6935 0d06 110B     		.2byte	0xb11
 6936 0d08 FD000000 		.4byte	0xfd
 6937 0d0c 00000000 		.4byte	.LFB77
 6938 0d10 30000000 		.4byte	.LFE77-.LFB77
 6939 0d14 01       		.uleb128 0x1
 6940 0d15 9C       		.byte	0x9c
 6941 0d16 480D0000 		.4byte	0xd48
 6942 0d1a 0F       		.uleb128 0xf
 6943 0d1b F6070000 		.4byte	.LASF120
 6944 0d1f 01       		.byte	0x1
 6945 0d20 110B     		.2byte	0xb11
 6946 0d22 98000000 		.4byte	0x98
 6947 0d26 02       		.uleb128 0x2
 6948 0d27 91       		.byte	0x91
 6949 0d28 6C       		.sleb128 -20
 6950 0d29 0F       		.uleb128 0xf
 6951 0d2a C6080000 		.4byte	.LASF148
 6952 0d2e 01       		.byte	0x1
 6953 0d2f 110B     		.2byte	0xb11
 6954 0d31 FD000000 		.4byte	0xfd
 6955 0d35 02       		.uleb128 0x2
 6956 0d36 91       		.byte	0x91
 6957 0d37 68       		.sleb128 -24
 6958 0d38 10       		.uleb128 0x10
 6959 0d39 26080000 		.4byte	.LASF149
 6960 0d3d 01       		.byte	0x1
ARM GAS  C:\Users\ben\AppData\Local\Temp\ccnBLHGm.s 			page 175


 6961 0d3e 130B     		.2byte	0xb13
 6962 0d40 FD000000 		.4byte	0xfd
 6963 0d44 02       		.uleb128 0x2
 6964 0d45 91       		.byte	0x91
 6965 0d46 74       		.sleb128 -12
 6966 0d47 00       		.byte	0
 6967 0d48 16       		.uleb128 0x16
 6968 0d49 36030000 		.4byte	.LASF150
 6969 0d4d 01       		.byte	0x1
 6970 0d4e 290B     		.2byte	0xb29
 6971 0d50 FD000000 		.4byte	0xfd
 6972 0d54 00000000 		.4byte	.LFB78
 6973 0d58 20000000 		.4byte	.LFE78-.LFB78
 6974 0d5c 01       		.uleb128 0x1
 6975 0d5d 9C       		.byte	0x9c
 6976 0d5e 720D0000 		.4byte	0xd72
 6977 0d62 0F       		.uleb128 0xf
 6978 0d63 F6070000 		.4byte	.LASF120
 6979 0d67 01       		.byte	0x1
 6980 0d68 290B     		.2byte	0xb29
 6981 0d6a 98000000 		.4byte	0x98
 6982 0d6e 02       		.uleb128 0x2
 6983 0d6f 91       		.byte	0x91
 6984 0d70 74       		.sleb128 -12
 6985 0d71 00       		.byte	0
 6986 0d72 13       		.uleb128 0x13
 6987 0d73 49060000 		.4byte	.LASF151
 6988 0d77 01       		.byte	0x1
 6989 0d78 360B     		.2byte	0xb36
 6990 0d7a 00000000 		.4byte	.LFB79
 6991 0d7e 44000000 		.4byte	.LFE79-.LFB79
 6992 0d82 01       		.uleb128 0x1
 6993 0d83 9C       		.byte	0x9c
 6994 0d84 960D0000 		.4byte	0xd96
 6995 0d88 17       		.uleb128 0x17
 6996 0d89 6900     		.ascii	"i\000"
 6997 0d8b 01       		.byte	0x1
 6998 0d8c 380B     		.2byte	0xb38
 6999 0d8e 98000000 		.4byte	0x98
 7000 0d92 02       		.uleb128 0x2
 7001 0d93 91       		.byte	0x91
 7002 0d94 74       		.sleb128 -12
 7003 0d95 00       		.byte	0
 7004 0d96 14       		.uleb128 0x14
 7005 0d97 B8080000 		.4byte	.LASF152
 7006 0d9b 01       		.byte	0x1
 7007 0d9c 570B     		.2byte	0xb57
 7008 0d9e 00000000 		.4byte	.LFB80
 7009 0da2 C4000000 		.4byte	.LFE80-.LFB80
 7010 0da6 01       		.uleb128 0x1
 7011 0da7 9C       		.byte	0x9c
 7012 0da8 BC0D0000 		.4byte	0xdbc
 7013 0dac 0F       		.uleb128 0xf
 7014 0dad A5090000 		.4byte	.LASF153
 7015 0db1 01       		.byte	0x1
 7016 0db2 570B     		.2byte	0xb57
 7017 0db4 BC0D0000 		.4byte	0xdbc
ARM GAS  C:\Users\ben\AppData\Local\Temp\ccnBLHGm.s 			page 176


 7018 0db8 02       		.uleb128 0x2
 7019 0db9 91       		.byte	0x91
 7020 0dba 74       		.sleb128 -12
 7021 0dbb 00       		.byte	0
 7022 0dbc 04       		.uleb128 0x4
 7023 0dbd 04       		.byte	0x4
 7024 0dbe 98000000 		.4byte	0x98
 7025 0dc2 1B       		.uleb128 0x1b
 7026 0dc3 FD000000 		.4byte	0xfd
 7027 0dc7 D20D0000 		.4byte	0xdd2
 7028 0dcb 1C       		.uleb128 0x1c
 7029 0dcc 6B000000 		.4byte	0x6b
 7030 0dd0 04       		.byte	0x4
 7031 0dd1 00       		.byte	0
 7032 0dd2 0B       		.uleb128 0xb
 7033 0dd3 4E050000 		.4byte	.LASF154
 7034 0dd7 01       		.byte	0x1
 7035 0dd8 34       		.byte	0x34
 7036 0dd9 C20D0000 		.4byte	0xdc2
 7037 0ddd 05       		.uleb128 0x5
 7038 0dde 03       		.byte	0x3
 7039 0ddf 00000000 		.4byte	CySysTickCallbacks
 7040 0de3 1D       		.uleb128 0x1d
 7041 0de4 9A070000 		.4byte	.LASF155
 7042 0de8 01       		.byte	0x1
 7043 0de9 1C       		.byte	0x1c
 7044 0dea 80000000 		.4byte	0x80
 7045 0dee 05       		.uleb128 0x5
 7046 0def 03       		.byte	0x3
 7047 0df0 00000000 		.4byte	CyResetStatus
 7048 0df4 1D       		.uleb128 0x1d
 7049 0df5 52040000 		.4byte	.LASF156
 7050 0df9 01       		.byte	0x1
 7051 0dfa 28       		.byte	0x28
 7052 0dfb 98000000 		.4byte	0x98
 7053 0dff 05       		.uleb128 0x5
 7054 0e00 03       		.byte	0x3
 7055 0e01 00000000 		.4byte	cydelay_freq_hz
 7056 0e05 1D       		.uleb128 0x1d
 7057 0e06 66020000 		.4byte	.LASF157
 7058 0e0a 01       		.byte	0x1
 7059 0e0b 29       		.byte	0x29
 7060 0e0c 98000000 		.4byte	0x98
 7061 0e10 05       		.uleb128 0x5
 7062 0e11 03       		.byte	0x3
 7063 0e12 00000000 		.4byte	cydelay_freq_khz
 7064 0e16 1D       		.uleb128 0x1d
 7065 0e17 97000000 		.4byte	.LASF158
 7066 0e1b 01       		.byte	0x1
 7067 0e1c 2A       		.byte	0x2a
 7068 0e1d 80000000 		.4byte	0x80
 7069 0e21 05       		.uleb128 0x5
 7070 0e22 03       		.byte	0x3
 7071 0e23 00000000 		.4byte	cydelay_freq_mhz
 7072 0e27 1D       		.uleb128 0x1d
 7073 0e28 BE030000 		.4byte	.LASF159
 7074 0e2c 01       		.byte	0x1
ARM GAS  C:\Users\ben\AppData\Local\Temp\ccnBLHGm.s 			page 177


 7075 0e2d 2B       		.byte	0x2b
 7076 0e2e 98000000 		.4byte	0x98
 7077 0e32 05       		.uleb128 0x5
 7078 0e33 03       		.byte	0x3
 7079 0e34 00000000 		.4byte	cydelay_32k_ms
 7080 0e38 1D       		.uleb128 0x1d
 7081 0e39 6B010000 		.4byte	.LASF160
 7082 0e3d 01       		.byte	0x1
 7083 0e3e 36       		.byte	0x36
 7084 0e3f 98000000 		.4byte	0x98
 7085 0e43 05       		.uleb128 0x5
 7086 0e44 03       		.byte	0x3
 7087 0e45 00000000 		.4byte	CySysTickInitVar
 7088 0e49 00       		.byte	0
 7089              		.section	.debug_abbrev,"",%progbits
 7090              	.Ldebug_abbrev0:
 7091 0000 01       		.uleb128 0x1
 7092 0001 11       		.uleb128 0x11
 7093 0002 01       		.byte	0x1
 7094 0003 25       		.uleb128 0x25
 7095 0004 0E       		.uleb128 0xe
 7096 0005 13       		.uleb128 0x13
 7097 0006 0B       		.uleb128 0xb
 7098 0007 03       		.uleb128 0x3
 7099 0008 0E       		.uleb128 0xe
 7100 0009 1B       		.uleb128 0x1b
 7101 000a 0E       		.uleb128 0xe
 7102 000b 55       		.uleb128 0x55
 7103 000c 17       		.uleb128 0x17
 7104 000d 11       		.uleb128 0x11
 7105 000e 01       		.uleb128 0x1
 7106 000f 10       		.uleb128 0x10
 7107 0010 17       		.uleb128 0x17
 7108 0011 00       		.byte	0
 7109 0012 00       		.byte	0
 7110 0013 02       		.uleb128 0x2
 7111 0014 24       		.uleb128 0x24
 7112 0015 00       		.byte	0
 7113 0016 0B       		.uleb128 0xb
 7114 0017 0B       		.uleb128 0xb
 7115 0018 3E       		.uleb128 0x3e
 7116 0019 0B       		.uleb128 0xb
 7117 001a 03       		.uleb128 0x3
 7118 001b 08       		.uleb128 0x8
 7119 001c 00       		.byte	0
 7120 001d 00       		.byte	0
 7121 001e 03       		.uleb128 0x3
 7122 001f 24       		.uleb128 0x24
 7123 0020 00       		.byte	0
 7124 0021 0B       		.uleb128 0xb
 7125 0022 0B       		.uleb128 0xb
 7126 0023 3E       		.uleb128 0x3e
 7127 0024 0B       		.uleb128 0xb
 7128 0025 03       		.uleb128 0x3
 7129 0026 0E       		.uleb128 0xe
 7130 0027 00       		.byte	0
 7131 0028 00       		.byte	0
ARM GAS  C:\Users\ben\AppData\Local\Temp\ccnBLHGm.s 			page 178


 7132 0029 04       		.uleb128 0x4
 7133 002a 0F       		.uleb128 0xf
 7134 002b 00       		.byte	0
 7135 002c 0B       		.uleb128 0xb
 7136 002d 0B       		.uleb128 0xb
 7137 002e 49       		.uleb128 0x49
 7138 002f 13       		.uleb128 0x13
 7139 0030 00       		.byte	0
 7140 0031 00       		.byte	0
 7141 0032 05       		.uleb128 0x5
 7142 0033 15       		.uleb128 0x15
 7143 0034 00       		.byte	0
 7144 0035 27       		.uleb128 0x27
 7145 0036 19       		.uleb128 0x19
 7146 0037 00       		.byte	0
 7147 0038 00       		.byte	0
 7148 0039 06       		.uleb128 0x6
 7149 003a 16       		.uleb128 0x16
 7150 003b 00       		.byte	0
 7151 003c 03       		.uleb128 0x3
 7152 003d 0E       		.uleb128 0xe
 7153 003e 3A       		.uleb128 0x3a
 7154 003f 0B       		.uleb128 0xb
 7155 0040 3B       		.uleb128 0x3b
 7156 0041 05       		.uleb128 0x5
 7157 0042 49       		.uleb128 0x49
 7158 0043 13       		.uleb128 0x13
 7159 0044 00       		.byte	0
 7160 0045 00       		.byte	0
 7161 0046 07       		.uleb128 0x7
 7162 0047 35       		.uleb128 0x35
 7163 0048 00       		.byte	0
 7164 0049 49       		.uleb128 0x49
 7165 004a 13       		.uleb128 0x13
 7166 004b 00       		.byte	0
 7167 004c 00       		.byte	0
 7168 004d 08       		.uleb128 0x8
 7169 004e 16       		.uleb128 0x16
 7170 004f 00       		.byte	0
 7171 0050 03       		.uleb128 0x3
 7172 0051 0E       		.uleb128 0xe
 7173 0052 3A       		.uleb128 0x3a
 7174 0053 0B       		.uleb128 0xb
 7175 0054 3B       		.uleb128 0x3b
 7176 0055 0B       		.uleb128 0xb
 7177 0056 49       		.uleb128 0x49
 7178 0057 13       		.uleb128 0x13
 7179 0058 00       		.byte	0
 7180 0059 00       		.byte	0
 7181 005a 09       		.uleb128 0x9
 7182 005b 2E       		.uleb128 0x2e
 7183 005c 01       		.byte	0x1
 7184 005d 3F       		.uleb128 0x3f
 7185 005e 19       		.uleb128 0x19
 7186 005f 03       		.uleb128 0x3
 7187 0060 0E       		.uleb128 0xe
 7188 0061 3A       		.uleb128 0x3a
ARM GAS  C:\Users\ben\AppData\Local\Temp\ccnBLHGm.s 			page 179


 7189 0062 0B       		.uleb128 0xb
 7190 0063 3B       		.uleb128 0x3b
 7191 0064 0B       		.uleb128 0xb
 7192 0065 27       		.uleb128 0x27
 7193 0066 19       		.uleb128 0x19
 7194 0067 49       		.uleb128 0x49
 7195 0068 13       		.uleb128 0x13
 7196 0069 11       		.uleb128 0x11
 7197 006a 01       		.uleb128 0x1
 7198 006b 12       		.uleb128 0x12
 7199 006c 06       		.uleb128 0x6
 7200 006d 40       		.uleb128 0x40
 7201 006e 18       		.uleb128 0x18
 7202 006f 9642     		.uleb128 0x2116
 7203 0071 19       		.uleb128 0x19
 7204 0072 01       		.uleb128 0x1
 7205 0073 13       		.uleb128 0x13
 7206 0074 00       		.byte	0
 7207 0075 00       		.byte	0
 7208 0076 0A       		.uleb128 0xa
 7209 0077 05       		.uleb128 0x5
 7210 0078 00       		.byte	0
 7211 0079 03       		.uleb128 0x3
 7212 007a 0E       		.uleb128 0xe
 7213 007b 3A       		.uleb128 0x3a
 7214 007c 0B       		.uleb128 0xb
 7215 007d 3B       		.uleb128 0x3b
 7216 007e 0B       		.uleb128 0xb
 7217 007f 49       		.uleb128 0x49
 7218 0080 13       		.uleb128 0x13
 7219 0081 02       		.uleb128 0x2
 7220 0082 18       		.uleb128 0x18
 7221 0083 00       		.byte	0
 7222 0084 00       		.byte	0
 7223 0085 0B       		.uleb128 0xb
 7224 0086 34       		.uleb128 0x34
 7225 0087 00       		.byte	0
 7226 0088 03       		.uleb128 0x3
 7227 0089 0E       		.uleb128 0xe
 7228 008a 3A       		.uleb128 0x3a
 7229 008b 0B       		.uleb128 0xb
 7230 008c 3B       		.uleb128 0x3b
 7231 008d 0B       		.uleb128 0xb
 7232 008e 49       		.uleb128 0x49
 7233 008f 13       		.uleb128 0x13
 7234 0090 02       		.uleb128 0x2
 7235 0091 18       		.uleb128 0x18
 7236 0092 00       		.byte	0
 7237 0093 00       		.byte	0
 7238 0094 0C       		.uleb128 0xc
 7239 0095 2E       		.uleb128 0x2e
 7240 0096 00       		.byte	0
 7241 0097 3F       		.uleb128 0x3f
 7242 0098 19       		.uleb128 0x19
 7243 0099 03       		.uleb128 0x3
 7244 009a 0E       		.uleb128 0xe
 7245 009b 3A       		.uleb128 0x3a
ARM GAS  C:\Users\ben\AppData\Local\Temp\ccnBLHGm.s 			page 180


 7246 009c 0B       		.uleb128 0xb
 7247 009d 3B       		.uleb128 0x3b
 7248 009e 0B       		.uleb128 0xb
 7249 009f 27       		.uleb128 0x27
 7250 00a0 19       		.uleb128 0x19
 7251 00a1 11       		.uleb128 0x11
 7252 00a2 01       		.uleb128 0x1
 7253 00a3 12       		.uleb128 0x12
 7254 00a4 06       		.uleb128 0x6
 7255 00a5 40       		.uleb128 0x40
 7256 00a6 18       		.uleb128 0x18
 7257 00a7 9742     		.uleb128 0x2117
 7258 00a9 19       		.uleb128 0x19
 7259 00aa 00       		.byte	0
 7260 00ab 00       		.byte	0
 7261 00ac 0D       		.uleb128 0xd
 7262 00ad 2E       		.uleb128 0x2e
 7263 00ae 01       		.byte	0x1
 7264 00af 3F       		.uleb128 0x3f
 7265 00b0 19       		.uleb128 0x19
 7266 00b1 03       		.uleb128 0x3
 7267 00b2 0E       		.uleb128 0xe
 7268 00b3 3A       		.uleb128 0x3a
 7269 00b4 0B       		.uleb128 0xb
 7270 00b5 3B       		.uleb128 0x3b
 7271 00b6 0B       		.uleb128 0xb
 7272 00b7 27       		.uleb128 0x27
 7273 00b8 19       		.uleb128 0x19
 7274 00b9 11       		.uleb128 0x11
 7275 00ba 01       		.uleb128 0x1
 7276 00bb 12       		.uleb128 0x12
 7277 00bc 06       		.uleb128 0x6
 7278 00bd 40       		.uleb128 0x40
 7279 00be 18       		.uleb128 0x18
 7280 00bf 9742     		.uleb128 0x2117
 7281 00c1 19       		.uleb128 0x19
 7282 00c2 01       		.uleb128 0x1
 7283 00c3 13       		.uleb128 0x13
 7284 00c4 00       		.byte	0
 7285 00c5 00       		.byte	0
 7286 00c6 0E       		.uleb128 0xe
 7287 00c7 2E       		.uleb128 0x2e
 7288 00c8 01       		.byte	0x1
 7289 00c9 3F       		.uleb128 0x3f
 7290 00ca 19       		.uleb128 0x19
 7291 00cb 03       		.uleb128 0x3
 7292 00cc 0E       		.uleb128 0xe
 7293 00cd 3A       		.uleb128 0x3a
 7294 00ce 0B       		.uleb128 0xb
 7295 00cf 3B       		.uleb128 0x3b
 7296 00d0 05       		.uleb128 0x5
 7297 00d1 27       		.uleb128 0x27
 7298 00d2 19       		.uleb128 0x19
 7299 00d3 11       		.uleb128 0x11
 7300 00d4 01       		.uleb128 0x1
 7301 00d5 12       		.uleb128 0x12
 7302 00d6 06       		.uleb128 0x6
ARM GAS  C:\Users\ben\AppData\Local\Temp\ccnBLHGm.s 			page 181


 7303 00d7 40       		.uleb128 0x40
 7304 00d8 18       		.uleb128 0x18
 7305 00d9 9642     		.uleb128 0x2116
 7306 00db 19       		.uleb128 0x19
 7307 00dc 01       		.uleb128 0x1
 7308 00dd 13       		.uleb128 0x13
 7309 00de 00       		.byte	0
 7310 00df 00       		.byte	0
 7311 00e0 0F       		.uleb128 0xf
 7312 00e1 05       		.uleb128 0x5
 7313 00e2 00       		.byte	0
 7314 00e3 03       		.uleb128 0x3
 7315 00e4 0E       		.uleb128 0xe
 7316 00e5 3A       		.uleb128 0x3a
 7317 00e6 0B       		.uleb128 0xb
 7318 00e7 3B       		.uleb128 0x3b
 7319 00e8 05       		.uleb128 0x5
 7320 00e9 49       		.uleb128 0x49
 7321 00ea 13       		.uleb128 0x13
 7322 00eb 02       		.uleb128 0x2
 7323 00ec 18       		.uleb128 0x18
 7324 00ed 00       		.byte	0
 7325 00ee 00       		.byte	0
 7326 00ef 10       		.uleb128 0x10
 7327 00f0 34       		.uleb128 0x34
 7328 00f1 00       		.byte	0
 7329 00f2 03       		.uleb128 0x3
 7330 00f3 0E       		.uleb128 0xe
 7331 00f4 3A       		.uleb128 0x3a
 7332 00f5 0B       		.uleb128 0xb
 7333 00f6 3B       		.uleb128 0x3b
 7334 00f7 05       		.uleb128 0x5
 7335 00f8 49       		.uleb128 0x49
 7336 00f9 13       		.uleb128 0x13
 7337 00fa 02       		.uleb128 0x2
 7338 00fb 18       		.uleb128 0x18
 7339 00fc 00       		.byte	0
 7340 00fd 00       		.byte	0
 7341 00fe 11       		.uleb128 0x11
 7342 00ff 2E       		.uleb128 0x2e
 7343 0100 00       		.byte	0
 7344 0101 3F       		.uleb128 0x3f
 7345 0102 19       		.uleb128 0x19
 7346 0103 03       		.uleb128 0x3
 7347 0104 0E       		.uleb128 0xe
 7348 0105 3A       		.uleb128 0x3a
 7349 0106 0B       		.uleb128 0xb
 7350 0107 3B       		.uleb128 0x3b
 7351 0108 05       		.uleb128 0x5
 7352 0109 27       		.uleb128 0x27
 7353 010a 19       		.uleb128 0x19
 7354 010b 11       		.uleb128 0x11
 7355 010c 01       		.uleb128 0x1
 7356 010d 12       		.uleb128 0x12
 7357 010e 06       		.uleb128 0x6
 7358 010f 40       		.uleb128 0x40
 7359 0110 18       		.uleb128 0x18
ARM GAS  C:\Users\ben\AppData\Local\Temp\ccnBLHGm.s 			page 182


 7360 0111 9742     		.uleb128 0x2117
 7361 0113 19       		.uleb128 0x19
 7362 0114 00       		.byte	0
 7363 0115 00       		.byte	0
 7364 0116 12       		.uleb128 0x12
 7365 0117 2E       		.uleb128 0x2e
 7366 0118 01       		.byte	0x1
 7367 0119 03       		.uleb128 0x3
 7368 011a 0E       		.uleb128 0xe
 7369 011b 3A       		.uleb128 0x3a
 7370 011c 0B       		.uleb128 0xb
 7371 011d 3B       		.uleb128 0x3b
 7372 011e 05       		.uleb128 0x5
 7373 011f 27       		.uleb128 0x27
 7374 0120 19       		.uleb128 0x19
 7375 0121 49       		.uleb128 0x49
 7376 0122 13       		.uleb128 0x13
 7377 0123 11       		.uleb128 0x11
 7378 0124 01       		.uleb128 0x1
 7379 0125 12       		.uleb128 0x12
 7380 0126 06       		.uleb128 0x6
 7381 0127 40       		.uleb128 0x40
 7382 0128 18       		.uleb128 0x18
 7383 0129 9742     		.uleb128 0x2117
 7384 012b 19       		.uleb128 0x19
 7385 012c 01       		.uleb128 0x1
 7386 012d 13       		.uleb128 0x13
 7387 012e 00       		.byte	0
 7388 012f 00       		.byte	0
 7389 0130 13       		.uleb128 0x13
 7390 0131 2E       		.uleb128 0x2e
 7391 0132 01       		.byte	0x1
 7392 0133 03       		.uleb128 0x3
 7393 0134 0E       		.uleb128 0xe
 7394 0135 3A       		.uleb128 0x3a
 7395 0136 0B       		.uleb128 0xb
 7396 0137 3B       		.uleb128 0x3b
 7397 0138 05       		.uleb128 0x5
 7398 0139 27       		.uleb128 0x27
 7399 013a 19       		.uleb128 0x19
 7400 013b 11       		.uleb128 0x11
 7401 013c 01       		.uleb128 0x1
 7402 013d 12       		.uleb128 0x12
 7403 013e 06       		.uleb128 0x6
 7404 013f 40       		.uleb128 0x40
 7405 0140 18       		.uleb128 0x18
 7406 0141 9642     		.uleb128 0x2116
 7407 0143 19       		.uleb128 0x19
 7408 0144 01       		.uleb128 0x1
 7409 0145 13       		.uleb128 0x13
 7410 0146 00       		.byte	0
 7411 0147 00       		.byte	0
 7412 0148 14       		.uleb128 0x14
 7413 0149 2E       		.uleb128 0x2e
 7414 014a 01       		.byte	0x1
 7415 014b 3F       		.uleb128 0x3f
 7416 014c 19       		.uleb128 0x19
ARM GAS  C:\Users\ben\AppData\Local\Temp\ccnBLHGm.s 			page 183


 7417 014d 03       		.uleb128 0x3
 7418 014e 0E       		.uleb128 0xe
 7419 014f 3A       		.uleb128 0x3a
 7420 0150 0B       		.uleb128 0xb
 7421 0151 3B       		.uleb128 0x3b
 7422 0152 05       		.uleb128 0x5
 7423 0153 27       		.uleb128 0x27
 7424 0154 19       		.uleb128 0x19
 7425 0155 11       		.uleb128 0x11
 7426 0156 01       		.uleb128 0x1
 7427 0157 12       		.uleb128 0x12
 7428 0158 06       		.uleb128 0x6
 7429 0159 40       		.uleb128 0x40
 7430 015a 18       		.uleb128 0x18
 7431 015b 9742     		.uleb128 0x2117
 7432 015d 19       		.uleb128 0x19
 7433 015e 01       		.uleb128 0x1
 7434 015f 13       		.uleb128 0x13
 7435 0160 00       		.byte	0
 7436 0161 00       		.byte	0
 7437 0162 15       		.uleb128 0x15
 7438 0163 2E       		.uleb128 0x2e
 7439 0164 01       		.byte	0x1
 7440 0165 03       		.uleb128 0x3
 7441 0166 0E       		.uleb128 0xe
 7442 0167 3A       		.uleb128 0x3a
 7443 0168 0B       		.uleb128 0xb
 7444 0169 3B       		.uleb128 0x3b
 7445 016a 05       		.uleb128 0x5
 7446 016b 27       		.uleb128 0x27
 7447 016c 19       		.uleb128 0x19
 7448 016d 11       		.uleb128 0x11
 7449 016e 01       		.uleb128 0x1
 7450 016f 12       		.uleb128 0x12
 7451 0170 06       		.uleb128 0x6
 7452 0171 40       		.uleb128 0x40
 7453 0172 18       		.uleb128 0x18
 7454 0173 9742     		.uleb128 0x2117
 7455 0175 19       		.uleb128 0x19
 7456 0176 01       		.uleb128 0x1
 7457 0177 13       		.uleb128 0x13
 7458 0178 00       		.byte	0
 7459 0179 00       		.byte	0
 7460 017a 16       		.uleb128 0x16
 7461 017b 2E       		.uleb128 0x2e
 7462 017c 01       		.byte	0x1
 7463 017d 3F       		.uleb128 0x3f
 7464 017e 19       		.uleb128 0x19
 7465 017f 03       		.uleb128 0x3
 7466 0180 0E       		.uleb128 0xe
 7467 0181 3A       		.uleb128 0x3a
 7468 0182 0B       		.uleb128 0xb
 7469 0183 3B       		.uleb128 0x3b
 7470 0184 05       		.uleb128 0x5
 7471 0185 27       		.uleb128 0x27
 7472 0186 19       		.uleb128 0x19
 7473 0187 49       		.uleb128 0x49
ARM GAS  C:\Users\ben\AppData\Local\Temp\ccnBLHGm.s 			page 184


 7474 0188 13       		.uleb128 0x13
 7475 0189 11       		.uleb128 0x11
 7476 018a 01       		.uleb128 0x1
 7477 018b 12       		.uleb128 0x12
 7478 018c 06       		.uleb128 0x6
 7479 018d 40       		.uleb128 0x40
 7480 018e 18       		.uleb128 0x18
 7481 018f 9742     		.uleb128 0x2117
 7482 0191 19       		.uleb128 0x19
 7483 0192 01       		.uleb128 0x1
 7484 0193 13       		.uleb128 0x13
 7485 0194 00       		.byte	0
 7486 0195 00       		.byte	0
 7487 0196 17       		.uleb128 0x17
 7488 0197 34       		.uleb128 0x34
 7489 0198 00       		.byte	0
 7490 0199 03       		.uleb128 0x3
 7491 019a 08       		.uleb128 0x8
 7492 019b 3A       		.uleb128 0x3a
 7493 019c 0B       		.uleb128 0xb
 7494 019d 3B       		.uleb128 0x3b
 7495 019e 05       		.uleb128 0x5
 7496 019f 49       		.uleb128 0x49
 7497 01a0 13       		.uleb128 0x13
 7498 01a1 02       		.uleb128 0x2
 7499 01a2 18       		.uleb128 0x18
 7500 01a3 00       		.byte	0
 7501 01a4 00       		.byte	0
 7502 01a5 18       		.uleb128 0x18
 7503 01a6 2E       		.uleb128 0x2e
 7504 01a7 00       		.byte	0
 7505 01a8 3F       		.uleb128 0x3f
 7506 01a9 19       		.uleb128 0x19
 7507 01aa 03       		.uleb128 0x3
 7508 01ab 0E       		.uleb128 0xe
 7509 01ac 3A       		.uleb128 0x3a
 7510 01ad 0B       		.uleb128 0xb
 7511 01ae 3B       		.uleb128 0x3b
 7512 01af 05       		.uleb128 0x5
 7513 01b0 27       		.uleb128 0x27
 7514 01b1 19       		.uleb128 0x19
 7515 01b2 49       		.uleb128 0x49
 7516 01b3 13       		.uleb128 0x13
 7517 01b4 11       		.uleb128 0x11
 7518 01b5 01       		.uleb128 0x1
 7519 01b6 12       		.uleb128 0x12
 7520 01b7 06       		.uleb128 0x6
 7521 01b8 40       		.uleb128 0x40
 7522 01b9 18       		.uleb128 0x18
 7523 01ba 9742     		.uleb128 0x2117
 7524 01bc 19       		.uleb128 0x19
 7525 01bd 00       		.byte	0
 7526 01be 00       		.byte	0
 7527 01bf 19       		.uleb128 0x19
 7528 01c0 2E       		.uleb128 0x2e
 7529 01c1 01       		.byte	0x1
 7530 01c2 3F       		.uleb128 0x3f
ARM GAS  C:\Users\ben\AppData\Local\Temp\ccnBLHGm.s 			page 185


 7531 01c3 19       		.uleb128 0x19
 7532 01c4 03       		.uleb128 0x3
 7533 01c5 0E       		.uleb128 0xe
 7534 01c6 3A       		.uleb128 0x3a
 7535 01c7 0B       		.uleb128 0xb
 7536 01c8 3B       		.uleb128 0x3b
 7537 01c9 05       		.uleb128 0x5
 7538 01ca 27       		.uleb128 0x27
 7539 01cb 19       		.uleb128 0x19
 7540 01cc 49       		.uleb128 0x49
 7541 01cd 13       		.uleb128 0x13
 7542 01ce 11       		.uleb128 0x11
 7543 01cf 01       		.uleb128 0x1
 7544 01d0 12       		.uleb128 0x12
 7545 01d1 06       		.uleb128 0x6
 7546 01d2 40       		.uleb128 0x40
 7547 01d3 18       		.uleb128 0x18
 7548 01d4 9642     		.uleb128 0x2116
 7549 01d6 19       		.uleb128 0x19
 7550 01d7 01       		.uleb128 0x1
 7551 01d8 13       		.uleb128 0x13
 7552 01d9 00       		.byte	0
 7553 01da 00       		.byte	0
 7554 01db 1A       		.uleb128 0x1a
 7555 01dc 2E       		.uleb128 0x2e
 7556 01dd 00       		.byte	0
 7557 01de 3F       		.uleb128 0x3f
 7558 01df 19       		.uleb128 0x19
 7559 01e0 03       		.uleb128 0x3
 7560 01e1 0E       		.uleb128 0xe
 7561 01e2 3A       		.uleb128 0x3a
 7562 01e3 0B       		.uleb128 0xb
 7563 01e4 3B       		.uleb128 0x3b
 7564 01e5 05       		.uleb128 0x5
 7565 01e6 27       		.uleb128 0x27
 7566 01e7 19       		.uleb128 0x19
 7567 01e8 11       		.uleb128 0x11
 7568 01e9 01       		.uleb128 0x1
 7569 01ea 12       		.uleb128 0x12
 7570 01eb 06       		.uleb128 0x6
 7571 01ec 40       		.uleb128 0x40
 7572 01ed 18       		.uleb128 0x18
 7573 01ee 9642     		.uleb128 0x2116
 7574 01f0 19       		.uleb128 0x19
 7575 01f1 00       		.byte	0
 7576 01f2 00       		.byte	0
 7577 01f3 1B       		.uleb128 0x1b
 7578 01f4 01       		.uleb128 0x1
 7579 01f5 01       		.byte	0x1
 7580 01f6 49       		.uleb128 0x49
 7581 01f7 13       		.uleb128 0x13
 7582 01f8 01       		.uleb128 0x1
 7583 01f9 13       		.uleb128 0x13
 7584 01fa 00       		.byte	0
 7585 01fb 00       		.byte	0
 7586 01fc 1C       		.uleb128 0x1c
 7587 01fd 21       		.uleb128 0x21
ARM GAS  C:\Users\ben\AppData\Local\Temp\ccnBLHGm.s 			page 186


 7588 01fe 00       		.byte	0
 7589 01ff 49       		.uleb128 0x49
 7590 0200 13       		.uleb128 0x13
 7591 0201 2F       		.uleb128 0x2f
 7592 0202 0B       		.uleb128 0xb
 7593 0203 00       		.byte	0
 7594 0204 00       		.byte	0
 7595 0205 1D       		.uleb128 0x1d
 7596 0206 34       		.uleb128 0x34
 7597 0207 00       		.byte	0
 7598 0208 03       		.uleb128 0x3
 7599 0209 0E       		.uleb128 0xe
 7600 020a 3A       		.uleb128 0x3a
 7601 020b 0B       		.uleb128 0xb
 7602 020c 3B       		.uleb128 0x3b
 7603 020d 0B       		.uleb128 0xb
 7604 020e 49       		.uleb128 0x49
 7605 020f 13       		.uleb128 0x13
 7606 0210 3F       		.uleb128 0x3f
 7607 0211 19       		.uleb128 0x19
 7608 0212 02       		.uleb128 0x2
 7609 0213 18       		.uleb128 0x18
 7610 0214 00       		.byte	0
 7611 0215 00       		.byte	0
 7612 0216 00       		.byte	0
 7613              		.section	.debug_aranges,"",%progbits
 7614 0000 9C020000 		.4byte	0x29c
 7615 0004 0200     		.2byte	0x2
 7616 0006 00000000 		.4byte	.Ldebug_info0
 7617 000a 04       		.byte	0x4
 7618 000b 00       		.byte	0
 7619 000c 0000     		.2byte	0
 7620 000e 0000     		.2byte	0
 7621 0010 00000000 		.4byte	.LFB0
 7622 0014 B0000000 		.4byte	.LFE0-.LFB0
 7623 0018 00000000 		.4byte	.LFB1
 7624 001c 20000000 		.4byte	.LFE1-.LFB1
 7625 0020 00000000 		.4byte	.LFB2
 7626 0024 74000000 		.4byte	.LFE2-.LFB2
 7627 0028 00000000 		.4byte	.LFB3
 7628 002c 3A000000 		.4byte	.LFE3-.LFB3
 7629 0030 00000000 		.4byte	.LFB4
 7630 0034 94000000 		.4byte	.LFE4-.LFB4
 7631 0038 00000000 		.4byte	.LFB5
 7632 003c 34000000 		.4byte	.LFE5-.LFB5
 7633 0040 00000000 		.4byte	.LFB6
 7634 0044 60000000 		.4byte	.LFE6-.LFB6
 7635 0048 00000000 		.4byte	.LFB7
 7636 004c 00010000 		.4byte	.LFE7-.LFB7
 7637 0050 00000000 		.4byte	.LFB8
 7638 0054 A0010000 		.4byte	.LFE8-.LFB8
 7639 0058 00000000 		.4byte	.LFB9
 7640 005c 88000000 		.4byte	.LFE9-.LFB9
 7641 0060 00000000 		.4byte	.LFB10
 7642 0064 20000000 		.4byte	.LFE10-.LFB10
 7643 0068 00000000 		.4byte	.LFB11
 7644 006c 20000000 		.4byte	.LFE11-.LFB11
ARM GAS  C:\Users\ben\AppData\Local\Temp\ccnBLHGm.s 			page 187


 7645 0070 00000000 		.4byte	.LFB12
 7646 0074 34000000 		.4byte	.LFE12-.LFB12
 7647 0078 00000000 		.4byte	.LFB13
 7648 007c 20000000 		.4byte	.LFE13-.LFB13
 7649 0080 00000000 		.4byte	.LFB14
 7650 0084 78000000 		.4byte	.LFE14-.LFB14
 7651 0088 00000000 		.4byte	.LFB15
 7652 008c B4000000 		.4byte	.LFE15-.LFB15
 7653 0090 00000000 		.4byte	.LFB16
 7654 0094 34000000 		.4byte	.LFE16-.LFB16
 7655 0098 00000000 		.4byte	.LFB17
 7656 009c 20000000 		.4byte	.LFE17-.LFB17
 7657 00a0 00000000 		.4byte	.LFB18
 7658 00a4 20000000 		.4byte	.LFE18-.LFB18
 7659 00a8 00000000 		.4byte	.LFB19
 7660 00ac 20000000 		.4byte	.LFE19-.LFB19
 7661 00b0 00000000 		.4byte	.LFB20
 7662 00b4 20000000 		.4byte	.LFE20-.LFB20
 7663 00b8 00000000 		.4byte	.LFB21
 7664 00bc 20000000 		.4byte	.LFE21-.LFB21
 7665 00c0 00000000 		.4byte	.LFB22
 7666 00c4 20000000 		.4byte	.LFE22-.LFB22
 7667 00c8 00000000 		.4byte	.LFB23
 7668 00cc 38000000 		.4byte	.LFE23-.LFB23
 7669 00d0 00000000 		.4byte	.LFB24
 7670 00d4 4C000000 		.4byte	.LFE24-.LFB24
 7671 00d8 00000000 		.4byte	.LFB25
 7672 00dc 84000000 		.4byte	.LFE25-.LFB25
 7673 00e0 00000000 		.4byte	.LFB26
 7674 00e4 50000000 		.4byte	.LFE26-.LFB26
 7675 00e8 00000000 		.4byte	.LFB27
 7676 00ec 20000000 		.4byte	.LFE27-.LFB27
 7677 00f0 00000000 		.4byte	.LFB28
 7678 00f4 B4000000 		.4byte	.LFE28-.LFB28
 7679 00f8 00000000 		.4byte	.LFB29
 7680 00fc D0000000 		.4byte	.LFE29-.LFB29
 7681 0100 00000000 		.4byte	.LFB30
 7682 0104 20000000 		.4byte	.LFE30-.LFB30
 7683 0108 00000000 		.4byte	.LFB31
 7684 010c 20000000 		.4byte	.LFE31-.LFB31
 7685 0110 00000000 		.4byte	.LFB32
 7686 0114 20000000 		.4byte	.LFE32-.LFB32
 7687 0118 00000000 		.4byte	.LFB33
 7688 011c 28000000 		.4byte	.LFE33-.LFB33
 7689 0120 00000000 		.4byte	.LFB34
 7690 0124 20000000 		.4byte	.LFE34-.LFB34
 7691 0128 00000000 		.4byte	.LFB35
 7692 012c 20000000 		.4byte	.LFE35-.LFB35
 7693 0130 00000000 		.4byte	.LFB36
 7694 0134 34000000 		.4byte	.LFE36-.LFB36
 7695 0138 00000000 		.4byte	.LFB37
 7696 013c 34000000 		.4byte	.LFE37-.LFB37
 7697 0140 00000000 		.4byte	.LFB38
 7698 0144 38000000 		.4byte	.LFE38-.LFB38
 7699 0148 00000000 		.4byte	.LFB39
 7700 014c 16000000 		.4byte	.LFE39-.LFB39
 7701 0150 00000000 		.4byte	.LFB40
ARM GAS  C:\Users\ben\AppData\Local\Temp\ccnBLHGm.s 			page 188


 7702 0154 20000000 		.4byte	.LFE40-.LFB40
 7703 0158 00000000 		.4byte	.LFB41
 7704 015c 44000000 		.4byte	.LFE41-.LFB41
 7705 0160 00000000 		.4byte	.LFB42
 7706 0164 24000000 		.4byte	.LFE42-.LFB42
 7707 0168 00000000 		.4byte	.LFB43
 7708 016c 7C000000 		.4byte	.LFE43-.LFB43
 7709 0170 00000000 		.4byte	.LFB44
 7710 0174 8C000000 		.4byte	.LFE44-.LFB44
 7711 0178 00000000 		.4byte	.LFB45
 7712 017c 18000000 		.4byte	.LFE45-.LFB45
 7713 0180 00000000 		.4byte	.LFB46
 7714 0184 CC000000 		.4byte	.LFE46-.LFB46
 7715 0188 00000000 		.4byte	.LFB47
 7716 018c C8000000 		.4byte	.LFE47-.LFB47
 7717 0190 00000000 		.4byte	.LFB48
 7718 0194 48000000 		.4byte	.LFE48-.LFB48
 7719 0198 00000000 		.4byte	.LFB49
 7720 019c 40000000 		.4byte	.LFE49-.LFB49
 7721 01a0 00000000 		.4byte	.LFB50
 7722 01a4 78000000 		.4byte	.LFE50-.LFB50
 7723 01a8 00000000 		.4byte	.LFB51
 7724 01ac 2C000000 		.4byte	.LFE51-.LFB51
 7725 01b0 00000000 		.4byte	.LFB52
 7726 01b4 5C000000 		.4byte	.LFE52-.LFB52
 7727 01b8 00000000 		.4byte	.LFB53
 7728 01bc 30000000 		.4byte	.LFE53-.LFB53
 7729 01c0 00000000 		.4byte	.LFB54
 7730 01c4 34000000 		.4byte	.LFE54-.LFB54
 7731 01c8 00000000 		.4byte	.LFB55
 7732 01cc 28000000 		.4byte	.LFE55-.LFB55
 7733 01d0 00000000 		.4byte	.LFB56
 7734 01d4 58000000 		.4byte	.LFE56-.LFB56
 7735 01d8 00000000 		.4byte	.LFB57
 7736 01dc 44000000 		.4byte	.LFE57-.LFB57
 7737 01e0 00000000 		.4byte	.LFB58
 7738 01e4 30000000 		.4byte	.LFE58-.LFB58
 7739 01e8 00000000 		.4byte	.LFB59
 7740 01ec 48000000 		.4byte	.LFE59-.LFB59
 7741 01f0 00000000 		.4byte	.LFB60
 7742 01f4 30000000 		.4byte	.LFE60-.LFB60
 7743 01f8 00000000 		.4byte	.LFB61
 7744 01fc 30000000 		.4byte	.LFE61-.LFB61
 7745 0200 00000000 		.4byte	.LFB62
 7746 0204 2E000000 		.4byte	.LFE62-.LFB62
 7747 0208 00000000 		.4byte	.LFB63
 7748 020c 3C000000 		.4byte	.LFE63-.LFB63
 7749 0210 00000000 		.4byte	.LFB64
 7750 0214 20000000 		.4byte	.LFE64-.LFB64
 7751 0218 00000000 		.4byte	.LFB65
 7752 021c 68000000 		.4byte	.LFE65-.LFB65
 7753 0220 00000000 		.4byte	.LFB66
 7754 0224 1C000000 		.4byte	.LFE66-.LFB66
 7755 0228 00000000 		.4byte	.LFB67
 7756 022c 1C000000 		.4byte	.LFE67-.LFB67
 7757 0230 00000000 		.4byte	.LFB68
 7758 0234 1C000000 		.4byte	.LFE68-.LFB68
ARM GAS  C:\Users\ben\AppData\Local\Temp\ccnBLHGm.s 			page 189


 7759 0238 00000000 		.4byte	.LFB69
 7760 023c 1C000000 		.4byte	.LFE69-.LFB69
 7761 0240 00000000 		.4byte	.LFB70
 7762 0244 20000000 		.4byte	.LFE70-.LFB70
 7763 0248 00000000 		.4byte	.LFB71
 7764 024c 1C000000 		.4byte	.LFE71-.LFB71
 7765 0250 00000000 		.4byte	.LFB72
 7766 0254 1C000000 		.4byte	.LFE72-.LFB72
 7767 0258 00000000 		.4byte	.LFB73
 7768 025c 38000000 		.4byte	.LFE73-.LFB73
 7769 0260 00000000 		.4byte	.LFB74
 7770 0264 1C000000 		.4byte	.LFE74-.LFB74
 7771 0268 00000000 		.4byte	.LFB75
 7772 026c 1C000000 		.4byte	.LFE75-.LFB75
 7773 0270 00000000 		.4byte	.LFB76
 7774 0274 18000000 		.4byte	.LFE76-.LFB76
 7775 0278 00000000 		.4byte	.LFB77
 7776 027c 30000000 		.4byte	.LFE77-.LFB77
 7777 0280 00000000 		.4byte	.LFB78
 7778 0284 20000000 		.4byte	.LFE78-.LFB78
 7779 0288 00000000 		.4byte	.LFB79
 7780 028c 44000000 		.4byte	.LFE79-.LFB79
 7781 0290 00000000 		.4byte	.LFB80
 7782 0294 C4000000 		.4byte	.LFE80-.LFB80
 7783 0298 00000000 		.4byte	0
 7784 029c 00000000 		.4byte	0
 7785              		.section	.debug_ranges,"",%progbits
 7786              	.Ldebug_ranges0:
 7787 0000 00000000 		.4byte	.LFB0
 7788 0004 B0000000 		.4byte	.LFE0
 7789 0008 00000000 		.4byte	.LFB1
 7790 000c 20000000 		.4byte	.LFE1
 7791 0010 00000000 		.4byte	.LFB2
 7792 0014 74000000 		.4byte	.LFE2
 7793 0018 00000000 		.4byte	.LFB3
 7794 001c 3A000000 		.4byte	.LFE3
 7795 0020 00000000 		.4byte	.LFB4
 7796 0024 94000000 		.4byte	.LFE4
 7797 0028 00000000 		.4byte	.LFB5
 7798 002c 34000000 		.4byte	.LFE5
 7799 0030 00000000 		.4byte	.LFB6
 7800 0034 60000000 		.4byte	.LFE6
 7801 0038 00000000 		.4byte	.LFB7
 7802 003c 00010000 		.4byte	.LFE7
 7803 0040 00000000 		.4byte	.LFB8
 7804 0044 A0010000 		.4byte	.LFE8
 7805 0048 00000000 		.4byte	.LFB9
 7806 004c 88000000 		.4byte	.LFE9
 7807 0050 00000000 		.4byte	.LFB10
 7808 0054 20000000 		.4byte	.LFE10
 7809 0058 00000000 		.4byte	.LFB11
 7810 005c 20000000 		.4byte	.LFE11
 7811 0060 00000000 		.4byte	.LFB12
 7812 0064 34000000 		.4byte	.LFE12
 7813 0068 00000000 		.4byte	.LFB13
 7814 006c 20000000 		.4byte	.LFE13
 7815 0070 00000000 		.4byte	.LFB14
ARM GAS  C:\Users\ben\AppData\Local\Temp\ccnBLHGm.s 			page 190


 7816 0074 78000000 		.4byte	.LFE14
 7817 0078 00000000 		.4byte	.LFB15
 7818 007c B4000000 		.4byte	.LFE15
 7819 0080 00000000 		.4byte	.LFB16
 7820 0084 34000000 		.4byte	.LFE16
 7821 0088 00000000 		.4byte	.LFB17
 7822 008c 20000000 		.4byte	.LFE17
 7823 0090 00000000 		.4byte	.LFB18
 7824 0094 20000000 		.4byte	.LFE18
 7825 0098 00000000 		.4byte	.LFB19
 7826 009c 20000000 		.4byte	.LFE19
 7827 00a0 00000000 		.4byte	.LFB20
 7828 00a4 20000000 		.4byte	.LFE20
 7829 00a8 00000000 		.4byte	.LFB21
 7830 00ac 20000000 		.4byte	.LFE21
 7831 00b0 00000000 		.4byte	.LFB22
 7832 00b4 20000000 		.4byte	.LFE22
 7833 00b8 00000000 		.4byte	.LFB23
 7834 00bc 38000000 		.4byte	.LFE23
 7835 00c0 00000000 		.4byte	.LFB24
 7836 00c4 4C000000 		.4byte	.LFE24
 7837 00c8 00000000 		.4byte	.LFB25
 7838 00cc 84000000 		.4byte	.LFE25
 7839 00d0 00000000 		.4byte	.LFB26
 7840 00d4 50000000 		.4byte	.LFE26
 7841 00d8 00000000 		.4byte	.LFB27
 7842 00dc 20000000 		.4byte	.LFE27
 7843 00e0 00000000 		.4byte	.LFB28
 7844 00e4 B4000000 		.4byte	.LFE28
 7845 00e8 00000000 		.4byte	.LFB29
 7846 00ec D0000000 		.4byte	.LFE29
 7847 00f0 00000000 		.4byte	.LFB30
 7848 00f4 20000000 		.4byte	.LFE30
 7849 00f8 00000000 		.4byte	.LFB31
 7850 00fc 20000000 		.4byte	.LFE31
 7851 0100 00000000 		.4byte	.LFB32
 7852 0104 20000000 		.4byte	.LFE32
 7853 0108 00000000 		.4byte	.LFB33
 7854 010c 28000000 		.4byte	.LFE33
 7855 0110 00000000 		.4byte	.LFB34
 7856 0114 20000000 		.4byte	.LFE34
 7857 0118 00000000 		.4byte	.LFB35
 7858 011c 20000000 		.4byte	.LFE35
 7859 0120 00000000 		.4byte	.LFB36
 7860 0124 34000000 		.4byte	.LFE36
 7861 0128 00000000 		.4byte	.LFB37
 7862 012c 34000000 		.4byte	.LFE37
 7863 0130 00000000 		.4byte	.LFB38
 7864 0134 38000000 		.4byte	.LFE38
 7865 0138 00000000 		.4byte	.LFB39
 7866 013c 16000000 		.4byte	.LFE39
 7867 0140 00000000 		.4byte	.LFB40
 7868 0144 20000000 		.4byte	.LFE40
 7869 0148 00000000 		.4byte	.LFB41
 7870 014c 44000000 		.4byte	.LFE41
 7871 0150 00000000 		.4byte	.LFB42
 7872 0154 24000000 		.4byte	.LFE42
ARM GAS  C:\Users\ben\AppData\Local\Temp\ccnBLHGm.s 			page 191


 7873 0158 00000000 		.4byte	.LFB43
 7874 015c 7C000000 		.4byte	.LFE43
 7875 0160 00000000 		.4byte	.LFB44
 7876 0164 8C000000 		.4byte	.LFE44
 7877 0168 00000000 		.4byte	.LFB45
 7878 016c 18000000 		.4byte	.LFE45
 7879 0170 00000000 		.4byte	.LFB46
 7880 0174 CC000000 		.4byte	.LFE46
 7881 0178 00000000 		.4byte	.LFB47
 7882 017c C8000000 		.4byte	.LFE47
 7883 0180 00000000 		.4byte	.LFB48
 7884 0184 48000000 		.4byte	.LFE48
 7885 0188 00000000 		.4byte	.LFB49
 7886 018c 40000000 		.4byte	.LFE49
 7887 0190 00000000 		.4byte	.LFB50
 7888 0194 78000000 		.4byte	.LFE50
 7889 0198 00000000 		.4byte	.LFB51
 7890 019c 2C000000 		.4byte	.LFE51
 7891 01a0 00000000 		.4byte	.LFB52
 7892 01a4 5C000000 		.4byte	.LFE52
 7893 01a8 00000000 		.4byte	.LFB53
 7894 01ac 30000000 		.4byte	.LFE53
 7895 01b0 00000000 		.4byte	.LFB54
 7896 01b4 34000000 		.4byte	.LFE54
 7897 01b8 00000000 		.4byte	.LFB55
 7898 01bc 28000000 		.4byte	.LFE55
 7899 01c0 00000000 		.4byte	.LFB56
 7900 01c4 58000000 		.4byte	.LFE56
 7901 01c8 00000000 		.4byte	.LFB57
 7902 01cc 44000000 		.4byte	.LFE57
 7903 01d0 00000000 		.4byte	.LFB58
 7904 01d4 30000000 		.4byte	.LFE58
 7905 01d8 00000000 		.4byte	.LFB59
 7906 01dc 48000000 		.4byte	.LFE59
 7907 01e0 00000000 		.4byte	.LFB60
 7908 01e4 30000000 		.4byte	.LFE60
 7909 01e8 00000000 		.4byte	.LFB61
 7910 01ec 30000000 		.4byte	.LFE61
 7911 01f0 00000000 		.4byte	.LFB62
 7912 01f4 2E000000 		.4byte	.LFE62
 7913 01f8 00000000 		.4byte	.LFB63
 7914 01fc 3C000000 		.4byte	.LFE63
 7915 0200 00000000 		.4byte	.LFB64
 7916 0204 20000000 		.4byte	.LFE64
 7917 0208 00000000 		.4byte	.LFB65
 7918 020c 68000000 		.4byte	.LFE65
 7919 0210 00000000 		.4byte	.LFB66
 7920 0214 1C000000 		.4byte	.LFE66
 7921 0218 00000000 		.4byte	.LFB67
 7922 021c 1C000000 		.4byte	.LFE67
 7923 0220 00000000 		.4byte	.LFB68
 7924 0224 1C000000 		.4byte	.LFE68
 7925 0228 00000000 		.4byte	.LFB69
 7926 022c 1C000000 		.4byte	.LFE69
 7927 0230 00000000 		.4byte	.LFB70
 7928 0234 20000000 		.4byte	.LFE70
 7929 0238 00000000 		.4byte	.LFB71
ARM GAS  C:\Users\ben\AppData\Local\Temp\ccnBLHGm.s 			page 192


 7930 023c 1C000000 		.4byte	.LFE71
 7931 0240 00000000 		.4byte	.LFB72
 7932 0244 1C000000 		.4byte	.LFE72
 7933 0248 00000000 		.4byte	.LFB73
 7934 024c 38000000 		.4byte	.LFE73
 7935 0250 00000000 		.4byte	.LFB74
 7936 0254 1C000000 		.4byte	.LFE74
 7937 0258 00000000 		.4byte	.LFB75
 7938 025c 1C000000 		.4byte	.LFE75
 7939 0260 00000000 		.4byte	.LFB76
 7940 0264 18000000 		.4byte	.LFE76
 7941 0268 00000000 		.4byte	.LFB77
 7942 026c 30000000 		.4byte	.LFE77
 7943 0270 00000000 		.4byte	.LFB78
 7944 0274 20000000 		.4byte	.LFE78
 7945 0278 00000000 		.4byte	.LFB79
 7946 027c 44000000 		.4byte	.LFE79
 7947 0280 00000000 		.4byte	.LFB80
 7948 0284 C4000000 		.4byte	.LFE80
 7949 0288 00000000 		.4byte	0
 7950 028c 00000000 		.4byte	0
 7951              		.section	.debug_line,"",%progbits
 7952              	.Ldebug_line0:
 7953 0000 28080000 		.section	.debug_str,"MS",%progbits,1
 7953      02004D00 
 7953      00000201 
 7953      FB0E0D00 
 7953      01010101 
 7954              	.LASF126:
 7955 0000 4379496E 		.ascii	"CyIntGetVector\000"
 7955      74476574 
 7955      56656374 
 7955      6F7200
 7956              	.LASF146:
 7957 000f 43795379 		.ascii	"CySysTickClear\000"
 7957      73546963 
 7957      6B436C65 
 7957      617200
 7958              	.LASF91:
 7959 001e 43794465 		.ascii	"CyDelay\000"
 7959      6C617900 
 7960              	.LASF127:
 7961 0026 4379496E 		.ascii	"CyIntSetPriority\000"
 7961      74536574 
 7961      5072696F 
 7961      72697479 
 7961      00
 7962              	.LASF51:
 7963 0037 4379494D 		.ascii	"CyIMO_SetTrimValue\000"
 7963      4F5F5365 
 7963      74547269 
 7963      6D56616C 
 7963      756500
 7964              	.LASF81:
 7965 004a 43795854 		.ascii	"CyXTAL_ReadStatus\000"
 7965      414C5F52 
 7965      65616453 
ARM GAS  C:\Users\ben\AppData\Local\Temp\ccnBLHGm.s 			page 193


 7965      74617475 
 7965      7300
 7966              	.LASF129:
 7967 005c 4379496E 		.ascii	"CyIntGetPriority\000"
 7967      74476574 
 7967      5072696F 
 7967      72697479 
 7967      00
 7968              	.LASF99:
 7969 006d 43795764 		.ascii	"CyWdtClear\000"
 7969      74436C65 
 7969      617200
 7970              	.LASF162:
 7971 0078 47656E65 		.ascii	"Generated_Source\\PSoC5\\CyLib.c\000"
 7971      72617465 
 7971      645F536F 
 7971      75726365 
 7971      5C50536F 
 7972              	.LASF158:
 7973 0097 63796465 		.ascii	"cydelay_freq_mhz\000"
 7973      6C61795F 
 7973      66726571 
 7973      5F6D687A 
 7973      00
 7974              	.LASF92:
 7975 00a8 6D696C6C 		.ascii	"milliseconds\000"
 7975      69736563 
 7975      6F6E6473 
 7975      00
 7976              	.LASF63:
 7977 00b5 4379494C 		.ascii	"CyILO_Disable33K\000"
 7977      4F5F4469 
 7977      7361626C 
 7977      6533334B 
 7977      00
 7978              	.LASF30:
 7979 00c6 4379504C 		.ascii	"CyPLL_OUT_SetPQ\000"
 7979      4C5F4F55 
 7979      545F5365 
 7979      74505100 
 7980              	.LASF75:
 7981 00d6 706D5477 		.ascii	"pmTwCfg0Tmp\000"
 7981      43666730 
 7981      546D7000 
 7982              	.LASF34:
 7983 00e2 706D4674 		.ascii	"pmFtwCfg2Reg\000"
 7983      77436667 
 7983      32526567 
 7983      00
 7984              	.LASF0:
 7985 00ef 756E7369 		.ascii	"unsigned int\000"
 7985      676E6564 
 7985      20696E74 
 7985      00
 7986              	.LASF54:
 7987 00fc 6D617374 		.ascii	"masterClkDiv\000"
 7987      6572436C 
ARM GAS  C:\Users\ben\AppData\Local\Temp\ccnBLHGm.s 			page 194


 7987      6B446976 
 7987      00
 7988              	.LASF79:
 7989 0109 43795854 		.ascii	"CyXTAL_DisableErrStatus\000"
 7989      414C5F44 
 7989      69736162 
 7989      6C654572 
 7989      72537461 
 7990              	.LASF110:
 7991 0121 6D61736B 		.ascii	"mask\000"
 7991      00
 7992              	.LASF98:
 7993 0126 6C704D6F 		.ascii	"lpMode\000"
 7993      646500
 7994              	.LASF56:
 7995 012d 696E7465 		.ascii	"interruptState\000"
 7995      72727570 
 7995      74537461 
 7995      746500
 7996              	.LASF17:
 7997 013c 72656738 		.ascii	"reg8\000"
 7997      00
 7998              	.LASF97:
 7999 0141 7469636B 		.ascii	"ticks\000"
 7999      7300
 8000              	.LASF84:
 8001 0147 43795854 		.ascii	"CyXTAL_SetStartup\000"
 8001      414C5F53 
 8001      65745374 
 8001      61727475 
 8001      7000
 8002              	.LASF59:
 8003 0159 4379494C 		.ascii	"CyILO_Stop1K\000"
 8003      4F5F5374 
 8003      6F70314B 
 8003      00
 8004              	.LASF67:
 8005 0166 6D6F6465 		.ascii	"mode\000"
 8005      00
 8006              	.LASF160:
 8007 016b 43795379 		.ascii	"CySysTickInitVar\000"
 8007      73546963 
 8007      6B496E69 
 8007      74566172 
 8007      00
 8008              	.LASF46:
 8009 017c 4379494D 		.ascii	"CyIMO_EnableDoubler\000"
 8009      4F5F456E 
 8009      61626C65 
 8009      446F7562 
 8009      6C657200 
 8010              	.LASF27:
 8011 0190 70446976 		.ascii	"pDiv\000"
 8011      00
 8012              	.LASF147:
 8013 0195 43795379 		.ascii	"CySysTickSetCallback\000"
 8013      73546963 
ARM GAS  C:\Users\ben\AppData\Local\Temp\ccnBLHGm.s 			page 195


 8013      6B536574 
 8013      43616C6C 
 8013      6261636B 
 8014              	.LASF105:
 8015 01aa 43795664 		.ascii	"CyVdLvDigitDisable\000"
 8015      4C764469 
 8015      67697444 
 8015      69736162 
 8015      6C6500
 8016              	.LASF77:
 8017 01bd 43795854 		.ascii	"CyXTAL_Stop\000"
 8017      414C5F53 
 8017      746F7000 
 8018              	.LASF117:
 8019 01c9 4379456E 		.ascii	"CyEnableInts\000"
 8019      61626C65 
 8019      496E7473 
 8019      00
 8020              	.LASF83:
 8021 01d6 43795854 		.ascii	"CyXTAL_DisableFaultRecovery\000"
 8021      414C5F44 
 8021      69736162 
 8021      6C654661 
 8021      756C7452 
 8022              	.LASF103:
 8023 01f2 696E7452 		.ascii	"intRegTmp\000"
 8023      6567546D 
 8023      7000
 8024              	.LASF42:
 8025 01fc 4379494D 		.ascii	"CyIMO_SetFreq\000"
 8025      4F5F5365 
 8025      74467265 
 8025      7100
 8026              	.LASF85:
 8027 020a 73657474 		.ascii	"setting\000"
 8027      696E6700 
 8028              	.LASF76:
 8029 0212 706D5477 		.ascii	"pmTwCfg2Tmp\000"
 8029      43666732 
 8029      546D7000 
 8030              	.LASF14:
 8031 021e 666C6F61 		.ascii	"float\000"
 8031      7400
 8032              	.LASF49:
 8033 0224 43794D61 		.ascii	"CyMasterClk_SetDivider\000"
 8033      73746572 
 8033      436C6B5F 
 8033      53657444 
 8033      69766964 
 8034              	.LASF37:
 8035 023b 4379504C 		.ascii	"CyPLL_OUT_Stop\000"
 8035      4C5F4F55 
 8035      545F5374 
 8035      6F7000
 8036              	.LASF140:
 8037 024a 43795379 		.ascii	"CySysTickGetReload\000"
 8037      73546963 
ARM GAS  C:\Users\ben\AppData\Local\Temp\ccnBLHGm.s 			page 196


 8037      6B476574 
 8037      52656C6F 
 8037      616400
 8038              	.LASF44:
 8039 025d 6E657874 		.ascii	"nextFreq\000"
 8039      46726571 
 8039      00
 8040              	.LASF157:
 8041 0266 63796465 		.ascii	"cydelay_freq_khz\000"
 8041      6C61795F 
 8041      66726571 
 8041      5F6B687A 
 8041      00
 8042              	.LASF93:
 8043 0277 43794465 		.ascii	"CyDelayUs\000"
 8043      6C617955 
 8043      7300
 8044              	.LASF8:
 8045 0281 6C6F6E67 		.ascii	"long long unsigned int\000"
 8045      206C6F6E 
 8045      6720756E 
 8045      7369676E 
 8045      65642069 
 8046              	.LASF89:
 8047 0298 72656173 		.ascii	"reason\000"
 8047      6F6E00
 8048              	.LASF69:
 8049 029f 43795854 		.ascii	"CyXTAL_32KHZ_Start\000"
 8049      414C5F33 
 8049      324B485A 
 8049      5F537461 
 8049      727400
 8050              	.LASF72:
 8051 02b2 43795854 		.ascii	"CyXTAL_Start\000"
 8051      414C5F53 
 8051      74617274 
 8051      00
 8052              	.LASF71:
 8053 02bf 43795854 		.ascii	"CyXTAL_32KHZ_SetPowerMode\000"
 8053      414C5F33 
 8053      324B485A 
 8053      5F536574 
 8053      506F7765 
 8054              	.LASF136:
 8055 02d9 43795379 		.ascii	"CySysTickEnableInterrupt\000"
 8055      73546963 
 8055      6B456E61 
 8055      626C6549 
 8055      6E746572 
 8056              	.LASF52:
 8057 02f2 43794275 		.ascii	"CyBusClk_Internal_SetDivider\000"
 8057      73436C6B 
 8057      5F496E74 
 8057      65726E61 
 8057      6C5F5365 
 8058              	.LASF135:
 8059 030f 43795379 		.ascii	"CySysTickStop\000"
ARM GAS  C:\Users\ben\AppData\Local\Temp\ccnBLHGm.s 			page 197


 8059      73546963 
 8059      6B53746F 
 8059      7000
 8060              	.LASF130:
 8061 031d 4379496E 		.ascii	"CyIntGetState\000"
 8061      74476574 
 8061      53746174 
 8061      6500
 8062              	.LASF38:
 8063 032b 4379494D 		.ascii	"CyIMO_Stop\000"
 8063      4F5F5374 
 8063      6F7000
 8064              	.LASF150:
 8065 0336 43795379 		.ascii	"CySysTickGetCallback\000"
 8065      73546963 
 8065      6B476574 
 8065      43616C6C 
 8065      6261636B 
 8066              	.LASF104:
 8067 034b 43795664 		.ascii	"CyVdLvAnalogEnable\000"
 8067      4C76416E 
 8067      616C6F67 
 8067      456E6162 
 8067      6C6500
 8068              	.LASF122:
 8069 035e 6F6C6449 		.ascii	"oldIsr\000"
 8069      737200
 8070              	.LASF55:
 8071 0365 62757343 		.ascii	"busClkDiv\000"
 8071      6C6B4469 
 8071      7600
 8072              	.LASF43:
 8073 036f 63757272 		.ascii	"currentFreq\000"
 8073      656E7446 
 8073      72657100 
 8074              	.LASF114:
 8075 037b 7664466C 		.ascii	"vdFlagsState\000"
 8075      61677353 
 8075      74617465 
 8075      00
 8076              	.LASF58:
 8077 0388 4379494C 		.ascii	"CyILO_Start1K\000"
 8077      4F5F5374 
 8077      61727431 
 8077      4B00
 8078              	.LASF40:
 8079 0396 66726571 		.ascii	"freq\000"
 8079      00
 8080              	.LASF164:
 8081 039b 43795553 		.ascii	"CyUSB_PowerOnCheck\000"
 8081      425F506F 
 8081      7765724F 
 8081      6E436865 
 8081      636B00
 8082              	.LASF111:
 8083 03ae 696E7465 		.ascii	"interruptStatus\000"
 8083      72727570 
ARM GAS  C:\Users\ben\AppData\Local\Temp\ccnBLHGm.s 			page 198


 8083      74537461 
 8083      74757300 
 8084              	.LASF159:
 8085 03be 63796465 		.ascii	"cydelay_32k_ms\000"
 8085      6C61795F 
 8085      33326B5F 
 8085      6D7300
 8086              	.LASF74:
 8087 03cd 636F756E 		.ascii	"count\000"
 8087      7400
 8088              	.LASF21:
 8089 03d3 63795379 		.ascii	"cySysTickCallback\000"
 8089      73546963 
 8089      6B43616C 
 8089      6C626163 
 8089      6B00
 8090              	.LASF10:
 8091 03e5 63686172 		.ascii	"char\000"
 8091      00
 8092              	.LASF145:
 8093 03ea 43795379 		.ascii	"CySysTickGetCountFlag\000"
 8093      73546963 
 8093      6B476574 
 8093      436F756E 
 8093      74466C61 
 8094              	.LASF65:
 8095 0400 4379504C 		.ascii	"CyPLL_OUT_Start\000"
 8095      4C5F4F55 
 8095      545F5374 
 8095      61727400 
 8096              	.LASF116:
 8097 0410 696E7453 		.ascii	"intState\000"
 8097      74617465 
 8097      00
 8098              	.LASF12:
 8099 0419 75696E74 		.ascii	"uint16\000"
 8099      313600
 8100              	.LASF39:
 8101 0420 706F7765 		.ascii	"poweredOn\000"
 8101      7265644F 
 8101      6E00
 8102              	.LASF125:
 8103 042a 4379496E 		.ascii	"CyIntSetVector\000"
 8103      74536574 
 8103      56656374 
 8103      6F7200
 8104              	.LASF22:
 8105 0439 73746174 		.ascii	"status\000"
 8105      757300
 8106              	.LASF100:
 8107 0440 43795664 		.ascii	"CyVdLvDigitEnable\000"
 8107      4C764469 
 8107      67697445 
 8107      6E61626C 
 8107      6500
 8108              	.LASF156:
 8109 0452 63796465 		.ascii	"cydelay_freq_hz\000"
ARM GAS  C:\Users\ben\AppData\Local\Temp\ccnBLHGm.s 			page 199


 8109      6C61795F 
 8109      66726571 
 8109      5F687A00 
 8110              	.LASF163:
 8111 0462 433A5C55 		.ascii	"C:\\Users\\ben\\Documents\\PSoC Creator\\New Pedal "
 8111      73657273 
 8111      5C62656E 
 8111      5C446F63 
 8111      756D656E 
 8112 0490 5468696E 		.ascii	"Thingz\\PSOC_BIT_MANGLER\\BIT-MANGLER\\ADC_DAC.cyds"
 8112      677A5C50 
 8112      534F435F 
 8112      4249545F 
 8112      4D414E47 
 8113 04c0 6E00     		.ascii	"n\000"
 8114              	.LASF107:
 8115 04c2 43795664 		.ascii	"CyVdHvAnalogEnable\000"
 8115      4876416E 
 8115      616C6F67 
 8115      456E6162 
 8115      6C6500
 8116              	.LASF64:
 8117 04d5 4379494C 		.ascii	"CyILO_SetSource\000"
 8117      4F5F5365 
 8117      74536F75 
 8117      72636500 
 8118              	.LASF7:
 8119 04e5 6C6F6E67 		.ascii	"long long int\000"
 8119      206C6F6E 
 8119      6720696E 
 8119      7400
 8120              	.LASF18:
 8121 04f3 72656731 		.ascii	"reg16\000"
 8121      3600
 8122              	.LASF134:
 8123 04f9 43795379 		.ascii	"CySysTickEnable\000"
 8123      73546963 
 8123      6B456E61 
 8123      626C6500 
 8124              	.LASF87:
 8125 0509 43795854 		.ascii	"CyXTAL_SetWdVoltage\000"
 8125      414C5F53 
 8125      65745764 
 8125      566F6C74 
 8125      61676500 
 8126              	.LASF33:
 8127 051d 4379494D 		.ascii	"CyIMO_Start\000"
 8127      4F5F5374 
 8127      61727400 
 8128              	.LASF66:
 8129 0529 4379494C 		.ascii	"CyILO_SetPowerMode\000"
 8129      4F5F5365 
 8129      74506F77 
 8129      65724D6F 
 8129      646500
 8130              	.LASF124:
 8131 053c 4379496E 		.ascii	"CyIntGetSysVector\000"
ARM GAS  C:\Users\ben\AppData\Local\Temp\ccnBLHGm.s 			page 200


 8131      74476574 
 8131      53797356 
 8131      6563746F 
 8131      7200
 8132              	.LASF154:
 8133 054e 43795379 		.ascii	"CySysTickCallbacks\000"
 8133      73546963 
 8133      6B43616C 
 8133      6C626163 
 8133      6B7300
 8134              	.LASF161:
 8135 0561 474E5520 		.ascii	"GNU C 4.9.3 20150303 (release) [ARM/embedded-4_9-br"
 8135      4320342E 
 8135      392E3320 
 8135      32303135 
 8135      30333033 
 8136 0594 616E6368 		.ascii	"anch revision 221220] -mcpu=cortex-m3 -mthumb -g -O"
 8136      20726576 
 8136      6973696F 
 8136      6E203232 
 8136      31323230 
 8137 05c7 30202D66 		.ascii	"0 -ffunction-sections -ffat-lto-objects\000"
 8137      66756E63 
 8137      74696F6E 
 8137      2D736563 
 8137      74696F6E 
 8138              	.LASF24:
 8139 05ef 706D5477 		.ascii	"pmTwCfg0State\000"
 8139      43666730 
 8139      53746174 
 8139      6500
 8140              	.LASF20:
 8141 05fd 63796973 		.ascii	"cyisraddress\000"
 8141      72616464 
 8141      72657373 
 8141      00
 8142              	.LASF78:
 8143 060a 43795854 		.ascii	"CyXTAL_EnableErrStatus\000"
 8143      414C5F45 
 8143      6E61626C 
 8143      65457272 
 8143      53746174 
 8144              	.LASF13:
 8145 0621 75696E74 		.ascii	"uint32\000"
 8145      333200
 8146              	.LASF141:
 8147 0628 43795379 		.ascii	"CySysTickGetValue\000"
 8147      73546963 
 8147      6B476574 
 8147      56616C75 
 8147      6500
 8148              	.LASF132:
 8149 063a 43795379 		.ascii	"CySysTickStart\000"
 8149      73546963 
 8149      6B537461 
 8149      727400
 8150              	.LASF151:
ARM GAS  C:\Users\ben\AppData\Local\Temp\ccnBLHGm.s 			page 201


 8151 0649 43795379 		.ascii	"CySysTickServiceCallbacks\000"
 8151      73546963 
 8151      6B536572 
 8151      76696365 
 8151      43616C6C 
 8152              	.LASF80:
 8153 0663 43795854 		.ascii	"CyXTAL_32KHZ_ReadStatus\000"
 8153      414C5F33 
 8153      324B485A 
 8153      5F526561 
 8153      64537461 
 8154              	.LASF142:
 8155 067b 43795379 		.ascii	"CySysTickSetClockSource\000"
 8155      73546963 
 8155      6B536574 
 8155      436C6F63 
 8155      6B536F75 
 8156              	.LASF96:
 8157 0693 43795764 		.ascii	"CyWdtStart\000"
 8157      74537461 
 8157      727400
 8158              	.LASF26:
 8159 069e 77616974 		.ascii	"wait\000"
 8159      00
 8160              	.LASF70:
 8161 06a3 43795854 		.ascii	"CyXTAL_32KHZ_Stop\000"
 8161      414C5F33 
 8161      324B485A 
 8161      5F53746F 
 8161      7000
 8162              	.LASF48:
 8163 06b5 43794D61 		.ascii	"CyMasterClk_SetSource\000"
 8163      73746572 
 8163      436C6B5F 
 8163      53657453 
 8163      6F757263 
 8164              	.LASF60:
 8165 06cb 4379494C 		.ascii	"CyILO_Start100K\000"
 8165      4F5F5374 
 8165      61727431 
 8165      30304B00 
 8166              	.LASF47:
 8167 06db 4379494D 		.ascii	"CyIMO_DisableDoubler\000"
 8167      4F5F4469 
 8167      7361626C 
 8167      65446F75 
 8167      626C6572 
 8168              	.LASF118:
 8169 06f0 4379466C 		.ascii	"CyFlushCache\000"
 8169      75736843 
 8169      61636865 
 8169      00
 8170              	.LASF115:
 8171 06fd 43794469 		.ascii	"CyDisableInts\000"
 8171      7361626C 
 8171      65496E74 
 8171      7300
ARM GAS  C:\Users\ben\AppData\Local\Temp\ccnBLHGm.s 			page 202


 8172              	.LASF19:
 8173 070b 72656733 		.ascii	"reg32\000"
 8173      3200
 8174              	.LASF143:
 8175 0711 636C6F63 		.ascii	"clockSource\000"
 8175      6B536F75 
 8175      72636500 
 8176              	.LASF41:
 8177 071d 75736250 		.ascii	"usbPowerOn\000"
 8177      6F776572 
 8177      4F6E00
 8178              	.LASF31:
 8179 0728 4379504C 		.ascii	"CyPLL_OUT_SetSource\000"
 8179      4C5F4F55 
 8179      545F5365 
 8179      74536F75 
 8179      72636500 
 8180              	.LASF138:
 8181 073c 43795379 		.ascii	"CySysTickSetReload\000"
 8181      73546963 
 8181      6B536574 
 8181      52656C6F 
 8181      616400
 8182              	.LASF3:
 8183 074f 73686F72 		.ascii	"short int\000"
 8183      7420696E 
 8183      7400
 8184              	.LASF50:
 8185 0759 64697669 		.ascii	"divider\000"
 8185      64657200 
 8186              	.LASF5:
 8187 0761 6C6F6E67 		.ascii	"long int\000"
 8187      20696E74 
 8187      00
 8188              	.LASF95:
 8189 076a 43794465 		.ascii	"CyDelayFreq\000"
 8189      6C617946 
 8189      72657100 
 8190              	.LASF131:
 8191 0776 73746174 		.ascii	"stateReg\000"
 8191      65526567 
 8191      00
 8192              	.LASF119:
 8193 077f 4379496E 		.ascii	"CyIntSetSysVector\000"
 8193      74536574 
 8193      53797356 
 8193      6563746F 
 8193      7200
 8194              	.LASF128:
 8195 0791 7072696F 		.ascii	"priority\000"
 8195      72697479 
 8195      00
 8196              	.LASF155:
 8197 079a 43795265 		.ascii	"CyResetStatus\000"
 8197      73657453 
 8197      74617475 
 8197      7300
ARM GAS  C:\Users\ben\AppData\Local\Temp\ccnBLHGm.s 			page 203


 8198              	.LASF137:
 8199 07a8 43795379 		.ascii	"CySysTickDisableInterrupt\000"
 8199      73546963 
 8199      6B446973 
 8199      61626C65 
 8199      496E7465 
 8200              	.LASF25:
 8201 07c2 706D5477 		.ascii	"pmTwCfg2State\000"
 8201      43666732 
 8201      53746174 
 8201      6500
 8202              	.LASF106:
 8203 07d0 43795664 		.ascii	"CyVdLvAnalogDisable\000"
 8203      4C76416E 
 8203      616C6F67 
 8203      44697361 
 8203      626C6500 
 8204              	.LASF28:
 8205 07e4 71446976 		.ascii	"qDiv\000"
 8205      00
 8206              	.LASF101:
 8207 07e9 72657365 		.ascii	"reset\000"
 8207      7400
 8208              	.LASF32:
 8209 07ef 736F7572 		.ascii	"source\000"
 8209      636500
 8210              	.LASF120:
 8211 07f6 6E756D62 		.ascii	"number\000"
 8211      657200
 8212              	.LASF133:
 8213 07fd 43795379 		.ascii	"CySysTickInit\000"
 8213      73546963 
 8213      6B496E69 
 8213      7400
 8214              	.LASF9:
 8215 080b 73697A65 		.ascii	"sizetype\000"
 8215      74797065 
 8215      00
 8216              	.LASF6:
 8217 0814 6C6F6E67 		.ascii	"long unsigned int\000"
 8217      20756E73 
 8217      69676E65 
 8217      6420696E 
 8217      7400
 8218              	.LASF149:
 8219 0826 72657456 		.ascii	"retVal\000"
 8219      616C00
 8220              	.LASF121:
 8221 082d 61646472 		.ascii	"address\000"
 8221      65737300 
 8222              	.LASF109:
 8223 0835 43795664 		.ascii	"CyVdStickyStatus\000"
 8223      53746963 
 8223      6B795374 
 8223      61747573 
 8223      00
 8224              	.LASF36:
ARM GAS  C:\Users\ben\AppData\Local\Temp\ccnBLHGm.s 			page 204


 8225 0846 696C6F31 		.ascii	"ilo100KhzEnable\000"
 8225      30304B68 
 8225      7A456E61 
 8225      626C6500 
 8226              	.LASF144:
 8227 0856 43795379 		.ascii	"CySysTickGetClockSource\000"
 8227      73546963 
 8227      6B476574 
 8227      436C6F63 
 8227      6B536F75 
 8228              	.LASF90:
 8229 086e 4379536F 		.ascii	"CySoftwareReset\000"
 8229      66747761 
 8229      72655265 
 8229      73657400 
 8230              	.LASF16:
 8231 087e 63797374 		.ascii	"cystatus\000"
 8231      61747573 
 8231      00
 8232              	.LASF53:
 8233 0887 43794275 		.ascii	"CyBusClk_SetDivider\000"
 8233      73436C6B 
 8233      5F536574 
 8233      44697669 
 8233      64657200 
 8234              	.LASF2:
 8235 089b 756E7369 		.ascii	"unsigned char\000"
 8235      676E6564 
 8235      20636861 
 8235      7200
 8236              	.LASF123:
 8237 08a9 72616D56 		.ascii	"ramVectorTable\000"
 8237      6563746F 
 8237      72546162 
 8237      6C6500
 8238              	.LASF152:
 8239 08b8 43794765 		.ascii	"CyGetUniqueId\000"
 8239      74556E69 
 8239      71756549 
 8239      6400
 8240              	.LASF148:
 8241 08c6 66756E63 		.ascii	"function\000"
 8241      74696F6E 
 8241      00
 8242              	.LASF73:
 8243 08cf 74696D65 		.ascii	"timeout\000"
 8243      6F757400 
 8244              	.LASF94:
 8245 08d7 6D696372 		.ascii	"microseconds\000"
 8245      6F736563 
 8245      6F6E6473 
 8245      00
 8246              	.LASF88:
 8247 08e4 43794861 		.ascii	"CyHalt\000"
 8247      6C7400
 8248              	.LASF57:
 8249 08eb 43795573 		.ascii	"CyUsbClk_SetSource\000"
ARM GAS  C:\Users\ben\AppData\Local\Temp\ccnBLHGm.s 			page 205


 8249      62436C6B 
 8249      5F536574 
 8249      536F7572 
 8249      636500
 8250              	.LASF68:
 8251 08fe 73746174 		.ascii	"state\000"
 8251      6500
 8252              	.LASF113:
 8253 0904 43795664 		.ascii	"CyVdRealTimeStatus\000"
 8253      5265616C 
 8253      54696D65 
 8253      53746174 
 8253      757300
 8254              	.LASF112:
 8255 0917 746D7053 		.ascii	"tmpStatus\000"
 8255      74617475 
 8255      7300
 8256              	.LASF61:
 8257 0921 4379494C 		.ascii	"CyILO_Stop100K\000"
 8257      4F5F5374 
 8257      6F703130 
 8257      304B00
 8258              	.LASF82:
 8259 0930 43795854 		.ascii	"CyXTAL_EnableFaultRecovery\000"
 8259      414C5F45 
 8259      6E61626C 
 8259      65466175 
 8259      6C745265 
 8260              	.LASF86:
 8261 094b 43795854 		.ascii	"CyXTAL_SetFbVoltage\000"
 8261      414C5F53 
 8261      65744662 
 8261      566F6C74 
 8261      61676500 
 8262              	.LASF102:
 8263 095f 74687265 		.ascii	"threshold\000"
 8263      73686F6C 
 8263      6400
 8264              	.LASF1:
 8265 0969 7369676E 		.ascii	"signed char\000"
 8265      65642063 
 8265      68617200 
 8266              	.LASF4:
 8267 0975 73686F72 		.ascii	"short unsigned int\000"
 8267      7420756E 
 8267      7369676E 
 8267      65642069 
 8267      6E7400
 8268              	.LASF35:
 8269 0988 706D4674 		.ascii	"pmFtwCfg0Reg\000"
 8269      77436667 
 8269      30526567 
 8269      00
 8270              	.LASF45:
 8271 0995 4379494D 		.ascii	"CyIMO_SetSource\000"
 8271      4F5F5365 
 8271      74536F75 
ARM GAS  C:\Users\ben\AppData\Local\Temp\ccnBLHGm.s 			page 206


 8271      72636500 
 8272              	.LASF153:
 8273 09a5 756E6971 		.ascii	"uniqueId\000"
 8273      75654964 
 8273      00
 8274              	.LASF29:
 8275 09ae 63757272 		.ascii	"current\000"
 8275      656E7400 
 8276              	.LASF62:
 8277 09b6 4379494C 		.ascii	"CyILO_Enable33K\000"
 8277      4F5F456E 
 8277      61626C65 
 8277      33334B00 
 8278              	.LASF11:
 8279 09c6 75696E74 		.ascii	"uint8\000"
 8279      3800
 8280              	.LASF15:
 8281 09cc 646F7562 		.ascii	"double\000"
 8281      6C6500
 8282              	.LASF23:
 8283 09d3 696C6F45 		.ascii	"iloEnableState\000"
 8283      6E61626C 
 8283      65537461 
 8283      746500
 8284              	.LASF139:
 8285 09e2 76616C75 		.ascii	"value\000"
 8285      6500
 8286              	.LASF108:
 8287 09e8 43795664 		.ascii	"CyVdHvAnalogDisable\000"
 8287      4876416E 
 8287      616C6F67 
 8287      44697361 
 8287      626C6500 
 8288              		.ident	"GCC: (GNU Tools for ARM Embedded Processors) 4.9.3 20150303 (release) [ARM/embedded-4_9-br
