ARM GAS  C:\Users\ben\AppData\Local\Temp\cc4u8fSj.s 			page 1


   1              		.syntax unified
   2              		.cpu cortex-m3
   3              		.fpu softvfp
   4              		.eabi_attribute 20, 1
   5              		.eabi_attribute 21, 1
   6              		.eabi_attribute 23, 3
   7              		.eabi_attribute 24, 1
   8              		.eabi_attribute 25, 1
   9              		.eabi_attribute 26, 1
  10              		.eabi_attribute 30, 6
  11              		.eabi_attribute 34, 1
  12              		.eabi_attribute 18, 4
  13              		.thumb
  14              		.file	"main.c"
  15              		.text
  16              	.Ltext0:
  17              		.cfi_sections	.debug_frame
  18              		.global	BIT_MASK_CTRL
  19              		.bss
  20              		.align	1
  21              		.type	BIT_MASK_CTRL, %object
  22              		.size	BIT_MASK_CTRL, 2
  23              	BIT_MASK_CTRL:
  24 0000 0000     		.space	2
  25              		.global	DIV_MASK_CTRL
  26              		.align	1
  27              		.type	DIV_MASK_CTRL, %object
  28              		.size	DIV_MASK_CTRL, 2
  29              	DIV_MASK_CTRL:
  30 0002 0000     		.space	2
  31              		.global	OLD_BIT_MASK_DEPTH
  32              		.align	1
  33              		.type	OLD_BIT_MASK_DEPTH, %object
  34              		.size	OLD_BIT_MASK_DEPTH, 2
  35              	OLD_BIT_MASK_DEPTH:
  36 0004 0000     		.space	2
  37              		.global	OLD_DIV_MASK_DEPTH
  38              		.align	1
  39              		.type	OLD_DIV_MASK_DEPTH, %object
  40              		.size	OLD_DIV_MASK_DEPTH, 2
  41              	OLD_DIV_MASK_DEPTH:
  42 0006 0000     		.space	2
  43              		.global	MASK_CTRL
  44              		.align	1
  45              		.type	MASK_CTRL, %object
  46              		.size	MASK_CTRL, 2
  47              	MASK_CTRL:
  48 0008 0000     		.space	2
  49              		.global	OLD_MASK_DEPTH
  50              		.align	1
  51              		.type	OLD_MASK_DEPTH, %object
  52              		.size	OLD_MASK_DEPTH, 2
  53              	OLD_MASK_DEPTH:
  54 000a 0000     		.space	2
  55              		.global	MASK_EFFECT
  56              		.type	MASK_EFFECT, %object
  57              		.size	MASK_EFFECT, 1
ARM GAS  C:\Users\ben\AppData\Local\Temp\cc4u8fSj.s 			page 2


  58              	MASK_EFFECT:
  59 000c 00       		.space	1
  60              		.global	AUDIO_IN
  61 000d 00       		.align	1
  62              		.type	AUDIO_IN, %object
  63              		.size	AUDIO_IN, 2
  64              	AUDIO_IN:
  65 000e 0000     		.space	2
  66              		.global	FRQ_CTRL
  67              		.align	1
  68              		.type	FRQ_CTRL, %object
  69              		.size	FRQ_CTRL, 2
  70              	FRQ_CTRL:
  71 0010 0000     		.space	2
  72              		.section	.rodata
  73              		.align	2
  74              	.LC0:
  75 0000 41444331 		.ascii	"ADC1 \000"
  75      2000
  76 0006 0000     		.align	2
  77              	.LC1:
  78 0008 41444332 		.ascii	"ADC2 \000"
  78      2000
  79 000e 0000     		.section	.text.main,"ax",%progbits
  80              		.align	2
  81              		.global	main
  82              		.thumb
  83              		.thumb_func
  84              		.type	main, %function
  85              	main:
  86              	.LFB63:
  87              		.file 1 "main.c"
   1:main.c        ****  /*******************************************************************************
   2:main.c        **** * File Name: main.c
   3:main.c        **** 
   4:main.c        **** * Note that this file contains the DMA_Config function as well.
   5:main.c        **** *
   6:main.c        **** ********************************************************************************
   7:main.c        **** * Copyright 2012, Cypress Semiconductor Corporation. All rights reserved.
   8:main.c        **** * This software is owned by Cypress Semiconductor Corporation and is protected
   9:main.c        **** * by and subject to worldwide patent and copyright laws and treaties.
  10:main.c        **** * Therefore, you may use this software only as provided in the license agreement
  11:main.c        **** * accompanying the software package from which you obtained this software.
  12:main.c        **** * CYPRESS AND ITS SUPPLIERS MAKE NO WARRANTY OF ANY KIND, EXPRESS OR IMPLIED,
  13:main.c        **** * WITH REGARD TO THIS SOFTWARE, INCLUDING, BUT NOT LIMITED TO, NONINFRINGEMENT,
  14:main.c        **** * IMPLIED WARRANTIES OF MERCHANTABILITY AND FITNESS FOR A PARTICULAR PURPOSE.
  15:main.c        **** *******************************************************************************/
  16:main.c        **** 
  17:main.c        **** #include <project.h>
  18:main.c        **** 
  19:main.c        **** 
  20:main.c        **** void PWM_Start(void);
  21:main.c        **** void PWM_Set(uint16 counterdiv);
  22:main.c        **** uint16 BIT_MASK_CTRL = 0;
  23:main.c        **** uint16 DIV_MASK_CTRL = 0;
  24:main.c        **** uint16 OLD_BIT_MASK_DEPTH = 0;
  25:main.c        **** uint16 OLD_DIV_MASK_DEPTH = 0;
ARM GAS  C:\Users\ben\AppData\Local\Temp\cc4u8fSj.s 			page 3


  26:main.c        ****         
  27:main.c        **** uint16 MASK_CTRL = 0;
  28:main.c        **** uint16 OLD_MASK_DEPTH = 0;
  29:main.c        **** uint8 MASK_EFFECT = 0;
  30:main.c        **** uint16 Effect(uint16 depth);
  31:main.c        **** uint16 AUDIO_IN = 0;
  32:main.c        **** uint16 FRQ_CTRL = 0;
  33:main.c        **** int main()
  34:main.c        **** {
  88              		.loc 1 34 0
  89              		.cfi_startproc
  90              		@ args = 0, pretend = 0, frame = 16
  91              		@ frame_needed = 1, uses_anonymous_args = 0
  92 0000 80B5     		push	{r7, lr}
  93              		.cfi_def_cfa_offset 8
  94              		.cfi_offset 7, -8
  95              		.cfi_offset 14, -4
  96 0002 84B0     		sub	sp, sp, #16
  97              		.cfi_def_cfa_offset 24
  98 0004 00AF     		add	r7, sp, #0
  99              		.cfi_def_cfa_register 7
  35:main.c        **** 
  36:main.c        ****     uint16 CTR = 0;
 100              		.loc 1 36 0
 101 0006 0023     		movs	r3, #0
 102 0008 FB81     		strh	r3, [r7, #14]	@ movhi
  37:main.c        ****     /* Start the components */
  38:main.c        ****     Opamp_1_Start();
 103              		.loc 1 38 0
 104 000a FFF7FEFF 		bl	Opamp_1_Start
  39:main.c        ****     Opamp_2_Start();
 105              		.loc 1 39 0
 106 000e FFF7FEFF 		bl	Opamp_2_Start
  40:main.c        ****     PWM_Start();
 107              		.loc 1 40 0
 108 0012 FFF7FEFF 		bl	PWM_Start
  41:main.c        **** //  PGA_1_Start();
  42:main.c        **** //  Opamp_4_Start();
  43:main.c        ****     LCD_Char_1_Start();
 109              		.loc 1 43 0
 110 0016 FFF7FEFF 		bl	LCD_Char_1_Start
  44:main.c        ****  //   ADC_DelSig_1_Start();
  45:main.c        ****     Filter_Start();
 111              		.loc 1 45 0
 112 001a FFF7FEFF 		bl	Filter_Start
  46:main.c        ****     ADC_SAR_1_Start();
 113              		.loc 1 46 0
 114 001e FFF7FEFF 		bl	ADC_SAR_1_Start
  47:main.c        ****     ADC_SAR_Seq_Start();
 115              		.loc 1 47 0
 116 0022 FFF7FEFF 		bl	ADC_SAR_Seq_Start
  48:main.c        ****     ADC_SAR_Seq_StartConvert();
 117              		.loc 1 48 0
 118 0026 FFF7FEFF 		bl	ADC_SAR_Seq_StartConvert
  49:main.c        ****   //  CapSense_1_Start();
  50:main.c        ****     SPI_DAC_Start();
 119              		.loc 1 50 0
ARM GAS  C:\Users\ben\AppData\Local\Temp\cc4u8fSj.s 			page 4


 120 002a FFF7FEFF 		bl	SPI_DAC_Start
  51:main.c        ****         /* Start ISRs */
  52:main.c        ****     /* Enable global interrupts */
  53:main.c        ****    CyGlobalIntEnable;
 121              		.loc 1 53 0
 122              	@ 53 "main.c" 1
 123 002e 62B6     		CPSIE   i
 124              	@ 0 "" 2
  54:main.c        ****     /* Start ADC conversion */
  55:main.c        ****  //   ADC_SAR_1_StartConvert();
  56:main.c        ****     ADC_SAR_Seq_StartConvert();
 125              		.loc 1 56 0
 126              		.thumb
 127 0030 FFF7FEFF 		bl	ADC_SAR_Seq_StartConvert
  57:main.c        ****     LCD_Char_1_Position(0u, 0u);
 128              		.loc 1 57 0
 129 0034 0020     		movs	r0, #0
 130 0036 0021     		movs	r1, #0
 131 0038 FFF7FEFF 		bl	LCD_Char_1_Position
  58:main.c        ****     LCD_Char_1_PrintString("ADC1 ");
 132              		.loc 1 58 0
 133 003c 4E48     		ldr	r0, .L6
 134 003e FFF7FEFF 		bl	LCD_Char_1_PrintString
  59:main.c        ****     LCD_Char_1_Position(1u, 0u);
 135              		.loc 1 59 0
 136 0042 0120     		movs	r0, #1
 137 0044 0021     		movs	r1, #0
 138 0046 FFF7FEFF 		bl	LCD_Char_1_Position
  60:main.c        ****     LCD_Char_1_PrintString("ADC2 ");
 139              		.loc 1 60 0
 140 004a 4C48     		ldr	r0, .L6+4
 141 004c FFF7FEFF 		bl	LCD_Char_1_PrintString
 142              	.L5:
  61:main.c        ****     
  62:main.c        ****     
  63:main.c        ****     for(;;)
  64:main.c        ****     {
  65:main.c        **** 
  66:main.c        **** 
  67:main.c        ****         
  68:main.c        ****   if (ADC_SAR_Seq_IsEndConversion(1)){
 143              		.loc 1 68 0
 144 0050 0120     		movs	r0, #1
 145 0052 FFF7FEFF 		bl	ADC_SAR_Seq_IsEndConversion
 146 0056 0346     		mov	r3, r0
 147 0058 002B     		cmp	r3, #0
 148 005a 35D0     		beq	.L2
  69:main.c        ****        
  70:main.c        ****     FRQ_CTRL=(((ADC_SAR_Seq_GetResult16(0)))+1);
 149              		.loc 1 70 0
 150 005c 0020     		movs	r0, #0
 151 005e FFF7FEFF 		bl	ADC_SAR_Seq_GetResult16
 152 0062 0346     		mov	r3, r0
 153 0064 9BB2     		uxth	r3, r3
 154 0066 0133     		adds	r3, r3, #1
 155 0068 9AB2     		uxth	r2, r3
 156 006a 454B     		ldr	r3, .L6+8
ARM GAS  C:\Users\ben\AppData\Local\Temp\cc4u8fSj.s 			page 5


 157 006c 1A80     		strh	r2, [r3]	@ movhi
  71:main.c        ****     PWM_ADC_CK_WritePeriod(FRQ_CTRL);
 158              		.loc 1 71 0
 159 006e 444B     		ldr	r3, .L6+8
 160 0070 1B88     		ldrh	r3, [r3]
 161 0072 1846     		mov	r0, r3
 162 0074 FFF7FEFF 		bl	PWM_ADC_CK_WritePeriod
  72:main.c        ****     PWM_ADC_CK_WriteCompare(FRQ_CTRL>>2);
 163              		.loc 1 72 0
 164 0078 414B     		ldr	r3, .L6+8
 165 007a 1B88     		ldrh	r3, [r3]
 166 007c 9B08     		lsrs	r3, r3, #2
 167 007e 9BB2     		uxth	r3, r3
 168 0080 1846     		mov	r0, r3
 169 0082 FFF7FEFF 		bl	PWM_ADC_CK_WriteCompare
  73:main.c        ****     DIV_MASK_CTRL = ADC_SAR_Seq_GetResult16(2);
 170              		.loc 1 73 0
 171 0086 0220     		movs	r0, #2
 172 0088 FFF7FEFF 		bl	ADC_SAR_Seq_GetResult16
 173 008c 0346     		mov	r3, r0
 174 008e 9AB2     		uxth	r2, r3
 175 0090 3C4B     		ldr	r3, .L6+12
 176 0092 1A80     		strh	r2, [r3]	@ movhi
  74:main.c        ****     DIV_MASK_LSB_Write(DIV_MASK_CTRL & 0xFF);
 177              		.loc 1 74 0
 178 0094 3B4B     		ldr	r3, .L6+12
 179 0096 1B88     		ldrh	r3, [r3]
 180 0098 DBB2     		uxtb	r3, r3
 181 009a 1846     		mov	r0, r3
 182 009c FFF7FEFF 		bl	DIV_MASK_LSB_Write
  75:main.c        ****     DIV_MASK_LSB_Write(DIV_MASK_CTRL>>4);
 183              		.loc 1 75 0
 184 00a0 384B     		ldr	r3, .L6+12
 185 00a2 1B88     		ldrh	r3, [r3]
 186 00a4 1B09     		lsrs	r3, r3, #4
 187 00a6 9BB2     		uxth	r3, r3
 188 00a8 DBB2     		uxtb	r3, r3
 189 00aa 1846     		mov	r0, r3
 190 00ac FFF7FEFF 		bl	DIV_MASK_LSB_Write
  76:main.c        ****     
  77:main.c        ****     BIT_MASK_CTRL = Effect(ADC_SAR_Seq_GetResult16(1));
 191              		.loc 1 77 0
 192 00b0 0120     		movs	r0, #1
 193 00b2 FFF7FEFF 		bl	ADC_SAR_Seq_GetResult16
 194 00b6 0346     		mov	r3, r0
 195 00b8 9BB2     		uxth	r3, r3
 196 00ba 1846     		mov	r0, r3
 197 00bc FFF7FEFF 		bl	Effect
 198 00c0 0346     		mov	r3, r0
 199 00c2 1A46     		mov	r2, r3
 200 00c4 304B     		ldr	r3, .L6+16
 201 00c6 1A80     		strh	r2, [r3]	@ movhi
 202              	.L2:
  78:main.c        **** }
  79:main.c        **** 
  80:main.c        ****     OLD_BIT_MASK_DEPTH = BIT_MASK_CTRL;
 203              		.loc 1 80 0
ARM GAS  C:\Users\ben\AppData\Local\Temp\cc4u8fSj.s 			page 6


 204 00c8 2F4B     		ldr	r3, .L6+16
 205 00ca 1A88     		ldrh	r2, [r3]
 206 00cc 2F4B     		ldr	r3, .L6+20
 207 00ce 1A80     		strh	r2, [r3]	@ movhi
  81:main.c        ****         
  82:main.c        **** 
  83:main.c        ****     if (ADC_SAR_1_IsEndConversion(1))
 208              		.loc 1 83 0
 209 00d0 0120     		movs	r0, #1
 210 00d2 FFF7FEFF 		bl	ADC_SAR_1_IsEndConversion
 211 00d6 0346     		mov	r3, r0
 212 00d8 002B     		cmp	r3, #0
 213 00da 33D0     		beq	.L3
 214              	.LBB2:
  84:main.c        ****     {
  85:main.c        ****         
  86:main.c        ****         AUDIO_IN = ADC_SAR_1_GetResult16();
 215              		.loc 1 86 0
 216 00dc FFF7FEFF 		bl	ADC_SAR_1_GetResult16
 217 00e0 0346     		mov	r3, r0
 218 00e2 9AB2     		uxth	r2, r3
 219 00e4 2A4B     		ldr	r3, .L6+24
 220 00e6 1A80     		strh	r2, [r3]	@ movhi
  87:main.c        ****         uint8 LSB_8_ADC =  (AUDIO_IN & 0x00FFu);
 221              		.loc 1 87 0
 222 00e8 294B     		ldr	r3, .L6+24
 223 00ea 1B88     		ldrh	r3, [r3]
 224 00ec 7B73     		strb	r3, [r7, #13]
  88:main.c        ****         uint8 MSB_4_ADC = (AUDIO_IN >> 8u);
 225              		.loc 1 88 0
 226 00ee 284B     		ldr	r3, .L6+24
 227 00f0 1B88     		ldrh	r3, [r3]
 228 00f2 1B0A     		lsrs	r3, r3, #8
 229 00f4 9BB2     		uxth	r3, r3
 230 00f6 3B73     		strb	r3, [r7, #12]
  89:main.c        ****         ADC_1_OUT_LSB_Write(LSB_8_ADC);
 231              		.loc 1 89 0
 232 00f8 7B7B     		ldrb	r3, [r7, #13]	@ zero_extendqisi2
 233 00fa 1846     		mov	r0, r3
 234 00fc FFF7FEFF 		bl	ADC_1_OUT_LSB_Write
  90:main.c        ****         ADC_1_OUT_MSB_Write(MSB_4_ADC);
 235              		.loc 1 90 0
 236 0100 3B7B     		ldrb	r3, [r7, #12]	@ zero_extendqisi2
 237 0102 1846     		mov	r0, r3
 238 0104 FFF7FEFF 		bl	ADC_1_OUT_MSB_Write
  91:main.c        ****         uint8 LSB_8_DAC = DAC_IN_LSB_Read();
 239              		.loc 1 91 0
 240 0108 FFF7FEFF 		bl	DAC_IN_LSB_Read
 241 010c 0346     		mov	r3, r0
 242 010e FB72     		strb	r3, [r7, #11]
  92:main.c        ****         uint16 MSB_4_DAC = DAC_IN_MSB_Read();
 243              		.loc 1 92 0
 244 0110 FFF7FEFF 		bl	DAC_IN_MSB_Read
 245 0114 0346     		mov	r3, r0
 246 0116 3B81     		strh	r3, [r7, #8]	@ movhi
  93:main.c        ****         uint16 DACINPUT = ((MSB_4_DAC<<8 | LSB_8_DAC));
 247              		.loc 1 93 0
ARM GAS  C:\Users\ben\AppData\Local\Temp\cc4u8fSj.s 			page 7


 248 0118 3B89     		ldrh	r3, [r7, #8]
 249 011a 1B02     		lsls	r3, r3, #8
 250 011c 9AB2     		uxth	r2, r3
 251 011e FB7A     		ldrb	r3, [r7, #11]	@ zero_extendqisi2
 252 0120 9BB2     		uxth	r3, r3
 253 0122 1343     		orrs	r3, r3, r2
 254 0124 9BB2     		uxth	r3, r3
 255 0126 FB80     		strh	r3, [r7, #6]	@ movhi
  94:main.c        ****         uint16 FINAL_OUT = DACINPUT & OLD_MASK_DEPTH;
 256              		.loc 1 94 0
 257 0128 1A4B     		ldr	r3, .L6+28
 258 012a 1A88     		ldrh	r2, [r3]
 259 012c FB88     		ldrh	r3, [r7, #6]	@ movhi
 260 012e 1340     		ands	r3, r3, r2
 261 0130 BB80     		strh	r3, [r7, #4]	@ movhi
  95:main.c        ****         SPI_DAC_WriteTxData(FINAL_OUT| 0b1111000000000000);
 262              		.loc 1 95 0
 263 0132 BB88     		ldrh	r3, [r7, #4]	@ movhi
 264 0134 6FEA0353 		mvn	r3, r3, lsl #20
 265 0138 6FEA1353 		mvn	r3, r3, lsr #20
 266 013c 9BB2     		uxth	r3, r3
 267 013e 1846     		mov	r0, r3
 268 0140 FFF7FEFF 		bl	SPI_DAC_WriteTxData
 269              	.L3:
 270              	.LBE2:
  96:main.c        ****  }
  97:main.c        ****     if (CTR == 5)
 271              		.loc 1 97 0
 272 0144 FB89     		ldrh	r3, [r7, #14]
 273 0146 052B     		cmp	r3, #5
 274 0148 11D1     		bne	.L4
  98:main.c        ****     {
  99:main.c        ****     LCD_Char_1_Position(0u, strlen("ADC1 "));
 275              		.loc 1 99 0
 276 014a 0020     		movs	r0, #0
 277 014c 0521     		movs	r1, #5
 278 014e FFF7FEFF 		bl	LCD_Char_1_Position
 100:main.c        ****     LCD_Char_1_PrintInt16(FRQ_CTRL); 
 279              		.loc 1 100 0
 280 0152 0B4B     		ldr	r3, .L6+8
 281 0154 1B88     		ldrh	r3, [r3]
 282 0156 1846     		mov	r0, r3
 283 0158 FFF7FEFF 		bl	LCD_Char_1_PrintInt16
 101:main.c        ****     LCD_Char_1_Position(1u, strlen("ADC2 "));
 284              		.loc 1 101 0
 285 015c 0120     		movs	r0, #1
 286 015e 0521     		movs	r1, #5
 287 0160 FFF7FEFF 		bl	LCD_Char_1_Position
 102:main.c        ****     LCD_Char_1_PrintInt16(MASK_CTRL); 
 288              		.loc 1 102 0
 289 0164 0C4B     		ldr	r3, .L6+32
 290 0166 1B88     		ldrh	r3, [r3]
 291 0168 1846     		mov	r0, r3
 292 016a FFF7FEFF 		bl	LCD_Char_1_PrintInt16
 293              	.L4:
 103:main.c        ****     
 104:main.c        ****     }
ARM GAS  C:\Users\ben\AppData\Local\Temp\cc4u8fSj.s 			page 8


 105:main.c        ****     CTR++;
 294              		.loc 1 105 0
 295 016e FB89     		ldrh	r3, [r7, #14]
 296 0170 0133     		adds	r3, r3, #1
 297 0172 FB81     		strh	r3, [r7, #14]	@ movhi
 106:main.c        ****     }
 298              		.loc 1 106 0
 299 0174 6CE7     		b	.L5
 300              	.L7:
 301 0176 00BF     		.align	2
 302              	.L6:
 303 0178 00000000 		.word	.LC0
 304 017c 08000000 		.word	.LC1
 305 0180 00000000 		.word	FRQ_CTRL
 306 0184 00000000 		.word	DIV_MASK_CTRL
 307 0188 00000000 		.word	BIT_MASK_CTRL
 308 018c 00000000 		.word	OLD_BIT_MASK_DEPTH
 309 0190 00000000 		.word	AUDIO_IN
 310 0194 00000000 		.word	OLD_MASK_DEPTH
 311 0198 00000000 		.word	MASK_CTRL
 312              		.cfi_endproc
 313              	.LFE63:
 314              		.size	main, .-main
 315              		.section	.text.Effect,"ax",%progbits
 316              		.align	2
 317              		.global	Effect
 318              		.thumb
 319              		.thumb_func
 320              		.type	Effect, %function
 321              	Effect:
 322              	.LFB64:
 107:main.c        **** }
 108:main.c        **** uint16 Effect(uint16 depth)
 109:main.c        **** {
 323              		.loc 1 109 0
 324              		.cfi_startproc
 325              		@ args = 0, pretend = 0, frame = 16
 326              		@ frame_needed = 1, uses_anonymous_args = 0
 327              		@ link register save eliminated.
 328 0000 80B4     		push	{r7}
 329              		.cfi_def_cfa_offset 4
 330              		.cfi_offset 7, -4
 331 0002 85B0     		sub	sp, sp, #20
 332              		.cfi_def_cfa_offset 24
 333 0004 00AF     		add	r7, sp, #0
 334              		.cfi_def_cfa_register 7
 335 0006 0346     		mov	r3, r0
 336 0008 FB80     		strh	r3, [r7, #6]	@ movhi
 110:main.c        ****     depth = depth>>3;
 337              		.loc 1 110 0
 338 000a FB88     		ldrh	r3, [r7, #6]
 339 000c DB08     		lsrs	r3, r3, #3
 340 000e FB80     		strh	r3, [r7, #6]	@ movhi
 111:main.c        ****             uint16 mask;
 112:main.c        ****             switch (depth) 
 341              		.loc 1 112 0
 342 0010 FB88     		ldrh	r3, [r7, #6]
ARM GAS  C:\Users\ben\AppData\Local\Temp\cc4u8fSj.s 			page 9


 343 0012 1F2B     		cmp	r3, #31
 344 0014 00F29980 		bhi	.L9
 345 0018 01A2     		adr	r2, .L11
 346 001a 52F823F0 		ldr	pc, [r2, r3, lsl #2]
 347 001e 00BF     		.p2align 2
 348              	.L11:
 349 0020 A1000000 		.word	.L10+1
 350 0024 A9000000 		.word	.L12+1
 351 0028 B1000000 		.word	.L13+1
 352 002c B9000000 		.word	.L14+1
 353 0030 C1000000 		.word	.L15+1
 354 0034 C9000000 		.word	.L16+1
 355 0038 D1000000 		.word	.L17+1
 356 003c D9000000 		.word	.L18+1
 357 0040 E1000000 		.word	.L19+1
 358 0044 E9000000 		.word	.L20+1
 359 0048 F1000000 		.word	.L21+1
 360 004c F9000000 		.word	.L22+1
 361 0050 01010000 		.word	.L23+1
 362 0054 09010000 		.word	.L24+1
 363 0058 11010000 		.word	.L25+1
 364 005c 19010000 		.word	.L26+1
 365 0060 1F010000 		.word	.L27+1
 366 0064 25010000 		.word	.L28+1
 367 0068 4B010000 		.word	.L9+1
 368 006c 4B010000 		.word	.L9+1
 369 0070 4B010000 		.word	.L9+1
 370 0074 4B010000 		.word	.L9+1
 371 0078 4B010000 		.word	.L9+1
 372 007c 4B010000 		.word	.L9+1
 373 0080 4B010000 		.word	.L9+1
 374 0084 4B010000 		.word	.L9+1
 375 0088 4B010000 		.word	.L9+1
 376 008c 2B010000 		.word	.L29+1
 377 0090 31010000 		.word	.L30+1
 378 0094 37010000 		.word	.L31+1
 379 0098 3D010000 		.word	.L32+1
 380 009c 43010000 		.word	.L33+1
 381              		.p2align 1
 382              	.L10:
 113:main.c        ****         {
 114:main.c        ****         case 0:
 115:main.c        ****             mask = 0xFFFFu;//b1111 1111 1111;
 383              		.loc 1 115 0
 384 00a0 4FF6FF73 		movw	r3, #65535
 385 00a4 FB81     		strh	r3, [r7, #14]	@ movhi
 116:main.c        ****             break;
 386              		.loc 1 116 0
 387 00a6 53E0     		b	.L34
 388              	.L12:
 117:main.c        ****         case 1:
 118:main.c        ****             mask = 0xFFFEu;//b1111 1111 1110;
 389              		.loc 1 118 0
 390 00a8 4FF6FE73 		movw	r3, #65534
 391 00ac FB81     		strh	r3, [r7, #14]	@ movhi
 119:main.c        ****             break;  
 392              		.loc 1 119 0
ARM GAS  C:\Users\ben\AppData\Local\Temp\cc4u8fSj.s 			page 10


 393 00ae 4FE0     		b	.L34
 394              	.L13:
 120:main.c        ****         case 2:
 121:main.c        ****             mask = 0xFFFCu;//b1111 1111 1100;
 395              		.loc 1 121 0
 396 00b0 4FF6FC73 		movw	r3, #65532
 397 00b4 FB81     		strh	r3, [r7, #14]	@ movhi
 122:main.c        ****             break; 
 398              		.loc 1 122 0
 399 00b6 4BE0     		b	.L34
 400              	.L14:
 123:main.c        ****         case 3:
 124:main.c        ****             mask = 0xFFF8u;//b1111 1111 1000;
 401              		.loc 1 124 0
 402 00b8 4FF6F873 		movw	r3, #65528
 403 00bc FB81     		strh	r3, [r7, #14]	@ movhi
 125:main.c        ****             break;
 404              		.loc 1 125 0
 405 00be 47E0     		b	.L34
 406              	.L15:
 126:main.c        ****         case 4:
 127:main.c        ****             mask = 0xFFF0u;//b1111 1111 0000;
 407              		.loc 1 127 0
 408 00c0 4FF6F073 		movw	r3, #65520
 409 00c4 FB81     		strh	r3, [r7, #14]	@ movhi
 128:main.c        ****             break;  
 410              		.loc 1 128 0
 411 00c6 43E0     		b	.L34
 412              	.L16:
 129:main.c        ****         case 5:
 130:main.c        ****             mask = 0xFFE0u;//b1111 1110 0000;
 413              		.loc 1 130 0
 414 00c8 4FF6E073 		movw	r3, #65504
 415 00cc FB81     		strh	r3, [r7, #14]	@ movhi
 131:main.c        ****             break; 
 416              		.loc 1 131 0
 417 00ce 3FE0     		b	.L34
 418              	.L17:
 132:main.c        ****          case 6:
 133:main.c        ****             mask = 0b111111010000;
 419              		.loc 1 133 0
 420 00d0 4FF47D63 		mov	r3, #4048
 421 00d4 FB81     		strh	r3, [r7, #14]	@ movhi
 134:main.c        ****             break; 
 422              		.loc 1 134 0
 423 00d6 3BE0     		b	.L34
 424              	.L18:
 135:main.c        ****         case 7:
 136:main.c        ****             mask = 0b111111000000;
 425              		.loc 1 136 0
 426 00d8 4FF47C63 		mov	r3, #4032
 427 00dc FB81     		strh	r3, [r7, #14]	@ movhi
 137:main.c        ****             break;  
 428              		.loc 1 137 0
 429 00de 37E0     		b	.L34
 430              	.L19:
 138:main.c        ****         case 8:
ARM GAS  C:\Users\ben\AppData\Local\Temp\cc4u8fSj.s 			page 11


 139:main.c        ****             mask = 0b111110110000;
 431              		.loc 1 139 0
 432 00e0 4FF47B63 		mov	r3, #4016
 433 00e4 FB81     		strh	r3, [r7, #14]	@ movhi
 140:main.c        ****             break;  
 434              		.loc 1 140 0
 435 00e6 33E0     		b	.L34
 436              	.L20:
 141:main.c        ****         case 9:
 142:main.c        ****             mask = 0b111110100000;
 437              		.loc 1 142 0
 438 00e8 4FF47A63 		mov	r3, #4000
 439 00ec FB81     		strh	r3, [r7, #14]	@ movhi
 143:main.c        ****             break;  
 440              		.loc 1 143 0
 441 00ee 2FE0     		b	.L34
 442              	.L21:
 144:main.c        ****         case 10:
 145:main.c        ****             mask = 0b111110010000;
 443              		.loc 1 145 0
 444 00f0 4FF47963 		mov	r3, #3984
 445 00f4 FB81     		strh	r3, [r7, #14]	@ movhi
 146:main.c        ****             break;  
 446              		.loc 1 146 0
 447 00f6 2BE0     		b	.L34
 448              	.L22:
 147:main.c        ****         case 11:
 148:main.c        ****             mask = 0b111110000000;
 449              		.loc 1 148 0
 450 00f8 4FF47863 		mov	r3, #3968
 451 00fc FB81     		strh	r3, [r7, #14]	@ movhi
 149:main.c        ****             break;  
 452              		.loc 1 149 0
 453 00fe 27E0     		b	.L34
 454              	.L23:
 150:main.c        ****         case 12:
 151:main.c        ****             mask = 0b111101110000;
 455              		.loc 1 151 0
 456 0100 4FF47763 		mov	r3, #3952
 457 0104 FB81     		strh	r3, [r7, #14]	@ movhi
 152:main.c        ****             break;  
 458              		.loc 1 152 0
 459 0106 23E0     		b	.L34
 460              	.L24:
 153:main.c        ****         case 13:
 154:main.c        ****             mask = 0b111101100000;
 461              		.loc 1 154 0
 462 0108 4FF47663 		mov	r3, #3936
 463 010c FB81     		strh	r3, [r7, #14]	@ movhi
 155:main.c        ****             break;  
 464              		.loc 1 155 0
 465 010e 1FE0     		b	.L34
 466              	.L25:
 156:main.c        ****         case 14:
 157:main.c        ****             mask = 0b111101010000;
 467              		.loc 1 157 0
 468 0110 4FF47563 		mov	r3, #3920
ARM GAS  C:\Users\ben\AppData\Local\Temp\cc4u8fSj.s 			page 12


 469 0114 FB81     		strh	r3, [r7, #14]	@ movhi
 158:main.c        ****             break;  
 470              		.loc 1 158 0
 471 0116 1BE0     		b	.L34
 472              	.L26:
 159:main.c        ****         case 15:
 160:main.c        ****             mask = 0b111101000000;
 473              		.loc 1 160 0
 474 0118 4FF47463 		mov	r3, #3904
 475 011c FB81     		strh	r3, [r7, #14]	@ movhi
 476              	.L27:
 161:main.c        ****         case 16:
 162:main.c        ****             mask = 0b111100000000;
 477              		.loc 1 162 0
 478 011e 4FF47063 		mov	r3, #3840
 479 0122 FB81     		strh	r3, [r7, #14]	@ movhi
 480              	.L28:
 163:main.c        ****         case 17:
 164:main.c        ****             mask = 0b111000000000;
 481              		.loc 1 164 0
 482 0124 4FF46063 		mov	r3, #3584
 483 0128 FB81     		strh	r3, [r7, #14]	@ movhi
 484              	.L29:
 165:main.c        ****         case 27:
 166:main.c        ****             mask = 0b110100000000;
 485              		.loc 1 166 0
 486 012a 4FF45063 		mov	r3, #3328
 487 012e FB81     		strh	r3, [r7, #14]	@ movhi
 488              	.L30:
 167:main.c        ****         case 28:
 168:main.c        ****             mask = 0b110000000000;
 489              		.loc 1 168 0
 490 0130 4FF44063 		mov	r3, #3072
 491 0134 FB81     		strh	r3, [r7, #14]	@ movhi
 492              	.L31:
 169:main.c        ****         case 29:
 170:main.c        ****             mask = 0b101100000000;
 493              		.loc 1 170 0
 494 0136 4FF43063 		mov	r3, #2816
 495 013a FB81     		strh	r3, [r7, #14]	@ movhi
 496              	.L32:
 171:main.c        ****         case 30:
 172:main.c        ****             mask = 0b101000000000;
 497              		.loc 1 172 0
 498 013c 4FF42063 		mov	r3, #2560
 499 0140 FB81     		strh	r3, [r7, #14]	@ movhi
 500              	.L33:
 173:main.c        ****         case 31:
 174:main.c        ****             mask = 0b100000000000;
 501              		.loc 1 174 0
 502 0142 4FF40063 		mov	r3, #2048
 503 0146 FB81     		strh	r3, [r7, #14]	@ movhi
 175:main.c        ****             break;  
 504              		.loc 1 175 0
 505 0148 02E0     		b	.L34
 506              	.L9:
 176:main.c        ****         default:
ARM GAS  C:\Users\ben\AppData\Local\Temp\cc4u8fSj.s 			page 13


 177:main.c        ****             mask= 0xFFFFu;
 507              		.loc 1 177 0
 508 014a 4FF6FF73 		movw	r3, #65535
 509 014e FB81     		strh	r3, [r7, #14]	@ movhi
 510              	.L34:
 178:main.c        ****         }
 179:main.c        ****     return mask;
 511              		.loc 1 179 0
 512 0150 FB89     		ldrh	r3, [r7, #14]
 180:main.c        **** }
 513              		.loc 1 180 0
 514 0152 1846     		mov	r0, r3
 515 0154 1437     		adds	r7, r7, #20
 516              		.cfi_def_cfa_offset 4
 517 0156 BD46     		mov	sp, r7
 518              		.cfi_def_cfa_register 13
 519              		@ sp needed
 520 0158 5DF8047B 		ldr	r7, [sp], #4
 521              		.cfi_restore 7
 522              		.cfi_def_cfa_offset 0
 523 015c 7047     		bx	lr
 524              		.cfi_endproc
 525              	.LFE64:
 526              		.size	Effect, .-Effect
 527 015e 00BF     		.section	.text.PWM_Start,"ax",%progbits
 528              		.align	2
 529              		.global	PWM_Start
 530              		.thumb
 531              		.thumb_func
 532              		.type	PWM_Start, %function
 533              	PWM_Start:
 534              	.LFB65:
 181:main.c        **** void PWM_Start(void)
 182:main.c        **** {
 535              		.loc 1 182 0
 536              		.cfi_startproc
 537              		@ args = 0, pretend = 0, frame = 0
 538              		@ frame_needed = 1, uses_anonymous_args = 0
 539 0000 80B5     		push	{r7, lr}
 540              		.cfi_def_cfa_offset 8
 541              		.cfi_offset 7, -8
 542              		.cfi_offset 14, -4
 543 0002 00AF     		add	r7, sp, #0
 544              		.cfi_def_cfa_register 7
 183:main.c        ****     PWM_ADC_CK_Enable();
 545              		.loc 1 183 0
 546 0004 FFF7FEFF 		bl	PWM_ADC_CK_Enable
 184:main.c        **** //    PWM_1_Enable();
 185:main.c        **** //    PWM_2_Enable();
 186:main.c        **** //    PWM_3_Enable();
 187:main.c        ****     PWM_4_Enable();
 547              		.loc 1 187 0
 548 0008 FFF7FEFF 		bl	PWM_4_Enable
 188:main.c        ****     PWM_5_Enable();
 549              		.loc 1 188 0
 550 000c FFF7FEFF 		bl	PWM_5_Enable
 189:main.c        ****     PWM_6_Enable();
ARM GAS  C:\Users\ben\AppData\Local\Temp\cc4u8fSj.s 			page 14


 551              		.loc 1 189 0
 552 0010 FFF7FEFF 		bl	PWM_6_Enable
 190:main.c        ****     PWM_7_Enable();
 553              		.loc 1 190 0
 554 0014 FFF7FEFF 		bl	PWM_7_Enable
 191:main.c        ****     PWM_8_Enable();
 555              		.loc 1 191 0
 556 0018 FFF7FEFF 		bl	PWM_8_Enable
 192:main.c        ****     PWM_9_Enable();
 557              		.loc 1 192 0
 558 001c FFF7FEFF 		bl	PWM_9_Enable
 193:main.c        ****     PWM_10_Enable();
 559              		.loc 1 193 0
 560 0020 FFF7FEFF 		bl	PWM_10_Enable
 194:main.c        ****     PWM_11_Enable();
 561              		.loc 1 194 0
 562 0024 FFF7FEFF 		bl	PWM_11_Enable
 195:main.c        ****     PWM_ADC_CK_Start();
 563              		.loc 1 195 0
 564 0028 FFF7FEFF 		bl	PWM_ADC_CK_Start
 196:main.c        **** //    PWM_1_Start();
 197:main.c        **** //    PWM_2_Start();
 198:main.c        **** //    PWM_3_Start();
 199:main.c        ****     PWM_4_Start();
 565              		.loc 1 199 0
 566 002c FFF7FEFF 		bl	PWM_4_Start
 200:main.c        ****     PWM_5_Start();
 567              		.loc 1 200 0
 568 0030 FFF7FEFF 		bl	PWM_5_Start
 201:main.c        ****     PWM_6_Start();
 569              		.loc 1 201 0
 570 0034 FFF7FEFF 		bl	PWM_6_Start
 202:main.c        ****     PWM_7_Start();
 571              		.loc 1 202 0
 572 0038 FFF7FEFF 		bl	PWM_7_Start
 203:main.c        ****     PWM_8_Start();
 573              		.loc 1 203 0
 574 003c FFF7FEFF 		bl	PWM_8_Start
 204:main.c        ****     PWM_9_Start();
 575              		.loc 1 204 0
 576 0040 FFF7FEFF 		bl	PWM_9_Start
 205:main.c        ****     PWM_10_Start();
 577              		.loc 1 205 0
 578 0044 FFF7FEFF 		bl	PWM_10_Start
 206:main.c        ****     PWM_11_Start();
 579              		.loc 1 206 0
 580 0048 FFF7FEFF 		bl	PWM_11_Start
 207:main.c        ****     return;
 581              		.loc 1 207 0
 582 004c 00BF     		nop
 208:main.c        **** }
 583              		.loc 1 208 0
 584 004e 80BD     		pop	{r7, pc}
 585              		.cfi_endproc
 586              	.LFE65:
 587              		.size	PWM_Start, .-PWM_Start
 588              		.global	__aeabi_i2d
ARM GAS  C:\Users\ben\AppData\Local\Temp\cc4u8fSj.s 			page 15


 589              		.global	__aeabi_dmul
 590              		.global	__aeabi_d2uiz
 591              		.section	.text.PWM_Set,"ax",%progbits
 592              		.align	2
 593              		.global	PWM_Set
 594              		.thumb
 595              		.thumb_func
 596              		.type	PWM_Set, %function
 597              	PWM_Set:
 598              	.LFB66:
 209:main.c        **** void PWM_Set(uint16 PWMin){
 599              		.loc 1 209 0
 600              		.cfi_startproc
 601              		@ args = 0, pretend = 0, frame = 16
 602              		@ frame_needed = 1, uses_anonymous_args = 0
 603 0000 80B5     		push	{r7, lr}
 604              		.cfi_def_cfa_offset 8
 605              		.cfi_offset 7, -8
 606              		.cfi_offset 14, -4
 607 0002 84B0     		sub	sp, sp, #16
 608              		.cfi_def_cfa_offset 24
 609 0004 00AF     		add	r7, sp, #0
 610              		.cfi_def_cfa_register 7
 611 0006 0346     		mov	r3, r0
 612 0008 FB80     		strh	r3, [r7, #6]	@ movhi
 210:main.c        ****    uint16 PWMdiv = PWMin* .33333;
 613              		.loc 1 210 0
 614 000a FB88     		ldrh	r3, [r7, #6]
 615 000c 1846     		mov	r0, r3
 616 000e FFF7FEFF 		bl	__aeabi_i2d
 617 0012 0246     		mov	r2, r0
 618 0014 0B46     		mov	r3, r1
 619 0016 1046     		mov	r0, r2
 620 0018 1946     		mov	r1, r3
 621 001a 31A3     		adr	r3, .L40
 622 001c D3E90023 		ldrd	r2, [r3]
 623 0020 FFF7FEFF 		bl	__aeabi_dmul
 624 0024 0246     		mov	r2, r0
 625 0026 0B46     		mov	r3, r1
 626 0028 1046     		mov	r0, r2
 627 002a 1946     		mov	r1, r3
 628 002c FFF7FEFF 		bl	__aeabi_d2uiz
 629 0030 0346     		mov	r3, r0
 630 0032 FB81     		strh	r3, [r7, #14]	@ movhi
 211:main.c        **** 
 212:main.c        ****     PWM_4_WritePeriod(PWMin);
 631              		.loc 1 212 0
 632 0034 FB88     		ldrh	r3, [r7, #6]	@ movhi
 633 0036 DBB2     		uxtb	r3, r3
 634 0038 1846     		mov	r0, r3
 635 003a FFF7FEFF 		bl	PWM_4_WritePeriod
 213:main.c        ****     PWM_5_WritePeriod(PWMin);
 636              		.loc 1 213 0
 637 003e FB88     		ldrh	r3, [r7, #6]	@ movhi
 638 0040 DBB2     		uxtb	r3, r3
 639 0042 1846     		mov	r0, r3
 640 0044 FFF7FEFF 		bl	PWM_5_WritePeriod
ARM GAS  C:\Users\ben\AppData\Local\Temp\cc4u8fSj.s 			page 16


 214:main.c        ****     PWM_6_WritePeriod(PWMin);
 641              		.loc 1 214 0
 642 0048 FB88     		ldrh	r3, [r7, #6]	@ movhi
 643 004a DBB2     		uxtb	r3, r3
 644 004c 1846     		mov	r0, r3
 645 004e FFF7FEFF 		bl	PWM_6_WritePeriod
 215:main.c        ****     PWM_7_WritePeriod(PWMin);
 646              		.loc 1 215 0
 647 0052 FB88     		ldrh	r3, [r7, #6]	@ movhi
 648 0054 DBB2     		uxtb	r3, r3
 649 0056 1846     		mov	r0, r3
 650 0058 FFF7FEFF 		bl	PWM_7_WritePeriod
 216:main.c        ****     PWM_8_WritePeriod(PWMin);
 651              		.loc 1 216 0
 652 005c FB88     		ldrh	r3, [r7, #6]	@ movhi
 653 005e DBB2     		uxtb	r3, r3
 654 0060 1846     		mov	r0, r3
 655 0062 FFF7FEFF 		bl	PWM_8_WritePeriod
 217:main.c        ****     PWM_9_WritePeriod(PWMin);
 656              		.loc 1 217 0
 657 0066 FB88     		ldrh	r3, [r7, #6]	@ movhi
 658 0068 DBB2     		uxtb	r3, r3
 659 006a 1846     		mov	r0, r3
 660 006c FFF7FEFF 		bl	PWM_9_WritePeriod
 218:main.c        ****     PWM_10_WritePeriod(PWMin);
 661              		.loc 1 218 0
 662 0070 FB88     		ldrh	r3, [r7, #6]	@ movhi
 663 0072 DBB2     		uxtb	r3, r3
 664 0074 1846     		mov	r0, r3
 665 0076 FFF7FEFF 		bl	PWM_10_WritePeriod
 219:main.c        ****     PWM_11_WritePeriod(PWMin);
 666              		.loc 1 219 0
 667 007a FB88     		ldrh	r3, [r7, #6]	@ movhi
 668 007c DBB2     		uxtb	r3, r3
 669 007e 1846     		mov	r0, r3
 670 0080 FFF7FEFF 		bl	PWM_11_WritePeriod
 220:main.c        ****     
 221:main.c        **** 
 222:main.c        ****     PWM_4_WriteCompare(PWMdiv);
 671              		.loc 1 222 0
 672 0084 FB89     		ldrh	r3, [r7, #14]	@ movhi
 673 0086 DBB2     		uxtb	r3, r3
 674 0088 1846     		mov	r0, r3
 675 008a FFF7FEFF 		bl	PWM_4_WriteCompare
 223:main.c        ****     PWM_5_WriteCompare(PWMdiv);
 676              		.loc 1 223 0
 677 008e FB89     		ldrh	r3, [r7, #14]	@ movhi
 678 0090 DBB2     		uxtb	r3, r3
 679 0092 1846     		mov	r0, r3
 680 0094 FFF7FEFF 		bl	PWM_5_WriteCompare
 224:main.c        ****     PWM_6_WriteCompare(PWMdiv);
 681              		.loc 1 224 0
 682 0098 FB89     		ldrh	r3, [r7, #14]	@ movhi
 683 009a DBB2     		uxtb	r3, r3
 684 009c 1846     		mov	r0, r3
 685 009e FFF7FEFF 		bl	PWM_6_WriteCompare
 225:main.c        ****     PWM_7_WriteCompare(PWMdiv);
ARM GAS  C:\Users\ben\AppData\Local\Temp\cc4u8fSj.s 			page 17


 686              		.loc 1 225 0
 687 00a2 FB89     		ldrh	r3, [r7, #14]	@ movhi
 688 00a4 DBB2     		uxtb	r3, r3
 689 00a6 1846     		mov	r0, r3
 690 00a8 FFF7FEFF 		bl	PWM_7_WriteCompare
 226:main.c        ****     PWM_8_WriteCompare(PWMdiv);
 691              		.loc 1 226 0
 692 00ac FB89     		ldrh	r3, [r7, #14]	@ movhi
 693 00ae DBB2     		uxtb	r3, r3
 694 00b0 1846     		mov	r0, r3
 695 00b2 FFF7FEFF 		bl	PWM_8_WriteCompare
 227:main.c        ****     PWM_9_WriteCompare(PWMdiv);
 696              		.loc 1 227 0
 697 00b6 FB89     		ldrh	r3, [r7, #14]	@ movhi
 698 00b8 DBB2     		uxtb	r3, r3
 699 00ba 1846     		mov	r0, r3
 700 00bc FFF7FEFF 		bl	PWM_9_WriteCompare
 228:main.c        ****     PWM_10_WriteCompare(PWMdiv);
 701              		.loc 1 228 0
 702 00c0 FB89     		ldrh	r3, [r7, #14]	@ movhi
 703 00c2 DBB2     		uxtb	r3, r3
 704 00c4 1846     		mov	r0, r3
 705 00c6 FFF7FEFF 		bl	PWM_10_WriteCompare
 229:main.c        ****     PWM_11_WriteCompare(PWMdiv);
 706              		.loc 1 229 0
 707 00ca FB89     		ldrh	r3, [r7, #14]	@ movhi
 708 00cc DBB2     		uxtb	r3, r3
 709 00ce 1846     		mov	r0, r3
 710 00d0 FFF7FEFF 		bl	PWM_11_WriteCompare
 230:main.c        ****     return;
 711              		.loc 1 230 0
 712 00d4 00BF     		nop
 231:main.c        **** }
 713              		.loc 1 231 0
 714 00d6 1037     		adds	r7, r7, #16
 715              		.cfi_def_cfa_offset 8
 716 00d8 BD46     		mov	sp, r7
 717              		.cfi_def_cfa_register 13
 718              		@ sp needed
 719 00da 80BD     		pop	{r7, pc}
 720              	.L41:
 721 00dc AFF30080 		.align	3
 722              	.L40:
 723 00e0 BEA4315A 		.word	1513202878
 724 00e4 4755D53F 		.word	1070945607
 725              		.cfi_endproc
 726              	.LFE66:
 727              		.size	PWM_Set, .-PWM_Set
 728              		.text
 729              	.Letext0:
 730              		.file 2 "c:\\program files (x86)\\cypress\\psoc creator\\4.0\\psoc creator\\import\\gnu\\arm\\4.9.
 731              		.file 3 "c:\\program files (x86)\\cypress\\psoc creator\\4.0\\psoc creator\\import\\gnu\\arm\\4.9.
 732              		.file 4 "Generated_Source\\PSoC5/cytypes.h"
 733              		.file 5 "Generated_Source\\PSoC5/core_cm3.h"