ARM GAS  C:\Users\ben\AppData\Local\Temp\ccU9GXbc.s 			page 1


   1              		.syntax unified
   2              		.cpu cortex-m3
   3              		.fpu softvfp
   4              		.eabi_attribute 20, 1
   5              		.eabi_attribute 21, 1
   6              		.eabi_attribute 23, 3
   7              		.eabi_attribute 24, 1
   8              		.eabi_attribute 25, 1
   9              		.eabi_attribute 26, 1
  10              		.eabi_attribute 30, 6
  11              		.eabi_attribute 34, 1
  12              		.eabi_attribute 18, 4
  13              		.thumb
  14              		.file	"ScanComp_1.c"
  15              		.text
  16              	.Ltext0:
  17              		.cfi_sections	.debug_frame
  18              		.bss
  19              	storeStatusReg:
  20 0000 00       		.space	1
  21              		.global	ScanComp_1_initVar
  22              		.type	ScanComp_1_initVar, %object
  23              		.size	ScanComp_1_initVar, 1
  24              	ScanComp_1_initVar:
  25 0001 00       		.space	1
  26              		.section	.rodata
  27              		.align	2
  28              		.type	interruptStatusMaskRegs, %object
  29              		.size	interruptStatusMaskRegs, 4
  30              	interruptStatusMaskRegs:
  31 0000 88650040 		.word	1073767816
  32              		.section	.text.ScanComp_1_Start,"ax",%progbits
  33              		.align	2
  34              		.global	ScanComp_1_Start
  35              		.thumb
  36              		.thumb_func
  37              		.type	ScanComp_1_Start, %function
  38              	ScanComp_1_Start:
  39              	.LFB0:
  40              		.file 1 "Generated_Source\\PSoC5\\ScanComp_1.c"
   1:Generated_Source\PSoC5/ScanComp_1.c **** /*******************************************************************************
   2:Generated_Source\PSoC5/ScanComp_1.c **** * File Name: ScanComp_1.c
   3:Generated_Source\PSoC5/ScanComp_1.c **** * Version 1.10
   4:Generated_Source\PSoC5/ScanComp_1.c **** *
   5:Generated_Source\PSoC5/ScanComp_1.c **** * Description:
   6:Generated_Source\PSoC5/ScanComp_1.c **** *  This file provides the source code to the API for the Scanning Comparator
   7:Generated_Source\PSoC5/ScanComp_1.c **** *  component
   8:Generated_Source\PSoC5/ScanComp_1.c **** *
   9:Generated_Source\PSoC5/ScanComp_1.c **** * Note:
  10:Generated_Source\PSoC5/ScanComp_1.c **** *  None
  11:Generated_Source\PSoC5/ScanComp_1.c **** *
  12:Generated_Source\PSoC5/ScanComp_1.c **** ********************************************************************************
  13:Generated_Source\PSoC5/ScanComp_1.c **** * Copyright 2013, Cypress Semiconductor Corporation.  All rights reserved.
  14:Generated_Source\PSoC5/ScanComp_1.c **** * You may use this file only in accordance with the license, terms, conditions,
  15:Generated_Source\PSoC5/ScanComp_1.c **** * disclaimers, and limitations in the end user license agreement accompanying
  16:Generated_Source\PSoC5/ScanComp_1.c **** * the software package with which this file was provided.
  17:Generated_Source\PSoC5/ScanComp_1.c **** *******************************************************************************/
ARM GAS  C:\Users\ben\AppData\Local\Temp\ccU9GXbc.s 			page 2


  18:Generated_Source\PSoC5/ScanComp_1.c **** 
  19:Generated_Source\PSoC5/ScanComp_1.c **** #include "ScanComp_1.h"
  20:Generated_Source\PSoC5/ScanComp_1.c **** 
  21:Generated_Source\PSoC5/ScanComp_1.c **** #if (ScanComp_1_INTERNAL_REF_IS_USED)
  22:Generated_Source\PSoC5/ScanComp_1.c **** 
  23:Generated_Source\PSoC5/ScanComp_1.c ****     static uint8  ScanComp_1_compDACRange;
  24:Generated_Source\PSoC5/ScanComp_1.c ****     
  25:Generated_Source\PSoC5/ScanComp_1.c ****     #if (ScanComp_1_VDAC_PER_CHANNEL_MODE_USED)
  26:Generated_Source\PSoC5/ScanComp_1.c ****         
  27:Generated_Source\PSoC5/ScanComp_1.c ****         /* Variable declarations for DMA */
  28:Generated_Source\PSoC5/ScanComp_1.c ****         static uint8 ScanComp_1_DMA_VDACUpdate_Chan;
  29:Generated_Source\PSoC5/ScanComp_1.c ****         static uint8 ScanComp_1_DMA_VDACUpdate_TD = CY_DMA_INVALID_TD;
  30:Generated_Source\PSoC5/ScanComp_1.c ****         
  31:Generated_Source\PSoC5/ScanComp_1.c ****         static void ScanComp_1_InitDma(void)  ;
  32:Generated_Source\PSoC5/ScanComp_1.c **** 
  33:Generated_Source\PSoC5/ScanComp_1.c ****         /* Array from customizer */
  34:Generated_Source\PSoC5/ScanComp_1.c ****         static uint8 ScanComp_1_DacVoltages[ScanComp_1_NUM_OF_CHANNELS] = {
  35:Generated_Source\PSoC5/ScanComp_1.c ****     0x7Du, 0x7Du, 0x7Du, 0x7Du, 0x7Du, 0x7Du, 0x7Du, 0x7Du, 
  36:Generated_Source\PSoC5/ScanComp_1.c **** };
  37:Generated_Source\PSoC5/ScanComp_1.c **** 
  38:Generated_Source\PSoC5/ScanComp_1.c ****     #else
  39:Generated_Source\PSoC5/ScanComp_1.c ****         static uint8  ScanComp_1_compDACVoltage;
  40:Generated_Source\PSoC5/ScanComp_1.c ****     #endif /* ScanComp_1_VDAC_PER_CHANNEL_MODE_USED */
  41:Generated_Source\PSoC5/ScanComp_1.c **** #endif /* ScanComp_1_INTERNAL_REF_IS_USED */
  42:Generated_Source\PSoC5/ScanComp_1.c **** 
  43:Generated_Source\PSoC5/ScanComp_1.c **** #if (ScanComp_1_NUM_OF_CHANNELS >= 8u)
  44:Generated_Source\PSoC5/ScanComp_1.c ****     static uint8 storeStatusReg;
  45:Generated_Source\PSoC5/ScanComp_1.c **** #endif /* ScanComp_1_NUM_OF_CHANNELS >= 8u */
  46:Generated_Source\PSoC5/ScanComp_1.c **** 
  47:Generated_Source\PSoC5/ScanComp_1.c **** uint8  ScanComp_1_initVar = 0u;
  48:Generated_Source\PSoC5/ScanComp_1.c **** 
  49:Generated_Source\PSoC5/ScanComp_1.c **** static reg8 * const CYCODE interruptStatusMaskRegs[ScanComp_1_NUM_OF_INT_REGISTERS] =
  50:Generated_Source\PSoC5/ScanComp_1.c **** {
  51:Generated_Source\PSoC5/ScanComp_1.c ****     ScanComp_1_STATUS_INT0_MASK_PTR,
  52:Generated_Source\PSoC5/ScanComp_1.c **** 
  53:Generated_Source\PSoC5/ScanComp_1.c ****     #if(ScanComp_1_NUM_OF_CHANNELS > 8u)
  54:Generated_Source\PSoC5/ScanComp_1.c ****         ScanComp_1_STATUS_INT1_MASK_PTR,
  55:Generated_Source\PSoC5/ScanComp_1.c ****     #endif /* ScanComp_1_NUM_OF_CHANNELS > 8u */
  56:Generated_Source\PSoC5/ScanComp_1.c **** 
  57:Generated_Source\PSoC5/ScanComp_1.c ****     #if(ScanComp_1_NUM_OF_CHANNELS > 16u)
  58:Generated_Source\PSoC5/ScanComp_1.c ****         ScanComp_1_STATUS_INT2_MASK_PTR,
  59:Generated_Source\PSoC5/ScanComp_1.c ****     #endif /* ScanComp_1_NUM_OF_CHANNELS > 16u */
  60:Generated_Source\PSoC5/ScanComp_1.c **** 
  61:Generated_Source\PSoC5/ScanComp_1.c ****     #if(ScanComp_1_NUM_OF_CHANNELS > 24u)
  62:Generated_Source\PSoC5/ScanComp_1.c ****         ScanComp_1_STATUS_INT3_MASK_PTR,
  63:Generated_Source\PSoC5/ScanComp_1.c ****     #endif /* ScanComp_1_NUM_OF_CHANNELS > 24u */
  64:Generated_Source\PSoC5/ScanComp_1.c **** 
  65:Generated_Source\PSoC5/ScanComp_1.c ****     #if(ScanComp_1_NUM_OF_CHANNELS > 32u)
  66:Generated_Source\PSoC5/ScanComp_1.c ****         ScanComp_1_STATUS_INT4_MASK_PTR,
  67:Generated_Source\PSoC5/ScanComp_1.c ****     #endif /* ScanComp_1_NUM_OF_CHANNELS > 32u */
  68:Generated_Source\PSoC5/ScanComp_1.c **** 
  69:Generated_Source\PSoC5/ScanComp_1.c ****     #if(ScanComp_1_NUM_OF_CHANNELS > 40u)
  70:Generated_Source\PSoC5/ScanComp_1.c ****         ScanComp_1_STATUS_INT5_MASK_PTR,
  71:Generated_Source\PSoC5/ScanComp_1.c ****     #endif /* ScanComp_1_NUM_OF_CHANNELS > 40u */
  72:Generated_Source\PSoC5/ScanComp_1.c **** 
  73:Generated_Source\PSoC5/ScanComp_1.c ****     #if(ScanComp_1_NUM_OF_CHANNELS > 48u)
  74:Generated_Source\PSoC5/ScanComp_1.c ****         ScanComp_1_STATUS_INT6_MASK_PTR,
ARM GAS  C:\Users\ben\AppData\Local\Temp\ccU9GXbc.s 			page 3


  75:Generated_Source\PSoC5/ScanComp_1.c ****     #endif /* ScanComp_1_NUM_OF_CHANNELS > 48u */
  76:Generated_Source\PSoC5/ScanComp_1.c **** 
  77:Generated_Source\PSoC5/ScanComp_1.c ****     #if(ScanComp_1_NUM_OF_CHANNELS > 56u)
  78:Generated_Source\PSoC5/ScanComp_1.c ****         ScanComp_1_STATUS_INT7_MASK_PTR,
  79:Generated_Source\PSoC5/ScanComp_1.c ****     #endif /* ScanComp_1_NUM_OF_CHANNELS > 56u */
  80:Generated_Source\PSoC5/ScanComp_1.c **** };
  81:Generated_Source\PSoC5/ScanComp_1.c **** 
  82:Generated_Source\PSoC5/ScanComp_1.c **** 
  83:Generated_Source\PSoC5/ScanComp_1.c **** /*******************************************************************************
  84:Generated_Source\PSoC5/ScanComp_1.c **** * Function Name: ScanComp_1_Start
  85:Generated_Source\PSoC5/ScanComp_1.c **** ********************************************************************************
  86:Generated_Source\PSoC5/ScanComp_1.c **** *
  87:Generated_Source\PSoC5/ScanComp_1.c **** * Summary:
  88:Generated_Source\PSoC5/ScanComp_1.c **** *  Performs all of the required initialization for the ScanComp component
  89:Generated_Source\PSoC5/ScanComp_1.c **** *  and enables power to the block.
  90:Generated_Source\PSoC5/ScanComp_1.c **** *
  91:Generated_Source\PSoC5/ScanComp_1.c **** * Parameters:
  92:Generated_Source\PSoC5/ScanComp_1.c **** *  None
  93:Generated_Source\PSoC5/ScanComp_1.c **** *
  94:Generated_Source\PSoC5/ScanComp_1.c **** * Return:
  95:Generated_Source\PSoC5/ScanComp_1.c **** *  None
  96:Generated_Source\PSoC5/ScanComp_1.c **** *
  97:Generated_Source\PSoC5/ScanComp_1.c **** *******************************************************************************/
  98:Generated_Source\PSoC5/ScanComp_1.c **** void ScanComp_1_Start(void) 
  99:Generated_Source\PSoC5/ScanComp_1.c **** {
  41              		.loc 1 99 0
  42              		.cfi_startproc
  43              		@ args = 0, pretend = 0, frame = 0
  44              		@ frame_needed = 1, uses_anonymous_args = 0
  45 0000 80B5     		push	{r7, lr}
  46              		.cfi_def_cfa_offset 8
  47              		.cfi_offset 7, -8
  48              		.cfi_offset 14, -4
  49 0002 00AF     		add	r7, sp, #0
  50              		.cfi_def_cfa_register 7
 100:Generated_Source\PSoC5/ScanComp_1.c ****     if(0u == ScanComp_1_initVar)
  51              		.loc 1 100 0
  52 0004 054B     		ldr	r3, .L3
  53 0006 1B78     		ldrb	r3, [r3]	@ zero_extendqisi2
  54 0008 002B     		cmp	r3, #0
  55 000a 04D1     		bne	.L2
 101:Generated_Source\PSoC5/ScanComp_1.c ****     {
 102:Generated_Source\PSoC5/ScanComp_1.c ****         ScanComp_1_Init();
  56              		.loc 1 102 0
  57 000c FFF7FEFF 		bl	ScanComp_1_Init
 103:Generated_Source\PSoC5/ScanComp_1.c ****         ScanComp_1_initVar = 1u;
  58              		.loc 1 103 0
  59 0010 024B     		ldr	r3, .L3
  60 0012 0122     		movs	r2, #1
  61 0014 1A70     		strb	r2, [r3]
  62              	.L2:
 104:Generated_Source\PSoC5/ScanComp_1.c ****     }
 105:Generated_Source\PSoC5/ScanComp_1.c ****     ScanComp_1_Enable();
  63              		.loc 1 105 0
  64 0016 FFF7FEFF 		bl	ScanComp_1_Enable
 106:Generated_Source\PSoC5/ScanComp_1.c **** }
  65              		.loc 1 106 0
ARM GAS  C:\Users\ben\AppData\Local\Temp\ccU9GXbc.s 			page 4


  66 001a 80BD     		pop	{r7, pc}
  67              	.L4:
  68              		.align	2
  69              	.L3:
  70 001c 00000000 		.word	ScanComp_1_initVar
  71              		.cfi_endproc
  72              	.LFE0:
  73              		.size	ScanComp_1_Start, .-ScanComp_1_Start
  74              		.section	.text.ScanComp_1_Init,"ax",%progbits
  75              		.align	2
  76              		.global	ScanComp_1_Init
  77              		.thumb
  78              		.thumb_func
  79              		.type	ScanComp_1_Init, %function
  80              	ScanComp_1_Init:
  81              	.LFB1:
 107:Generated_Source\PSoC5/ScanComp_1.c **** 
 108:Generated_Source\PSoC5/ScanComp_1.c **** 
 109:Generated_Source\PSoC5/ScanComp_1.c **** /*******************************************************************************
 110:Generated_Source\PSoC5/ScanComp_1.c **** * Function Name: ScanComp_1_Init
 111:Generated_Source\PSoC5/ScanComp_1.c **** ********************************************************************************
 112:Generated_Source\PSoC5/ScanComp_1.c **** *
 113:Generated_Source\PSoC5/ScanComp_1.c **** * Summary:
 114:Generated_Source\PSoC5/ScanComp_1.c **** *  Initializes or restores the ScanComp component according to
 115:Generated_Source\PSoC5/ScanComp_1.c **** *  the customizer settings.
 116:Generated_Source\PSoC5/ScanComp_1.c **** *
 117:Generated_Source\PSoC5/ScanComp_1.c **** * Parameters:
 118:Generated_Source\PSoC5/ScanComp_1.c **** *  None
 119:Generated_Source\PSoC5/ScanComp_1.c **** *
 120:Generated_Source\PSoC5/ScanComp_1.c **** * Return:
 121:Generated_Source\PSoC5/ScanComp_1.c **** *  None
 122:Generated_Source\PSoC5/ScanComp_1.c **** *
 123:Generated_Source\PSoC5/ScanComp_1.c **** *******************************************************************************/
 124:Generated_Source\PSoC5/ScanComp_1.c **** void ScanComp_1_Init(void) 
 125:Generated_Source\PSoC5/ScanComp_1.c **** {
  82              		.loc 1 125 0
  83              		.cfi_startproc
  84              		@ args = 0, pretend = 0, frame = 0
  85              		@ frame_needed = 1, uses_anonymous_args = 0
  86 0000 80B5     		push	{r7, lr}
  87              		.cfi_def_cfa_offset 8
  88              		.cfi_offset 7, -8
  89              		.cfi_offset 14, -4
  90 0002 00AF     		add	r7, sp, #0
  91              		.cfi_def_cfa_register 7
 126:Generated_Source\PSoC5/ScanComp_1.c ****     #if (ScanComp_1_NUM_OF_CHANNELS >= 8u)
 127:Generated_Source\PSoC5/ScanComp_1.c ****         storeStatusReg = 0u;
  92              		.loc 1 127 0
  93 0004 024B     		ldr	r3, .L6
  94 0006 0022     		movs	r2, #0
  95 0008 1A70     		strb	r2, [r3]
 128:Generated_Source\PSoC5/ScanComp_1.c ****     #endif /* ScanComp_1_NUM_OF_CHANNELS >= 8u */
 129:Generated_Source\PSoC5/ScanComp_1.c **** 
 130:Generated_Source\PSoC5/ScanComp_1.c ****     ScanComp_1_Comp_Init();    
  96              		.loc 1 130 0
  97 000a FFF7FEFF 		bl	ScanComp_1_Comp_Init
 131:Generated_Source\PSoC5/ScanComp_1.c ****     
ARM GAS  C:\Users\ben\AppData\Local\Temp\ccU9GXbc.s 			page 5


 132:Generated_Source\PSoC5/ScanComp_1.c ****     #if (ScanComp_1_INTERNAL_REF_IS_USED)
 133:Generated_Source\PSoC5/ScanComp_1.c ****         ScanComp_1_VDAC_Init();
 134:Generated_Source\PSoC5/ScanComp_1.c ****         ScanComp_1_compDACRange = ScanComp_1_DEFAULT_RANGE;
 135:Generated_Source\PSoC5/ScanComp_1.c **** 
 136:Generated_Source\PSoC5/ScanComp_1.c ****         #if (ScanComp_1_VDAC_PER_CHANNEL_MODE_USED)
 137:Generated_Source\PSoC5/ScanComp_1.c ****             ScanComp_1_VDAC_SetValue(0x0u);
 138:Generated_Source\PSoC5/ScanComp_1.c ****             
 139:Generated_Source\PSoC5/ScanComp_1.c ****             if(CY_DMA_INVALID_TD == ScanComp_1_DMA_VDACUpdate_TD)
 140:Generated_Source\PSoC5/ScanComp_1.c ****             {
 141:Generated_Source\PSoC5/ScanComp_1.c ****                 ScanComp_1_InitDma();
 142:Generated_Source\PSoC5/ScanComp_1.c ****             }            
 143:Generated_Source\PSoC5/ScanComp_1.c ****         #else
 144:Generated_Source\PSoC5/ScanComp_1.c ****             ScanComp_1_SetDACVoltage(ScanComp_1_DEFAULT_VOLTAGE);
 145:Generated_Source\PSoC5/ScanComp_1.c ****         #endif /* ScanComp_1_VDAC_PER_CHANNEL_MODE_USED */
 146:Generated_Source\PSoC5/ScanComp_1.c ****     #endif /* ScanComp_1_INTERNAL_REF_IS_USED */
 147:Generated_Source\PSoC5/ScanComp_1.c **** }
  98              		.loc 1 147 0
  99 000e 80BD     		pop	{r7, pc}
 100              	.L7:
 101              		.align	2
 102              	.L6:
 103 0010 00000000 		.word	storeStatusReg
 104              		.cfi_endproc
 105              	.LFE1:
 106              		.size	ScanComp_1_Init, .-ScanComp_1_Init
 107              		.section	.text.ScanComp_1_Stop,"ax",%progbits
 108              		.align	2
 109              		.global	ScanComp_1_Stop
 110              		.thumb
 111              		.thumb_func
 112              		.type	ScanComp_1_Stop, %function
 113              	ScanComp_1_Stop:
 114              	.LFB2:
 148:Generated_Source\PSoC5/ScanComp_1.c **** 
 149:Generated_Source\PSoC5/ScanComp_1.c **** 
 150:Generated_Source\PSoC5/ScanComp_1.c **** /*******************************************************************************
 151:Generated_Source\PSoC5/ScanComp_1.c **** * Function Name: ScanComp_1_Stop
 152:Generated_Source\PSoC5/ScanComp_1.c **** ********************************************************************************
 153:Generated_Source\PSoC5/ScanComp_1.c **** *
 154:Generated_Source\PSoC5/ScanComp_1.c **** * Summary:
 155:Generated_Source\PSoC5/ScanComp_1.c **** *  Turns off the Scanning Comparator by turning off the comparator itself and 
 156:Generated_Source\PSoC5/ScanComp_1.c **** *  halting the muxing of inputs, and turning off the DAC if it is used.
 157:Generated_Source\PSoC5/ScanComp_1.c **** *
 158:Generated_Source\PSoC5/ScanComp_1.c **** * Parameters:
 159:Generated_Source\PSoC5/ScanComp_1.c **** *  None
 160:Generated_Source\PSoC5/ScanComp_1.c **** *
 161:Generated_Source\PSoC5/ScanComp_1.c **** * Return:
 162:Generated_Source\PSoC5/ScanComp_1.c **** *  None
 163:Generated_Source\PSoC5/ScanComp_1.c **** *
 164:Generated_Source\PSoC5/ScanComp_1.c **** *******************************************************************************/
 165:Generated_Source\PSoC5/ScanComp_1.c **** void ScanComp_1_Stop(void) 
 166:Generated_Source\PSoC5/ScanComp_1.c **** {
 115              		.loc 1 166 0
 116              		.cfi_startproc
 117              		@ args = 0, pretend = 0, frame = 0
 118              		@ frame_needed = 1, uses_anonymous_args = 0
 119 0000 80B5     		push	{r7, lr}
ARM GAS  C:\Users\ben\AppData\Local\Temp\ccU9GXbc.s 			page 6


 120              		.cfi_def_cfa_offset 8
 121              		.cfi_offset 7, -8
 122              		.cfi_offset 14, -4
 123 0002 00AF     		add	r7, sp, #0
 124              		.cfi_def_cfa_register 7
 167:Generated_Source\PSoC5/ScanComp_1.c ****     ScanComp_1_CONTROL_REG = ScanComp_1_CONTROL_DISABLE;
 125              		.loc 1 167 0
 126 0004 024B     		ldr	r3, .L9
 127 0006 0022     		movs	r2, #0
 128 0008 1A70     		strb	r2, [r3]
 168:Generated_Source\PSoC5/ScanComp_1.c ****     
 169:Generated_Source\PSoC5/ScanComp_1.c ****     ScanComp_1_Comp_Stop();    
 129              		.loc 1 169 0
 130 000a FFF7FEFF 		bl	ScanComp_1_Comp_Stop
 170:Generated_Source\PSoC5/ScanComp_1.c ****     
 171:Generated_Source\PSoC5/ScanComp_1.c ****     #if (ScanComp_1_INTERNAL_REF_IS_USED)
 172:Generated_Source\PSoC5/ScanComp_1.c ****         ScanComp_1_VDAC_Stop();
 173:Generated_Source\PSoC5/ScanComp_1.c **** 
 174:Generated_Source\PSoC5/ScanComp_1.c ****         #if (ScanComp_1_VDAC_PER_CHANNEL_MODE_USED)
 175:Generated_Source\PSoC5/ScanComp_1.c ****             (void) CyDmaChDisable(ScanComp_1_DMA_VDACUpdate_Chan);
 176:Generated_Source\PSoC5/ScanComp_1.c ****         #endif /* ScanComp_1_VDAC_PER_CHANNEL_MODE_USED */
 177:Generated_Source\PSoC5/ScanComp_1.c ****     #endif /* ScanComp_1_INTERNAL_REF_IS_USED */
 178:Generated_Source\PSoC5/ScanComp_1.c **** }
 131              		.loc 1 178 0
 132 000e 80BD     		pop	{r7, pc}
 133              	.L10:
 134              		.align	2
 135              	.L9:
 136 0010 78640040 		.word	1073767544
 137              		.cfi_endproc
 138              	.LFE2:
 139              		.size	ScanComp_1_Stop, .-ScanComp_1_Stop
 140              		.section	.text.ScanComp_1_Enable,"ax",%progbits
 141              		.align	2
 142              		.global	ScanComp_1_Enable
 143              		.thumb
 144              		.thumb_func
 145              		.type	ScanComp_1_Enable, %function
 146              	ScanComp_1_Enable:
 147              	.LFB3:
 179:Generated_Source\PSoC5/ScanComp_1.c **** 
 180:Generated_Source\PSoC5/ScanComp_1.c **** 
 181:Generated_Source\PSoC5/ScanComp_1.c **** /*******************************************************************************
 182:Generated_Source\PSoC5/ScanComp_1.c **** * Function Name: ScanComp_1_Enable
 183:Generated_Source\PSoC5/ScanComp_1.c **** ********************************************************************************
 184:Generated_Source\PSoC5/ScanComp_1.c **** *
 185:Generated_Source\PSoC5/ScanComp_1.c **** * Summary:
 186:Generated_Source\PSoC5/ScanComp_1.c **** *  Activates the hardware and begins component operation.
 187:Generated_Source\PSoC5/ScanComp_1.c **** *
 188:Generated_Source\PSoC5/ScanComp_1.c **** * Parameters:
 189:Generated_Source\PSoC5/ScanComp_1.c **** *  None
 190:Generated_Source\PSoC5/ScanComp_1.c **** *
 191:Generated_Source\PSoC5/ScanComp_1.c **** * Return:
 192:Generated_Source\PSoC5/ScanComp_1.c **** *  None
 193:Generated_Source\PSoC5/ScanComp_1.c **** *
 194:Generated_Source\PSoC5/ScanComp_1.c **** *******************************************************************************/
 195:Generated_Source\PSoC5/ScanComp_1.c **** void ScanComp_1_Enable(void) 
ARM GAS  C:\Users\ben\AppData\Local\Temp\ccU9GXbc.s 			page 7


 196:Generated_Source\PSoC5/ScanComp_1.c **** {
 148              		.loc 1 196 0
 149              		.cfi_startproc
 150              		@ args = 0, pretend = 0, frame = 8
 151              		@ frame_needed = 1, uses_anonymous_args = 0
 152 0000 80B5     		push	{r7, lr}
 153              		.cfi_def_cfa_offset 8
 154              		.cfi_offset 7, -8
 155              		.cfi_offset 14, -4
 156 0002 82B0     		sub	sp, sp, #8
 157              		.cfi_def_cfa_offset 16
 158 0004 00AF     		add	r7, sp, #0
 159              		.cfi_def_cfa_register 7
 197:Generated_Source\PSoC5/ScanComp_1.c ****     uint8 interruptState;
 198:Generated_Source\PSoC5/ScanComp_1.c **** 
 199:Generated_Source\PSoC5/ScanComp_1.c ****     ScanComp_1_Comp_Enable();
 160              		.loc 1 199 0
 161 0006 FFF7FEFF 		bl	ScanComp_1_Comp_Enable
 200:Generated_Source\PSoC5/ScanComp_1.c ****     
 201:Generated_Source\PSoC5/ScanComp_1.c ****     ScanComp_1_COUNTER_COUNT_REG  = ScanComp_1_DEFAULT_CHANNELS_VAL;
 162              		.loc 1 201 0
 163 000a 104B     		ldr	r3, .L12
 164 000c 0722     		movs	r2, #7
 165 000e 1A70     		strb	r2, [r3]
 202:Generated_Source\PSoC5/ScanComp_1.c **** 
 203:Generated_Source\PSoC5/ScanComp_1.c ****     #if (ScanComp_1_INTERNAL_REF_IS_USED)
 204:Generated_Source\PSoC5/ScanComp_1.c ****         ScanComp_1_VDAC_Enable();
 205:Generated_Source\PSoC5/ScanComp_1.c ****         #if (ScanComp_1_VDAC_PER_CHANNEL_MODE_USED)        
 206:Generated_Source\PSoC5/ScanComp_1.c ****             (void)CyDmaClearPendingDrq(ScanComp_1_DMA_VDACUpdate_Chan);
 207:Generated_Source\PSoC5/ScanComp_1.c ****             (void)CyDmaChEnable(ScanComp_1_DMA_VDACUpdate_Chan, 1u);
 208:Generated_Source\PSoC5/ScanComp_1.c ****         #endif /* (ScanComp_1_VDAC_PER_CHANNEL_MODE_USED) */    
 209:Generated_Source\PSoC5/ScanComp_1.c ****     #endif /* ScanComp_1_INTERNAL_REF_IS_USED */    
 210:Generated_Source\PSoC5/ScanComp_1.c **** 
 211:Generated_Source\PSoC5/ScanComp_1.c ****     /* Enable Status Int */
 212:Generated_Source\PSoC5/ScanComp_1.c ****     interruptState = CyEnterCriticalSection();
 166              		.loc 1 212 0
 167 0010 FFF7FEFF 		bl	CyEnterCriticalSection
 168 0014 0346     		mov	r3, r0
 169 0016 FB71     		strb	r3, [r7, #7]
 213:Generated_Source\PSoC5/ScanComp_1.c **** 
 214:Generated_Source\PSoC5/ScanComp_1.c ****     #if (ScanComp_1_NUM_OF_CHANNELS < 8u)
 215:Generated_Source\PSoC5/ScanComp_1.c ****         ScanComp_1_STATUS_INT0_AUX_CONTROL |= ScanComp_1_STATUS_INTR_ENBL;
 216:Generated_Source\PSoC5/ScanComp_1.c ****     #endif /* ScanComp_1_NUM_OF_CHANNELS < 8u */
 217:Generated_Source\PSoC5/ScanComp_1.c **** 
 218:Generated_Source\PSoC5/ScanComp_1.c ****     #if (ScanComp_1_NUM_OF_CHANNELS >= 8u)
 219:Generated_Source\PSoC5/ScanComp_1.c ****         ScanComp_1_STATUS_INT8_AUX_CONTROL |= ScanComp_1_STATUS_INTR_ENBL;
 170              		.loc 1 219 0
 171 0018 0D4A     		ldr	r2, .L12+4
 172 001a 0D4B     		ldr	r3, .L12+4
 173 001c 1B78     		ldrb	r3, [r3]
 174 001e DBB2     		uxtb	r3, r3
 175 0020 43F01003 		orr	r3, r3, #16
 176 0024 DBB2     		uxtb	r3, r3
 177 0026 1370     		strb	r3, [r2]
 220:Generated_Source\PSoC5/ScanComp_1.c ****     #endif /* ScanComp_1_NUM_OF_CHANNELS >= 8u */
 221:Generated_Source\PSoC5/ScanComp_1.c **** 
 222:Generated_Source\PSoC5/ScanComp_1.c ****     #if (ScanComp_1_NUM_OF_CHANNELS >= 9u)
ARM GAS  C:\Users\ben\AppData\Local\Temp\ccU9GXbc.s 			page 8


 223:Generated_Source\PSoC5/ScanComp_1.c ****         ScanComp_1_STATUS_INT1_AUX_CONTROL |= ScanComp_1_STATUS_INTR_ENBL;
 224:Generated_Source\PSoC5/ScanComp_1.c ****     #endif /* ScanComp_1_NUM_OF_CHANNELS >= 9u */
 225:Generated_Source\PSoC5/ScanComp_1.c **** 
 226:Generated_Source\PSoC5/ScanComp_1.c ****     #if (ScanComp_1_NUM_OF_CHANNELS > 16u)
 227:Generated_Source\PSoC5/ScanComp_1.c ****         ScanComp_1_STATUS_INT2_AUX_CONTROL |= ScanComp_1_STATUS_INTR_ENBL;
 228:Generated_Source\PSoC5/ScanComp_1.c ****     #endif /* ScanComp_1_NUM_OF_CHANNELS > 16u */
 229:Generated_Source\PSoC5/ScanComp_1.c **** 
 230:Generated_Source\PSoC5/ScanComp_1.c ****     #if (ScanComp_1_NUM_OF_CHANNELS > 24u)
 231:Generated_Source\PSoC5/ScanComp_1.c ****         ScanComp_1_STATUS_INT3_AUX_CONTROL |= ScanComp_1_STATUS_INTR_ENBL;
 232:Generated_Source\PSoC5/ScanComp_1.c ****     #endif /* ScanComp_1_NUM_OF_CHANNELS > 24u */
 233:Generated_Source\PSoC5/ScanComp_1.c **** 
 234:Generated_Source\PSoC5/ScanComp_1.c ****     #if (ScanComp_1_NUM_OF_CHANNELS > 32u)
 235:Generated_Source\PSoC5/ScanComp_1.c ****         ScanComp_1_STATUS_INT4_AUX_CONTROL |= ScanComp_1_STATUS_INTR_ENBL;
 236:Generated_Source\PSoC5/ScanComp_1.c ****     #endif /* ScanComp_1_NUM_OF_CHANNELS > 32u */
 237:Generated_Source\PSoC5/ScanComp_1.c **** 
 238:Generated_Source\PSoC5/ScanComp_1.c ****     #if (ScanComp_1_NUM_OF_CHANNELS > 40u)
 239:Generated_Source\PSoC5/ScanComp_1.c ****         ScanComp_1_STATUS_INT5_AUX_CONTROL |= ScanComp_1_STATUS_INTR_ENBL;
 240:Generated_Source\PSoC5/ScanComp_1.c ****     #endif /* ScanComp_1_NUM_OF_CHANNELS > 40u */
 241:Generated_Source\PSoC5/ScanComp_1.c **** 
 242:Generated_Source\PSoC5/ScanComp_1.c ****     #if (ScanComp_1_NUM_OF_CHANNELS > 48u)
 243:Generated_Source\PSoC5/ScanComp_1.c ****         ScanComp_1_STATUS_INT6_AUX_CONTROL |= ScanComp_1_STATUS_INTR_ENBL;
 244:Generated_Source\PSoC5/ScanComp_1.c ****     #endif /* ScanComp_1_NUM_OF_CHANNELS > 48u */
 245:Generated_Source\PSoC5/ScanComp_1.c **** 
 246:Generated_Source\PSoC5/ScanComp_1.c ****     #if (ScanComp_1_NUM_OF_CHANNELS > 56u)
 247:Generated_Source\PSoC5/ScanComp_1.c ****         ScanComp_1_STATUS_INT7_AUX_CONTROL |= ScanComp_1_STATUS_INTR_ENBL;
 248:Generated_Source\PSoC5/ScanComp_1.c ****     #endif /* ScanComp_1_NUM_OF_CHANNELS > 56u */
 249:Generated_Source\PSoC5/ScanComp_1.c **** 
 250:Generated_Source\PSoC5/ScanComp_1.c ****     #if (ScanComp_1_NUM_OF_CHANNELS == 64)
 251:Generated_Source\PSoC5/ScanComp_1.c ****         ScanComp_1_STATUS_INT9_AUX_CONTROL |= ScanComp_1_STATUS_INTR_ENBL;
 252:Generated_Source\PSoC5/ScanComp_1.c ****     #endif /* ScanComp_1_NUM_OF_CHANNELS == 64u */
 253:Generated_Source\PSoC5/ScanComp_1.c **** 
 254:Generated_Source\PSoC5/ScanComp_1.c ****     ScanComp_1_COUNTER_AUX_CONTROL_REG |= ScanComp_1_COUNTER_ENABLE;
 178              		.loc 1 254 0
 179 0028 0A4A     		ldr	r2, .L12+8
 180 002a 0A4B     		ldr	r3, .L12+8
 181 002c 1B78     		ldrb	r3, [r3]
 182 002e DBB2     		uxtb	r3, r3
 183 0030 43F02003 		orr	r3, r3, #32
 184 0034 DBB2     		uxtb	r3, r3
 185 0036 1370     		strb	r3, [r2]
 255:Generated_Source\PSoC5/ScanComp_1.c **** 
 256:Generated_Source\PSoC5/ScanComp_1.c ****     CyExitCriticalSection(interruptState);
 186              		.loc 1 256 0
 187 0038 FB79     		ldrb	r3, [r7, #7]	@ zero_extendqisi2
 188 003a 1846     		mov	r0, r3
 189 003c FFF7FEFF 		bl	CyExitCriticalSection
 257:Generated_Source\PSoC5/ScanComp_1.c **** 
 258:Generated_Source\PSoC5/ScanComp_1.c ****     ScanComp_1_CONTROL_REG = ScanComp_1_CONTROL_ENABLE ;
 190              		.loc 1 258 0
 191 0040 054B     		ldr	r3, .L12+12
 192 0042 0122     		movs	r2, #1
 193 0044 1A70     		strb	r2, [r3]
 259:Generated_Source\PSoC5/ScanComp_1.c **** }
 194              		.loc 1 259 0
 195 0046 0837     		adds	r7, r7, #8
 196              		.cfi_def_cfa_offset 8
 197 0048 BD46     		mov	sp, r7
ARM GAS  C:\Users\ben\AppData\Local\Temp\ccU9GXbc.s 			page 9


 198              		.cfi_def_cfa_register 13
 199              		@ sp needed
 200 004a 80BD     		pop	{r7, pc}
 201              	.L13:
 202              		.align	2
 203              	.L12:
 204 004c 77640040 		.word	1073767543
 205 0050 99640040 		.word	1073767577
 206 0054 97640040 		.word	1073767575
 207 0058 78640040 		.word	1073767544
 208              		.cfi_endproc
 209              	.LFE3:
 210              		.size	ScanComp_1_Enable, .-ScanComp_1_Enable
 211              		.section	.text.ScanComp_1_SetSpeed,"ax",%progbits
 212              		.align	2
 213              		.global	ScanComp_1_SetSpeed
 214              		.thumb
 215              		.thumb_func
 216              		.type	ScanComp_1_SetSpeed, %function
 217              	ScanComp_1_SetSpeed:
 218              	.LFB4:
 260:Generated_Source\PSoC5/ScanComp_1.c **** 
 261:Generated_Source\PSoC5/ScanComp_1.c **** 
 262:Generated_Source\PSoC5/ScanComp_1.c **** /*******************************************************************************
 263:Generated_Source\PSoC5/ScanComp_1.c **** * Function Name: ScanComp_1_SetSpeed
 264:Generated_Source\PSoC5/ScanComp_1.c **** ********************************************************************************
 265:Generated_Source\PSoC5/ScanComp_1.c **** *
 266:Generated_Source\PSoC5/ScanComp_1.c **** * Summary:
 267:Generated_Source\PSoC5/ScanComp_1.c **** *  Sets the drive power and speed to one of three settings.
 268:Generated_Source\PSoC5/ScanComp_1.c **** *
 269:Generated_Source\PSoC5/ScanComp_1.c **** * Parameters:
 270:Generated_Source\PSoC5/ScanComp_1.c **** *  speed: enumerated speed mode value.
 271:Generated_Source\PSoC5/ScanComp_1.c **** *   ScanComp_1_SLOWSPEED  - Slow speed / Ultra low power
 272:Generated_Source\PSoC5/ScanComp_1.c **** *   ScanComp_1_MEDSPEED   - Medium speed / Medium power
 273:Generated_Source\PSoC5/ScanComp_1.c **** *   ScanComp_1_HIGHSPEED  - High speed / High power
 274:Generated_Source\PSoC5/ScanComp_1.c **** *
 275:Generated_Source\PSoC5/ScanComp_1.c **** * Return:
 276:Generated_Source\PSoC5/ScanComp_1.c **** *  None
 277:Generated_Source\PSoC5/ScanComp_1.c **** *
 278:Generated_Source\PSoC5/ScanComp_1.c **** *******************************************************************************/
 279:Generated_Source\PSoC5/ScanComp_1.c **** void ScanComp_1_SetSpeed(uint8 speed) 
 280:Generated_Source\PSoC5/ScanComp_1.c **** {
 219              		.loc 1 280 0
 220              		.cfi_startproc
 221              		@ args = 0, pretend = 0, frame = 8
 222              		@ frame_needed = 1, uses_anonymous_args = 0
 223 0000 80B5     		push	{r7, lr}
 224              		.cfi_def_cfa_offset 8
 225              		.cfi_offset 7, -8
 226              		.cfi_offset 14, -4
 227 0002 82B0     		sub	sp, sp, #8
 228              		.cfi_def_cfa_offset 16
 229 0004 00AF     		add	r7, sp, #0
 230              		.cfi_def_cfa_register 7
 231 0006 0346     		mov	r3, r0
 232 0008 FB71     		strb	r3, [r7, #7]
 281:Generated_Source\PSoC5/ScanComp_1.c ****     #if (CY_PSOC4)
ARM GAS  C:\Users\ben\AppData\Local\Temp\ccU9GXbc.s 			page 10


 282:Generated_Source\PSoC5/ScanComp_1.c ****         ScanComp_1_Comp_SetSpeed((uint32)speed);
 283:Generated_Source\PSoC5/ScanComp_1.c ****     #else
 284:Generated_Source\PSoC5/ScanComp_1.c ****         ScanComp_1_Comp_SetSpeed(speed);
 233              		.loc 1 284 0
 234 000a FB79     		ldrb	r3, [r7, #7]	@ zero_extendqisi2
 235 000c 1846     		mov	r0, r3
 236 000e FFF7FEFF 		bl	ScanComp_1_Comp_SetSpeed
 285:Generated_Source\PSoC5/ScanComp_1.c ****     #endif /* CY_PSOC4 */
 286:Generated_Source\PSoC5/ScanComp_1.c **** }
 237              		.loc 1 286 0
 238 0012 0837     		adds	r7, r7, #8
 239              		.cfi_def_cfa_offset 8
 240 0014 BD46     		mov	sp, r7
 241              		.cfi_def_cfa_register 13
 242              		@ sp needed
 243 0016 80BD     		pop	{r7, pc}
 244              		.cfi_endproc
 245              	.LFE4:
 246              		.size	ScanComp_1_SetSpeed, .-ScanComp_1_SetSpeed
 247              		.section	.text.ScanComp_1_GetInterruptSource,"ax",%progbits
 248              		.align	2
 249              		.global	ScanComp_1_GetInterruptSource
 250              		.thumb
 251              		.thumb_func
 252              		.type	ScanComp_1_GetInterruptSource, %function
 253              	ScanComp_1_GetInterruptSource:
 254              	.LFB5:
 287:Generated_Source\PSoC5/ScanComp_1.c **** 
 288:Generated_Source\PSoC5/ScanComp_1.c **** 
 289:Generated_Source\PSoC5/ScanComp_1.c **** /*******************************************************************************
 290:Generated_Source\PSoC5/ScanComp_1.c **** * Function Name: ScanComp_1_GetInterruptSource
 291:Generated_Source\PSoC5/ScanComp_1.c **** ********************************************************************************
 292:Generated_Source\PSoC5/ScanComp_1.c **** *
 293:Generated_Source\PSoC5/ScanComp_1.c **** * Summary:
 294:Generated_Source\PSoC5/ScanComp_1.c **** *  Gets the pending interrupt requests from the selected block.
 295:Generated_Source\PSoC5/ScanComp_1.c **** *  Even masked interrupts are returned.
 296:Generated_Source\PSoC5/ScanComp_1.c **** *
 297:Generated_Source\PSoC5/ScanComp_1.c **** * Parameters:
 298:Generated_Source\PSoC5/ScanComp_1.c **** *  InputBlock: Specifies the block of 8 channels whose interrupt requests
 299:Generated_Source\PSoC5/ScanComp_1.c **** *  should be returned.
 300:Generated_Source\PSoC5/ScanComp_1.c **** *
 301:Generated_Source\PSoC5/ScanComp_1.c **** * Return:
 302:Generated_Source\PSoC5/ScanComp_1.c **** *  Bit field of interrupt sources from the selected block of 8 inputs.
 303:Generated_Source\PSoC5/ScanComp_1.c **** *
 304:Generated_Source\PSoC5/ScanComp_1.c **** *******************************************************************************/
 305:Generated_Source\PSoC5/ScanComp_1.c **** uint8 ScanComp_1_GetInterruptSource(uint8 inputBlock) 
 306:Generated_Source\PSoC5/ScanComp_1.c **** {
 255              		.loc 1 306 0
 256              		.cfi_startproc
 257              		@ args = 0, pretend = 0, frame = 16
 258              		@ frame_needed = 1, uses_anonymous_args = 0
 259              		@ link register save eliminated.
 260 0000 80B4     		push	{r7}
 261              		.cfi_def_cfa_offset 4
 262              		.cfi_offset 7, -4
 263 0002 85B0     		sub	sp, sp, #20
 264              		.cfi_def_cfa_offset 24
ARM GAS  C:\Users\ben\AppData\Local\Temp\ccU9GXbc.s 			page 11


 265 0004 00AF     		add	r7, sp, #0
 266              		.cfi_def_cfa_register 7
 267 0006 0346     		mov	r3, r0
 268 0008 FB71     		strb	r3, [r7, #7]
 307:Generated_Source\PSoC5/ScanComp_1.c ****     uint8 intSrc = 0u;
 269              		.loc 1 307 0
 270 000a 0023     		movs	r3, #0
 271 000c FB73     		strb	r3, [r7, #15]
 308:Generated_Source\PSoC5/ScanComp_1.c **** 
 309:Generated_Source\PSoC5/ScanComp_1.c ****     #if (ScanComp_1_NUM_OF_CHANNELS >= 8u)
 310:Generated_Source\PSoC5/ScanComp_1.c ****         uint8 intMsb = 0u;
 272              		.loc 1 310 0
 273 000e 0023     		movs	r3, #0
 274 0010 BB73     		strb	r3, [r7, #14]
 311:Generated_Source\PSoC5/ScanComp_1.c ****     #endif /* ScanComp_1_NUM_OF_CHANNELS >= 8u */
 312:Generated_Source\PSoC5/ScanComp_1.c **** 
 313:Generated_Source\PSoC5/ScanComp_1.c ****     static reg8 * const CYCODE interruptStatusRegs[ScanComp_1_NUM_OF_INT_REGISTERS] =
 314:Generated_Source\PSoC5/ScanComp_1.c ****     {
 315:Generated_Source\PSoC5/ScanComp_1.c ****         ScanComp_1_STATUS_INT0_PTR,
 316:Generated_Source\PSoC5/ScanComp_1.c **** 
 317:Generated_Source\PSoC5/ScanComp_1.c ****         #if(ScanComp_1_NUM_OF_CHANNELS > 8u)
 318:Generated_Source\PSoC5/ScanComp_1.c ****             ScanComp_1_STATUS_INT1_PTR,
 319:Generated_Source\PSoC5/ScanComp_1.c ****         #endif /* ScanComp_1_NUM_OF_CHANNELS > 8u */
 320:Generated_Source\PSoC5/ScanComp_1.c **** 
 321:Generated_Source\PSoC5/ScanComp_1.c ****         #if(ScanComp_1_NUM_OF_CHANNELS > 16u)
 322:Generated_Source\PSoC5/ScanComp_1.c ****             ScanComp_1_STATUS_INT2_PTR,
 323:Generated_Source\PSoC5/ScanComp_1.c ****         #endif /* ScanComp_1_NUM_OF_CHANNELS > 16u */
 324:Generated_Source\PSoC5/ScanComp_1.c **** 
 325:Generated_Source\PSoC5/ScanComp_1.c ****         #if(ScanComp_1_NUM_OF_CHANNELS > 24u)
 326:Generated_Source\PSoC5/ScanComp_1.c ****             ScanComp_1_STATUS_INT3_PTR,
 327:Generated_Source\PSoC5/ScanComp_1.c ****         #endif /* ScanComp_1_NUM_OF_CHANNELS > 24u */
 328:Generated_Source\PSoC5/ScanComp_1.c **** 
 329:Generated_Source\PSoC5/ScanComp_1.c ****         #if(ScanComp_1_NUM_OF_CHANNELS > 32u)
 330:Generated_Source\PSoC5/ScanComp_1.c ****             ScanComp_1_STATUS_INT4_PTR,
 331:Generated_Source\PSoC5/ScanComp_1.c ****         #endif /* ScanComp_1_NUM_OF_CHANNELS > 32u */
 332:Generated_Source\PSoC5/ScanComp_1.c **** 
 333:Generated_Source\PSoC5/ScanComp_1.c ****         #if(ScanComp_1_NUM_OF_CHANNELS > 40u)
 334:Generated_Source\PSoC5/ScanComp_1.c ****             ScanComp_1_STATUS_INT5_PTR,
 335:Generated_Source\PSoC5/ScanComp_1.c ****         #endif /* ScanComp_1_NUM_OF_CHANNELS > 40u */
 336:Generated_Source\PSoC5/ScanComp_1.c **** 
 337:Generated_Source\PSoC5/ScanComp_1.c ****         #if(ScanComp_1_NUM_OF_CHANNELS > 48u)
 338:Generated_Source\PSoC5/ScanComp_1.c ****             ScanComp_1_STATUS_INT6_PTR,
 339:Generated_Source\PSoC5/ScanComp_1.c ****         #endif /* ScanComp_1_NUM_OF_CHANNELS > 48u */
 340:Generated_Source\PSoC5/ScanComp_1.c **** 
 341:Generated_Source\PSoC5/ScanComp_1.c ****         #if(ScanComp_1_NUM_OF_CHANNELS > 56u)
 342:Generated_Source\PSoC5/ScanComp_1.c ****             ScanComp_1_STATUS_INT7_PTR,
 343:Generated_Source\PSoC5/ScanComp_1.c ****         #endif /* ScanComp_1_NUM_OF_CHANNELS > 56u */
 344:Generated_Source\PSoC5/ScanComp_1.c ****     };    
 345:Generated_Source\PSoC5/ScanComp_1.c ****     
 346:Generated_Source\PSoC5/ScanComp_1.c ****     if (inputBlock < ScanComp_1_NUM_OF_INT_REGISTERS)
 275              		.loc 1 346 0
 276 0012 FB79     		ldrb	r3, [r7, #7]	@ zero_extendqisi2
 277 0014 002B     		cmp	r3, #0
 278 0016 05D1     		bne	.L16
 347:Generated_Source\PSoC5/ScanComp_1.c ****     {
 348:Generated_Source\PSoC5/ScanComp_1.c ****         intSrc = ((uint8) (* interruptStatusRegs[inputBlock])) & ScanComp_1_INT_REG_MASK;
 279              		.loc 1 348 0
ARM GAS  C:\Users\ben\AppData\Local\Temp\ccU9GXbc.s 			page 12


 280 0018 194B     		ldr	r3, .L19
 281 001a 1B78     		ldrb	r3, [r3]
 282 001c DBB2     		uxtb	r3, r3
 283 001e 03F07F03 		and	r3, r3, #127
 284 0022 FB73     		strb	r3, [r7, #15]
 285              	.L16:
 349:Generated_Source\PSoC5/ScanComp_1.c ****     }
 350:Generated_Source\PSoC5/ScanComp_1.c ****     
 351:Generated_Source\PSoC5/ScanComp_1.c ****     #if (ScanComp_1_NUM_OF_CHANNELS > 63u)
 352:Generated_Source\PSoC5/ScanComp_1.c ****         if (inputBlock == 7u)
 353:Generated_Source\PSoC5/ScanComp_1.c ****         {
 354:Generated_Source\PSoC5/ScanComp_1.c ****             intMsb = (uint8)(ScanComp_1_STATUS_INT9_REG  << ScanComp_1_7BIT_SHIFT);
 355:Generated_Source\PSoC5/ScanComp_1.c ****         }
 356:Generated_Source\PSoC5/ScanComp_1.c ****         else
 357:Generated_Source\PSoC5/ScanComp_1.c ****         {
 358:Generated_Source\PSoC5/ScanComp_1.c ****             storeStatusReg |= ScanComp_1_STATUS_INT8_REG;
 359:Generated_Source\PSoC5/ScanComp_1.c ****             intMsb = (uint8)((storeStatusReg >> inputBlock) << ScanComp_1_7BIT_SHIFT);
 360:Generated_Source\PSoC5/ScanComp_1.c ****             storeStatusReg = (storeStatusReg & (uint8)(~(uint8)(1u << inputBlock)));
 361:Generated_Source\PSoC5/ScanComp_1.c ****         }
 362:Generated_Source\PSoC5/ScanComp_1.c ****         intSrc |= intMsb;
 363:Generated_Source\PSoC5/ScanComp_1.c ****     #elif (ScanComp_1_NUM_OF_CHANNELS >= 8u)
 364:Generated_Source\PSoC5/ScanComp_1.c ****         if (inputBlock != 7u)
 286              		.loc 1 364 0
 287 0024 FB79     		ldrb	r3, [r7, #7]	@ zero_extendqisi2
 288 0026 072B     		cmp	r3, #7
 289 0028 1ED0     		beq	.L17
 365:Generated_Source\PSoC5/ScanComp_1.c ****         {
 366:Generated_Source\PSoC5/ScanComp_1.c ****             storeStatusReg |= ScanComp_1_STATUS_INT8_REG;
 290              		.loc 1 366 0
 291 002a 164B     		ldr	r3, .L19+4
 292 002c 1B78     		ldrb	r3, [r3]
 293 002e DAB2     		uxtb	r2, r3
 294 0030 154B     		ldr	r3, .L19+8
 295 0032 1B78     		ldrb	r3, [r3]	@ zero_extendqisi2
 296 0034 1343     		orrs	r3, r3, r2
 297 0036 DAB2     		uxtb	r2, r3
 298 0038 134B     		ldr	r3, .L19+8
 299 003a 1A70     		strb	r2, [r3]
 367:Generated_Source\PSoC5/ScanComp_1.c ****             intMsb = (uint8)((storeStatusReg >> inputBlock) << ScanComp_1_7BIT_SHIFT);
 300              		.loc 1 367 0
 301 003c 124B     		ldr	r3, .L19+8
 302 003e 1B78     		ldrb	r3, [r3]	@ zero_extendqisi2
 303 0040 1A46     		mov	r2, r3
 304 0042 FB79     		ldrb	r3, [r7, #7]	@ zero_extendqisi2
 305 0044 42FA03F3 		asr	r3, r2, r3
 306 0048 DBB2     		uxtb	r3, r3
 307 004a DB01     		lsls	r3, r3, #7
 308 004c BB73     		strb	r3, [r7, #14]
 368:Generated_Source\PSoC5/ScanComp_1.c ****             storeStatusReg = (storeStatusReg & (uint8)(~(uint8)(1u << inputBlock)));
 309              		.loc 1 368 0
 310 004e FB79     		ldrb	r3, [r7, #7]	@ zero_extendqisi2
 311 0050 0122     		movs	r2, #1
 312 0052 02FA03F3 		lsl	r3, r2, r3
 313 0056 DBB2     		uxtb	r3, r3
 314 0058 DB43     		mvns	r3, r3
 315 005a DAB2     		uxtb	r2, r3
 316 005c 0A4B     		ldr	r3, .L19+8
ARM GAS  C:\Users\ben\AppData\Local\Temp\ccU9GXbc.s 			page 13


 317 005e 1B78     		ldrb	r3, [r3]	@ zero_extendqisi2
 318 0060 1340     		ands	r3, r3, r2
 319 0062 DAB2     		uxtb	r2, r3
 320 0064 084B     		ldr	r3, .L19+8
 321 0066 1A70     		strb	r2, [r3]
 322              	.L17:
 369:Generated_Source\PSoC5/ScanComp_1.c ****         }
 370:Generated_Source\PSoC5/ScanComp_1.c ****         intSrc |= intMsb;
 323              		.loc 1 370 0
 324 0068 FA7B     		ldrb	r2, [r7, #15]
 325 006a BB7B     		ldrb	r3, [r7, #14]
 326 006c 1343     		orrs	r3, r3, r2
 327 006e FB73     		strb	r3, [r7, #15]
 371:Generated_Source\PSoC5/ScanComp_1.c ****     #endif /* ScanComp_1_NUM_OF_CHANNELS > 64u */
 372:Generated_Source\PSoC5/ScanComp_1.c **** 
 373:Generated_Source\PSoC5/ScanComp_1.c ****     return (intSrc);
 328              		.loc 1 373 0
 329 0070 FB7B     		ldrb	r3, [r7, #15]	@ zero_extendqisi2
 374:Generated_Source\PSoC5/ScanComp_1.c **** }
 330              		.loc 1 374 0
 331 0072 1846     		mov	r0, r3
 332 0074 1437     		adds	r7, r7, #20
 333              		.cfi_def_cfa_offset 4
 334 0076 BD46     		mov	sp, r7
 335              		.cfi_def_cfa_register 13
 336              		@ sp needed
 337 0078 5DF8047B 		ldr	r7, [sp], #4
 338              		.cfi_restore 7
 339              		.cfi_def_cfa_offset 0
 340 007c 7047     		bx	lr
 341              	.L20:
 342 007e 00BF     		.align	2
 343              	.L19:
 344 0080 68650040 		.word	1073767784
 345 0084 69640040 		.word	1073767529
 346 0088 00000000 		.word	storeStatusReg
 347              		.cfi_endproc
 348              	.LFE5:
 349              		.size	ScanComp_1_GetInterruptSource, .-ScanComp_1_GetInterruptSource
 350              		.section	.text.ScanComp_1_GetInterruptSourceMasked,"ax",%progbits
 351              		.align	2
 352              		.global	ScanComp_1_GetInterruptSourceMasked
 353              		.thumb
 354              		.thumb_func
 355              		.type	ScanComp_1_GetInterruptSourceMasked, %function
 356              	ScanComp_1_GetInterruptSourceMasked:
 357              	.LFB6:
 375:Generated_Source\PSoC5/ScanComp_1.c **** 
 376:Generated_Source\PSoC5/ScanComp_1.c **** 
 377:Generated_Source\PSoC5/ScanComp_1.c **** /*******************************************************************************
 378:Generated_Source\PSoC5/ScanComp_1.c **** * Function Name: ScanComp_1_GetInterruptSourceMasked
 379:Generated_Source\PSoC5/ScanComp_1.c **** ********************************************************************************
 380:Generated_Source\PSoC5/ScanComp_1.c **** *
 381:Generated_Source\PSoC5/ScanComp_1.c **** * Summary:
 382:Generated_Source\PSoC5/ScanComp_1.c **** *  Gets the pending interrupt requests from the selected block.
 383:Generated_Source\PSoC5/ScanComp_1.c **** *  Masked interrupts are not returned.
 384:Generated_Source\PSoC5/ScanComp_1.c **** *
ARM GAS  C:\Users\ben\AppData\Local\Temp\ccU9GXbc.s 			page 14


 385:Generated_Source\PSoC5/ScanComp_1.c **** * Parameters:
 386:Generated_Source\PSoC5/ScanComp_1.c **** *  InputBlock: Specifies the block of 8 channels whose interrupt requests
 387:Generated_Source\PSoC5/ScanComp_1.c **** *  should be returned.
 388:Generated_Source\PSoC5/ScanComp_1.c **** *
 389:Generated_Source\PSoC5/ScanComp_1.c **** * Return:
 390:Generated_Source\PSoC5/ScanComp_1.c **** *  Bit field of interrupt sources from the selected block of 8 inputs.
 391:Generated_Source\PSoC5/ScanComp_1.c **** *
 392:Generated_Source\PSoC5/ScanComp_1.c **** *******************************************************************************/
 393:Generated_Source\PSoC5/ScanComp_1.c **** uint8 ScanComp_1_GetInterruptSourceMasked(uint8 inputBlock)   \
 394:Generated_Source\PSoC5/ScanComp_1.c ****                                                 
 395:Generated_Source\PSoC5/ScanComp_1.c **** {
 358              		.loc 1 395 0
 359              		.cfi_startproc
 360              		@ args = 0, pretend = 0, frame = 8
 361              		@ frame_needed = 1, uses_anonymous_args = 0
 362 0000 90B5     		push	{r4, r7, lr}
 363              		.cfi_def_cfa_offset 12
 364              		.cfi_offset 4, -12
 365              		.cfi_offset 7, -8
 366              		.cfi_offset 14, -4
 367 0002 83B0     		sub	sp, sp, #12
 368              		.cfi_def_cfa_offset 24
 369 0004 00AF     		add	r7, sp, #0
 370              		.cfi_def_cfa_register 7
 371 0006 0346     		mov	r3, r0
 372 0008 FB71     		strb	r3, [r7, #7]
 396:Generated_Source\PSoC5/ScanComp_1.c ****     return (ScanComp_1_GetInterruptSource(inputBlock) & (uint8)~ScanComp_1_GetInterruptMask (inputB
 373              		.loc 1 396 0
 374 000a FB79     		ldrb	r3, [r7, #7]	@ zero_extendqisi2
 375 000c 1846     		mov	r0, r3
 376 000e FFF7FEFF 		bl	ScanComp_1_GetInterruptSource
 377 0012 0346     		mov	r3, r0
 378 0014 1C46     		mov	r4, r3
 379 0016 FB79     		ldrb	r3, [r7, #7]	@ zero_extendqisi2
 380 0018 1846     		mov	r0, r3
 381 001a FFF7FEFF 		bl	ScanComp_1_GetInterruptMask
 382 001e 0346     		mov	r3, r0
 383 0020 DB43     		mvns	r3, r3
 384 0022 DBB2     		uxtb	r3, r3
 385 0024 2340     		ands	r3, r3, r4
 386 0026 DBB2     		uxtb	r3, r3
 397:Generated_Source\PSoC5/ScanComp_1.c **** }
 387              		.loc 1 397 0
 388 0028 1846     		mov	r0, r3
 389 002a 0C37     		adds	r7, r7, #12
 390              		.cfi_def_cfa_offset 12
 391 002c BD46     		mov	sp, r7
 392              		.cfi_def_cfa_register 13
 393              		@ sp needed
 394 002e 90BD     		pop	{r4, r7, pc}
 395              		.cfi_endproc
 396              	.LFE6:
 397              		.size	ScanComp_1_GetInterruptSourceMasked, .-ScanComp_1_GetInterruptSourceMasked
 398              		.section	.text.ScanComp_1_GetInterruptMask,"ax",%progbits
 399              		.align	2
 400              		.global	ScanComp_1_GetInterruptMask
 401              		.thumb
ARM GAS  C:\Users\ben\AppData\Local\Temp\ccU9GXbc.s 			page 15


 402              		.thumb_func
 403              		.type	ScanComp_1_GetInterruptMask, %function
 404              	ScanComp_1_GetInterruptMask:
 405              	.LFB7:
 398:Generated_Source\PSoC5/ScanComp_1.c **** 
 399:Generated_Source\PSoC5/ScanComp_1.c **** 
 400:Generated_Source\PSoC5/ScanComp_1.c **** /*******************************************************************************
 401:Generated_Source\PSoC5/ScanComp_1.c **** * Function Name: ScanComp_1_GetInterruptMask
 402:Generated_Source\PSoC5/ScanComp_1.c **** ********************************************************************************
 403:Generated_Source\PSoC5/ScanComp_1.c **** *
 404:Generated_Source\PSoC5/ScanComp_1.c **** * Summary:
 405:Generated_Source\PSoC5/ScanComp_1.c **** *  Gets the current interrupt mask for the selected block.
 406:Generated_Source\PSoC5/ScanComp_1.c **** *
 407:Generated_Source\PSoC5/ScanComp_1.c **** * Parameters:
 408:Generated_Source\PSoC5/ScanComp_1.c **** *  InputBlock: Specifies the block of 8 channels whose interrupt requests
 409:Generated_Source\PSoC5/ScanComp_1.c **** *  should be returned.
 410:Generated_Source\PSoC5/ScanComp_1.c **** *
 411:Generated_Source\PSoC5/ScanComp_1.c **** * Return:
 412:Generated_Source\PSoC5/ScanComp_1.c **** *  The interrupt mask for the given block of channels.
 413:Generated_Source\PSoC5/ScanComp_1.c **** *  A '1' indicates that the interrupt is enabled, a '0' indicates that it 
 414:Generated_Source\PSoC5/ScanComp_1.c **** *  is masked off.
 415:Generated_Source\PSoC5/ScanComp_1.c **** *
 416:Generated_Source\PSoC5/ScanComp_1.c **** *******************************************************************************/
 417:Generated_Source\PSoC5/ScanComp_1.c **** uint8 ScanComp_1_GetInterruptMask(uint8 inputBlock) 
 418:Generated_Source\PSoC5/ScanComp_1.c **** {
 406              		.loc 1 418 0
 407              		.cfi_startproc
 408              		@ args = 0, pretend = 0, frame = 16
 409              		@ frame_needed = 1, uses_anonymous_args = 0
 410              		@ link register save eliminated.
 411 0000 80B4     		push	{r7}
 412              		.cfi_def_cfa_offset 4
 413              		.cfi_offset 7, -4
 414 0002 85B0     		sub	sp, sp, #20
 415              		.cfi_def_cfa_offset 24
 416 0004 00AF     		add	r7, sp, #0
 417              		.cfi_def_cfa_register 7
 418 0006 0346     		mov	r3, r0
 419 0008 FB71     		strb	r3, [r7, #7]
 419:Generated_Source\PSoC5/ScanComp_1.c ****     #if (ScanComp_1_NUM_OF_CHANNELS >= 8u)
 420:Generated_Source\PSoC5/ScanComp_1.c ****         uint8 maskMsb = 0u;
 420              		.loc 1 420 0
 421 000a 0023     		movs	r3, #0
 422 000c FB73     		strb	r3, [r7, #15]
 421:Generated_Source\PSoC5/ScanComp_1.c ****     #endif /* ScanComp_1_NUM_OF_CHANNELS >= 8u */
 422:Generated_Source\PSoC5/ScanComp_1.c **** 
 423:Generated_Source\PSoC5/ScanComp_1.c ****     uint8 intSrc = 0u;
 423              		.loc 1 423 0
 424 000e 0023     		movs	r3, #0
 425 0010 BB73     		strb	r3, [r7, #14]
 424:Generated_Source\PSoC5/ScanComp_1.c **** 
 425:Generated_Source\PSoC5/ScanComp_1.c ****     if (inputBlock < ScanComp_1_NUM_OF_INT_REGISTERS)
 426              		.loc 1 425 0
 427 0012 FB79     		ldrb	r3, [r7, #7]	@ zero_extendqisi2
 428 0014 002B     		cmp	r3, #0
 429 0016 02D1     		bne	.L24
 426:Generated_Source\PSoC5/ScanComp_1.c ****     {
ARM GAS  C:\Users\ben\AppData\Local\Temp\ccU9GXbc.s 			page 16


 427:Generated_Source\PSoC5/ScanComp_1.c ****         intSrc = (uint8) (* interruptStatusMaskRegs[inputBlock]);
 430              		.loc 1 427 0
 431 0018 0D4B     		ldr	r3, .L27
 432 001a 1B78     		ldrb	r3, [r3]
 433 001c BB73     		strb	r3, [r7, #14]
 434              	.L24:
 428:Generated_Source\PSoC5/ScanComp_1.c ****     }    
 429:Generated_Source\PSoC5/ScanComp_1.c **** 
 430:Generated_Source\PSoC5/ScanComp_1.c ****     #if (ScanComp_1_NUM_OF_CHANNELS > 63u)
 431:Generated_Source\PSoC5/ScanComp_1.c ****         if (inputBlock == 7u)
 432:Generated_Source\PSoC5/ScanComp_1.c ****         {
 433:Generated_Source\PSoC5/ScanComp_1.c ****             maskMsb = (uint8)(ScanComp_1_STATUS_INT9_MASK  << ScanComp_1_7BIT_SHIFT);
 434:Generated_Source\PSoC5/ScanComp_1.c ****         }
 435:Generated_Source\PSoC5/ScanComp_1.c ****         else
 436:Generated_Source\PSoC5/ScanComp_1.c ****         {
 437:Generated_Source\PSoC5/ScanComp_1.c ****             maskMsb = (uint8)((ScanComp_1_STATUS_INT8_MASK >> inputBlock) << ScanComp_1_7BIT_SHIFT)
 438:Generated_Source\PSoC5/ScanComp_1.c ****         }
 439:Generated_Source\PSoC5/ScanComp_1.c ****         intSrc |= maskMsb;
 440:Generated_Source\PSoC5/ScanComp_1.c ****     #elif (ScanComp_1_NUM_OF_CHANNELS >= 8u)
 441:Generated_Source\PSoC5/ScanComp_1.c ****         if (inputBlock != 7u)
 435              		.loc 1 441 0
 436 001e FB79     		ldrb	r3, [r7, #7]	@ zero_extendqisi2
 437 0020 072B     		cmp	r3, #7
 438 0022 09D0     		beq	.L25
 442:Generated_Source\PSoC5/ScanComp_1.c ****         {
 443:Generated_Source\PSoC5/ScanComp_1.c ****             maskMsb = (uint8)((ScanComp_1_STATUS_INT8_MASK >> inputBlock) << ScanComp_1_7BIT_SHIFT)
 439              		.loc 1 443 0
 440 0024 0B4B     		ldr	r3, .L27+4
 441 0026 1B78     		ldrb	r3, [r3]
 442 0028 DBB2     		uxtb	r3, r3
 443 002a 1A46     		mov	r2, r3
 444 002c FB79     		ldrb	r3, [r7, #7]	@ zero_extendqisi2
 445 002e 42FA03F3 		asr	r3, r2, r3
 446 0032 DBB2     		uxtb	r3, r3
 447 0034 DB01     		lsls	r3, r3, #7
 448 0036 FB73     		strb	r3, [r7, #15]
 449              	.L25:
 444:Generated_Source\PSoC5/ScanComp_1.c ****         }
 445:Generated_Source\PSoC5/ScanComp_1.c ****         intSrc |= maskMsb;
 450              		.loc 1 445 0
 451 0038 BA7B     		ldrb	r2, [r7, #14]
 452 003a FB7B     		ldrb	r3, [r7, #15]
 453 003c 1343     		orrs	r3, r3, r2
 454 003e BB73     		strb	r3, [r7, #14]
 446:Generated_Source\PSoC5/ScanComp_1.c ****     #endif /* ScanComp_1_NUM_OF_CHANNELS > 63u */
 447:Generated_Source\PSoC5/ScanComp_1.c **** 
 448:Generated_Source\PSoC5/ScanComp_1.c ****     return ((uint8)intSrc);
 455              		.loc 1 448 0
 456 0040 BB7B     		ldrb	r3, [r7, #14]	@ zero_extendqisi2
 449:Generated_Source\PSoC5/ScanComp_1.c **** }
 457              		.loc 1 449 0
 458 0042 1846     		mov	r0, r3
 459 0044 1437     		adds	r7, r7, #20
 460              		.cfi_def_cfa_offset 4
 461 0046 BD46     		mov	sp, r7
 462              		.cfi_def_cfa_register 13
 463              		@ sp needed
ARM GAS  C:\Users\ben\AppData\Local\Temp\ccU9GXbc.s 			page 17


 464 0048 5DF8047B 		ldr	r7, [sp], #4
 465              		.cfi_restore 7
 466              		.cfi_def_cfa_offset 0
 467 004c 7047     		bx	lr
 468              	.L28:
 469 004e 00BF     		.align	2
 470              	.L27:
 471 0050 88650040 		.word	1073767816
 472 0054 89640040 		.word	1073767561
 473              		.cfi_endproc
 474              	.LFE7:
 475              		.size	ScanComp_1_GetInterruptMask, .-ScanComp_1_GetInterruptMask
 476              		.section	.text.ScanComp_1_SetInterruptMask,"ax",%progbits
 477              		.align	2
 478              		.global	ScanComp_1_SetInterruptMask
 479              		.thumb
 480              		.thumb_func
 481              		.type	ScanComp_1_SetInterruptMask, %function
 482              	ScanComp_1_SetInterruptMask:
 483              	.LFB8:
 450:Generated_Source\PSoC5/ScanComp_1.c **** 
 451:Generated_Source\PSoC5/ScanComp_1.c **** 
 452:Generated_Source\PSoC5/ScanComp_1.c **** /*******************************************************************************
 453:Generated_Source\PSoC5/ScanComp_1.c **** * Function Name: ScanComp_1_SetInterruptMask
 454:Generated_Source\PSoC5/ScanComp_1.c **** ********************************************************************************
 455:Generated_Source\PSoC5/ScanComp_1.c **** *
 456:Generated_Source\PSoC5/ScanComp_1.c **** * Summary:
 457:Generated_Source\PSoC5/ScanComp_1.c **** *  Sets the interrupt masks for the set block of 8 channels.
 458:Generated_Source\PSoC5/ScanComp_1.c **** *
 459:Generated_Source\PSoC5/ScanComp_1.c **** * Parameters:
 460:Generated_Source\PSoC5/ScanComp_1.c **** *  InputBlock: specifies the block of 8 channels whose interrupt requests
 461:Generated_Source\PSoC5/ScanComp_1.c **** *  should be returned.
 462:Generated_Source\PSoC5/ScanComp_1.c **** *  mask: Interrupt mask value for the specified block of 8 or less channels. 
 463:Generated_Source\PSoC5/ScanComp_1.c **** *  A '1' indicates that the interrupt is enabled, a '0' indicates that it 
 464:Generated_Source\PSoC5/ScanComp_1.c **** *  is masked off.
 465:Generated_Source\PSoC5/ScanComp_1.c **** *
 466:Generated_Source\PSoC5/ScanComp_1.c **** * Return:
 467:Generated_Source\PSoC5/ScanComp_1.c **** *  None
 468:Generated_Source\PSoC5/ScanComp_1.c **** *
 469:Generated_Source\PSoC5/ScanComp_1.c **** *******************************************************************************/
 470:Generated_Source\PSoC5/ScanComp_1.c **** void ScanComp_1_SetInterruptMask(uint8 inputBlock, uint8 mask)    \
 471:Generated_Source\PSoC5/ScanComp_1.c ****                                        
 472:Generated_Source\PSoC5/ScanComp_1.c **** {
 484              		.loc 1 472 0
 485              		.cfi_startproc
 486              		@ args = 0, pretend = 0, frame = 16
 487              		@ frame_needed = 1, uses_anonymous_args = 0
 488              		@ link register save eliminated.
 489 0000 80B4     		push	{r7}
 490              		.cfi_def_cfa_offset 4
 491              		.cfi_offset 7, -4
 492 0002 85B0     		sub	sp, sp, #20
 493              		.cfi_def_cfa_offset 24
 494 0004 00AF     		add	r7, sp, #0
 495              		.cfi_def_cfa_register 7
 496 0006 0346     		mov	r3, r0
 497 0008 0A46     		mov	r2, r1
ARM GAS  C:\Users\ben\AppData\Local\Temp\ccU9GXbc.s 			page 18


 498 000a FB71     		strb	r3, [r7, #7]
 499 000c 1346     		mov	r3, r2
 500 000e BB71     		strb	r3, [r7, #6]
 473:Generated_Source\PSoC5/ScanComp_1.c ****     uint8 maskLsb = mask & ScanComp_1_7BIT_MASK;
 501              		.loc 1 473 0
 502 0010 BB79     		ldrb	r3, [r7, #6]
 503 0012 03F07F03 		and	r3, r3, #127
 504 0016 FB73     		strb	r3, [r7, #15]
 474:Generated_Source\PSoC5/ScanComp_1.c **** 
 475:Generated_Source\PSoC5/ScanComp_1.c ****     #if (ScanComp_1_NUM_OF_CHANNELS >= 8u)
 476:Generated_Source\PSoC5/ScanComp_1.c ****         uint8 maskMsb = (uint8)((mask >> ScanComp_1_7BIT_SHIFT) << inputBlock);
 505              		.loc 1 476 0
 506 0018 BB79     		ldrb	r3, [r7, #6]	@ zero_extendqisi2
 507 001a DB09     		lsrs	r3, r3, #7
 508 001c DBB2     		uxtb	r3, r3
 509 001e 1A46     		mov	r2, r3
 510 0020 FB79     		ldrb	r3, [r7, #7]	@ zero_extendqisi2
 511 0022 02FA03F3 		lsl	r3, r2, r3
 512 0026 BB73     		strb	r3, [r7, #14]
 477:Generated_Source\PSoC5/ScanComp_1.c ****     #endif /* ScanComp_1_NUM_OF_CHANNELS >= 8u */
 478:Generated_Source\PSoC5/ScanComp_1.c ****     
 479:Generated_Source\PSoC5/ScanComp_1.c ****     if (inputBlock < ScanComp_1_NUM_OF_INT_REGISTERS)
 513              		.loc 1 479 0
 514 0028 FB79     		ldrb	r3, [r7, #7]	@ zero_extendqisi2
 515 002a 002B     		cmp	r3, #0
 516 002c 02D1     		bne	.L30
 480:Generated_Source\PSoC5/ScanComp_1.c ****     {
 481:Generated_Source\PSoC5/ScanComp_1.c ****         (* interruptStatusMaskRegs[inputBlock]) = maskLsb;
 517              		.loc 1 481 0
 518 002e 074A     		ldr	r2, .L32
 519 0030 FB7B     		ldrb	r3, [r7, #15]
 520 0032 1370     		strb	r3, [r2]
 521              	.L30:
 482:Generated_Source\PSoC5/ScanComp_1.c ****     }    
 483:Generated_Source\PSoC5/ScanComp_1.c **** 
 484:Generated_Source\PSoC5/ScanComp_1.c ****     #if (ScanComp_1_NUM_OF_CHANNELS > 63u)
 485:Generated_Source\PSoC5/ScanComp_1.c ****         if (inputBlock == 7u)
 486:Generated_Source\PSoC5/ScanComp_1.c ****         {
 487:Generated_Source\PSoC5/ScanComp_1.c ****             ScanComp_1_STATUS_INT9_MASK = maskMsb;
 488:Generated_Source\PSoC5/ScanComp_1.c ****         }
 489:Generated_Source\PSoC5/ScanComp_1.c ****         else
 490:Generated_Source\PSoC5/ScanComp_1.c ****         {
 491:Generated_Source\PSoC5/ScanComp_1.c ****             ScanComp_1_STATUS_INT8_MASK = maskMsb;
 492:Generated_Source\PSoC5/ScanComp_1.c ****         }
 493:Generated_Source\PSoC5/ScanComp_1.c **** 
 494:Generated_Source\PSoC5/ScanComp_1.c ****     #elif (ScanComp_1_NUM_OF_CHANNELS >= 8u)
 495:Generated_Source\PSoC5/ScanComp_1.c ****         if (inputBlock != 7u)
 522              		.loc 1 495 0
 523 0034 FB79     		ldrb	r3, [r7, #7]	@ zero_extendqisi2
 524 0036 072B     		cmp	r3, #7
 525 0038 02D0     		beq	.L29
 496:Generated_Source\PSoC5/ScanComp_1.c ****         {
 497:Generated_Source\PSoC5/ScanComp_1.c ****             ScanComp_1_STATUS_INT8_MASK = maskMsb;
 526              		.loc 1 497 0
 527 003a 054A     		ldr	r2, .L32+4
 528 003c BB7B     		ldrb	r3, [r7, #14]
 529 003e 1370     		strb	r3, [r2]
ARM GAS  C:\Users\ben\AppData\Local\Temp\ccU9GXbc.s 			page 19


 530              	.L29:
 498:Generated_Source\PSoC5/ScanComp_1.c ****         }
 499:Generated_Source\PSoC5/ScanComp_1.c ****     #endif /* ScanComp_1_NUM_OF_CHANNELS > 63u */
 500:Generated_Source\PSoC5/ScanComp_1.c **** }
 531              		.loc 1 500 0
 532 0040 1437     		adds	r7, r7, #20
 533              		.cfi_def_cfa_offset 4
 534 0042 BD46     		mov	sp, r7
 535              		.cfi_def_cfa_register 13
 536              		@ sp needed
 537 0044 5DF8047B 		ldr	r7, [sp], #4
 538              		.cfi_restore 7
 539              		.cfi_def_cfa_offset 0
 540 0048 7047     		bx	lr
 541              	.L33:
 542 004a 00BF     		.align	2
 543              	.L32:
 544 004c 88650040 		.word	1073767816
 545 0050 89640040 		.word	1073767561
 546              		.cfi_endproc
 547              	.LFE8:
 548              		.size	ScanComp_1_SetInterruptMask, .-ScanComp_1_SetInterruptMask
 549              		.section	.text.ScanComp_1_GetCompare,"ax",%progbits
 550              		.align	2
 551              		.global	ScanComp_1_GetCompare
 552              		.thumb
 553              		.thumb_func
 554              		.type	ScanComp_1_GetCompare, %function
 555              	ScanComp_1_GetCompare:
 556              	.LFB9:
 501:Generated_Source\PSoC5/ScanComp_1.c **** 
 502:Generated_Source\PSoC5/ScanComp_1.c **** 
 503:Generated_Source\PSoC5/ScanComp_1.c **** /*******************************************************************************
 504:Generated_Source\PSoC5/ScanComp_1.c **** * Function Name: ScanComp_1_GetCompare
 505:Generated_Source\PSoC5/ScanComp_1.c **** ********************************************************************************
 506:Generated_Source\PSoC5/ScanComp_1.c **** *
 507:Generated_Source\PSoC5/ScanComp_1.c **** * Summary:
 508:Generated_Source\PSoC5/ScanComp_1.c **** *  Returns a nonzero value when the voltage connected to the positive input
 509:Generated_Source\PSoC5/ScanComp_1.c **** *  is greater than the negative input voltage.
 510:Generated_Source\PSoC5/ScanComp_1.c **** *
 511:Generated_Source\PSoC5/ScanComp_1.c **** * Parameters:
 512:Generated_Source\PSoC5/ScanComp_1.c **** *  channel: channel whose compare output is to be read.
 513:Generated_Source\PSoC5/ScanComp_1.c **** *
 514:Generated_Source\PSoC5/ScanComp_1.c **** * Return:
 515:Generated_Source\PSoC5/ScanComp_1.c **** *  Comparator output state
 516:Generated_Source\PSoC5/ScanComp_1.c **** *
 517:Generated_Source\PSoC5/ScanComp_1.c **** *******************************************************************************/
 518:Generated_Source\PSoC5/ScanComp_1.c **** uint8 ScanComp_1_GetCompare(uint8 channel) 
 519:Generated_Source\PSoC5/ScanComp_1.c **** {
 557              		.loc 1 519 0
 558              		.cfi_startproc
 559              		@ args = 0, pretend = 0, frame = 16
 560              		@ frame_needed = 1, uses_anonymous_args = 0
 561              		@ link register save eliminated.
 562 0000 80B4     		push	{r7}
 563              		.cfi_def_cfa_offset 4
 564              		.cfi_offset 7, -4
ARM GAS  C:\Users\ben\AppData\Local\Temp\ccU9GXbc.s 			page 20


 565 0002 85B0     		sub	sp, sp, #20
 566              		.cfi_def_cfa_offset 24
 567 0004 00AF     		add	r7, sp, #0
 568              		.cfi_def_cfa_register 7
 569 0006 0346     		mov	r3, r0
 570 0008 FB71     		strb	r3, [r7, #7]
 520:Generated_Source\PSoC5/ScanComp_1.c ****     uint8 compVal;
 521:Generated_Source\PSoC5/ScanComp_1.c ****     uint8 chanPos;
 522:Generated_Source\PSoC5/ScanComp_1.c ****     uint8 blockNum;
 523:Generated_Source\PSoC5/ScanComp_1.c **** 
 524:Generated_Source\PSoC5/ScanComp_1.c ****     static reg8 * const CYCODE outputStatusRegs[ScanComp_1_NUM_OF_OUT_REGISTERS] =
 525:Generated_Source\PSoC5/ScanComp_1.c ****     {
 526:Generated_Source\PSoC5/ScanComp_1.c ****         ScanComp_1_STATUS_OUT0_PTR,
 527:Generated_Source\PSoC5/ScanComp_1.c **** 
 528:Generated_Source\PSoC5/ScanComp_1.c ****         #if(ScanComp_1_NUM_OF_CHANNELS > 8u)
 529:Generated_Source\PSoC5/ScanComp_1.c ****             ScanComp_1_STATUS_OUT1_PTR,
 530:Generated_Source\PSoC5/ScanComp_1.c ****         #endif /* ScanComp_1_NUM_OF_CHANNELS > 8u */
 531:Generated_Source\PSoC5/ScanComp_1.c **** 
 532:Generated_Source\PSoC5/ScanComp_1.c ****         #if(ScanComp_1_NUM_OF_CHANNELS > 16u)
 533:Generated_Source\PSoC5/ScanComp_1.c ****             ScanComp_1_STATUS_OUT2_PTR,
 534:Generated_Source\PSoC5/ScanComp_1.c ****         #endif /* ScanComp_1_NUM_OF_CHANNELS > 16u */
 535:Generated_Source\PSoC5/ScanComp_1.c **** 
 536:Generated_Source\PSoC5/ScanComp_1.c ****         #if(ScanComp_1_NUM_OF_CHANNELS > 24u)
 537:Generated_Source\PSoC5/ScanComp_1.c ****             ScanComp_1_STATUS_OUT3_PTR,
 538:Generated_Source\PSoC5/ScanComp_1.c ****         #endif /* ScanComp_1_NUM_OF_CHANNELS > 24u */
 539:Generated_Source\PSoC5/ScanComp_1.c **** 
 540:Generated_Source\PSoC5/ScanComp_1.c ****         #if(ScanComp_1_NUM_OF_CHANNELS > 32u)
 541:Generated_Source\PSoC5/ScanComp_1.c ****             ScanComp_1_STATUS_OUT4_PTR,
 542:Generated_Source\PSoC5/ScanComp_1.c ****         #endif /* ScanComp_1_NUM_OF_CHANNELS > 32u */
 543:Generated_Source\PSoC5/ScanComp_1.c **** 
 544:Generated_Source\PSoC5/ScanComp_1.c ****         #if(ScanComp_1_NUM_OF_CHANNELS > 40u)
 545:Generated_Source\PSoC5/ScanComp_1.c ****             ScanComp_1_STATUS_OUT5_PTR,
 546:Generated_Source\PSoC5/ScanComp_1.c ****         #endif /* ScanComp_1_NUM_OF_CHANNELS > 40u */
 547:Generated_Source\PSoC5/ScanComp_1.c **** 
 548:Generated_Source\PSoC5/ScanComp_1.c ****         #if(ScanComp_1_NUM_OF_CHANNELS > 48u)
 549:Generated_Source\PSoC5/ScanComp_1.c ****             ScanComp_1_STATUS_OUT6_PTR,
 550:Generated_Source\PSoC5/ScanComp_1.c ****         #endif /* ScanComp_1_NUM_OF_CHANNELS > 48u */
 551:Generated_Source\PSoC5/ScanComp_1.c **** 
 552:Generated_Source\PSoC5/ScanComp_1.c ****         #if(ScanComp_1_NUM_OF_CHANNELS > 56u)
 553:Generated_Source\PSoC5/ScanComp_1.c ****             ScanComp_1_STATUS_OUT7_PTR,
 554:Generated_Source\PSoC5/ScanComp_1.c ****         #endif /* ScanComp_1_NUM_OF_CHANNELS > 56u */
 555:Generated_Source\PSoC5/ScanComp_1.c ****     };
 556:Generated_Source\PSoC5/ScanComp_1.c **** 
 557:Generated_Source\PSoC5/ScanComp_1.c ****     /* Identify block number by dividing by 8 */
 558:Generated_Source\PSoC5/ScanComp_1.c ****     blockNum = (channel >> 3u);
 571              		.loc 1 558 0
 572 000a FB79     		ldrb	r3, [r7, #7]	@ zero_extendqisi2
 573 000c DB08     		lsrs	r3, r3, #3
 574 000e FB73     		strb	r3, [r7, #15]
 559:Generated_Source\PSoC5/ScanComp_1.c **** 
 560:Generated_Source\PSoC5/ScanComp_1.c ****     /* Identify maximum available channels for block */
 561:Generated_Source\PSoC5/ScanComp_1.c ****     chanPos = (uint8)((blockNum + 1u) << 3u);
 575              		.loc 1 561 0
 576 0010 FB7B     		ldrb	r3, [r7, #15]
 577 0012 0133     		adds	r3, r3, #1
 578 0014 DBB2     		uxtb	r3, r3
 579 0016 DB00     		lsls	r3, r3, #3
ARM GAS  C:\Users\ben\AppData\Local\Temp\ccU9GXbc.s 			page 21


 580 0018 BB73     		strb	r3, [r7, #14]
 562:Generated_Source\PSoC5/ScanComp_1.c ****     
 563:Generated_Source\PSoC5/ScanComp_1.c ****     /* Identify channel position in the register */
 564:Generated_Source\PSoC5/ScanComp_1.c ****     chanPos = ScanComp_1_MSB_REG_BIT_HIGH >> ((chanPos - 1u) - channel);
 581              		.loc 1 564 0
 582 001a BA7B     		ldrb	r2, [r7, #14]	@ zero_extendqisi2
 583 001c FB79     		ldrb	r3, [r7, #7]	@ zero_extendqisi2
 584 001e D31A     		subs	r3, r2, r3
 585 0020 013B     		subs	r3, r3, #1
 586 0022 1A46     		mov	r2, r3
 587 0024 8023     		movs	r3, #128
 588 0026 D340     		lsrs	r3, r3, r2
 589 0028 BB73     		strb	r3, [r7, #14]
 565:Generated_Source\PSoC5/ScanComp_1.c ****     
 566:Generated_Source\PSoC5/ScanComp_1.c ****     /* Input block int register & MSB bit shift */
 567:Generated_Source\PSoC5/ScanComp_1.c ****     compVal = ((uint8) * outputStatusRegs[blockNum]) & chanPos;
 590              		.loc 1 567 0
 591 002a 064B     		ldr	r3, .L36
 592 002c 1B78     		ldrb	r3, [r3]
 593 002e DAB2     		uxtb	r2, r3
 594 0030 BB7B     		ldrb	r3, [r7, #14]
 595 0032 1340     		ands	r3, r3, r2
 596 0034 7B73     		strb	r3, [r7, #13]
 568:Generated_Source\PSoC5/ScanComp_1.c **** 
 569:Generated_Source\PSoC5/ScanComp_1.c ****     return (compVal);
 597              		.loc 1 569 0
 598 0036 7B7B     		ldrb	r3, [r7, #13]	@ zero_extendqisi2
 570:Generated_Source\PSoC5/ScanComp_1.c **** }
 599              		.loc 1 570 0
 600 0038 1846     		mov	r0, r3
 601 003a 1437     		adds	r7, r7, #20
 602              		.cfi_def_cfa_offset 4
 603 003c BD46     		mov	sp, r7
 604              		.cfi_def_cfa_register 13
 605              		@ sp needed
 606 003e 5DF8047B 		ldr	r7, [sp], #4
 607              		.cfi_restore 7
 608              		.cfi_def_cfa_offset 0
 609 0042 7047     		bx	lr
 610              	.L37:
 611              		.align	2
 612              	.L36:
 613 0044 68640040 		.word	1073767528
 614              		.cfi_endproc
 615              	.LFE9:
 616              		.size	ScanComp_1_GetCompare, .-ScanComp_1_GetCompare
 617              		.section	.rodata
 618              		.align	2
 619              		.type	interruptStatusRegs.4882, %object
 620              		.size	interruptStatusRegs.4882, 4
 621              	interruptStatusRegs.4882:
 622 0004 68650040 		.word	1073767784
 623              		.align	2
 624              		.type	outputStatusRegs.4903, %object
 625              		.size	outputStatusRegs.4903, 4
 626              	outputStatusRegs.4903:
 627 0008 68640040 		.word	1073767528
ARM GAS  C:\Users\ben\AppData\Local\Temp\ccU9GXbc.s 			page 22


 628              		.text
 629              	.Letext0:
 630              		.file 2 "Generated_Source\\PSoC5\\cytypes.h"