ARM GAS  C:\Users\ben\AppData\Local\Temp\ccWRtSUk.s 			page 1


   1              		.syntax unified
   2              		.cpu cortex-m3
   3              		.fpu softvfp
   4              		.eabi_attribute 20, 1
   5              		.eabi_attribute 21, 1
   6              		.eabi_attribute 23, 3
   7              		.eabi_attribute 24, 1
   8              		.eabi_attribute 25, 1
   9              		.eabi_attribute 26, 1
  10              		.eabi_attribute 30, 6
  11              		.eabi_attribute 34, 1
  12              		.eabi_attribute 18, 4
  13              		.thumb
  14              		.file	"SCCT_Comp_1.c"
  15              		.text
  16              	.Ltext0:
  17              		.cfi_sections	.debug_frame
  18              		.global	SCCT_Comp_1_initVar
  19              		.bss
  20              		.type	SCCT_Comp_1_initVar, %object
  21              		.size	SCCT_Comp_1_initVar, 1
  22              	SCCT_Comp_1_initVar:
  23 0000 00       		.space	1
  24              		.section	.text.SCCT_Comp_1_Init,"ax",%progbits
  25              		.align	2
  26              		.global	SCCT_Comp_1_Init
  27              		.thumb
  28              		.thumb_func
  29              		.type	SCCT_Comp_1_Init, %function
  30              	SCCT_Comp_1_Init:
  31              	.LFB0:
  32              		.file 1 "Generated_Source\\PSoC5\\SCCT_Comp_1.c"
   1:Generated_Source\PSoC5/SCCT_Comp_1.c **** /*******************************************************************************
   2:Generated_Source\PSoC5/SCCT_Comp_1.c **** * File Name: SCCT_Comp_1.c
   3:Generated_Source\PSoC5/SCCT_Comp_1.c **** * Version 1.0
   4:Generated_Source\PSoC5/SCCT_Comp_1.c **** *
   5:Generated_Source\PSoC5/SCCT_Comp_1.c **** * Description:
   6:Generated_Source\PSoC5/SCCT_Comp_1.c **** *  This file provides the source code to the API for the SCCT Comparator
   7:Generated_Source\PSoC5/SCCT_Comp_1.c **** *  component.
   8:Generated_Source\PSoC5/SCCT_Comp_1.c **** *
   9:Generated_Source\PSoC5/SCCT_Comp_1.c **** * Note:
  10:Generated_Source\PSoC5/SCCT_Comp_1.c **** *  None.
  11:Generated_Source\PSoC5/SCCT_Comp_1.c **** *
  12:Generated_Source\PSoC5/SCCT_Comp_1.c **** ********************************************************************************
  13:Generated_Source\PSoC5/SCCT_Comp_1.c **** * Copyright 2013, Cypress Semiconductor Corporation. All rights reserved.
  14:Generated_Source\PSoC5/SCCT_Comp_1.c **** * You may use this file only in accordance with the license, terms, conditions,
  15:Generated_Source\PSoC5/SCCT_Comp_1.c **** * disclaimers, and limitations in the end user license agreement accompanying
  16:Generated_Source\PSoC5/SCCT_Comp_1.c **** * the software package with which this file was provided.
  17:Generated_Source\PSoC5/SCCT_Comp_1.c **** *******************************************************************************/
  18:Generated_Source\PSoC5/SCCT_Comp_1.c **** 
  19:Generated_Source\PSoC5/SCCT_Comp_1.c **** #include "SCCT_Comp_1.h"
  20:Generated_Source\PSoC5/SCCT_Comp_1.c **** #include "CyLib.h"
  21:Generated_Source\PSoC5/SCCT_Comp_1.c **** 
  22:Generated_Source\PSoC5/SCCT_Comp_1.c **** #if (1u == CYDEV_VARIABLE_VDDA)
  23:Generated_Source\PSoC5/SCCT_Comp_1.c ****     #include "CyScBoostClk.h"
  24:Generated_Source\PSoC5/SCCT_Comp_1.c **** #endif /* 1u == CYDEV_VARIABLE_VDDA */
  25:Generated_Source\PSoC5/SCCT_Comp_1.c **** 
ARM GAS  C:\Users\ben\AppData\Local\Temp\ccWRtSUk.s 			page 2


  26:Generated_Source\PSoC5/SCCT_Comp_1.c **** uint8 SCCT_Comp_1_initVar = 0u;
  27:Generated_Source\PSoC5/SCCT_Comp_1.c **** 
  28:Generated_Source\PSoC5/SCCT_Comp_1.c **** 
  29:Generated_Source\PSoC5/SCCT_Comp_1.c **** /*******************************************************************************
  30:Generated_Source\PSoC5/SCCT_Comp_1.c **** * Function Name: SCCT_Comp_1_Init
  31:Generated_Source\PSoC5/SCCT_Comp_1.c **** ********************************************************************************
  32:Generated_Source\PSoC5/SCCT_Comp_1.c **** *
  33:Generated_Source\PSoC5/SCCT_Comp_1.c **** * Summary:
  34:Generated_Source\PSoC5/SCCT_Comp_1.c **** *  Initializes or restores the SCCT_Comp_1 according to the customizer
  35:Generated_Source\PSoC5/SCCT_Comp_1.c **** *  settings. It is not necessary to call SCCT_Comp_1_Init() because the
  36:Generated_Source\PSoC5/SCCT_Comp_1.c **** *  SCCT_Comp_1_Start() API calls this function and is the preferred method
  37:Generated_Source\PSoC5/SCCT_Comp_1.c **** *  to begin SCCT_Comp_1 operation.
  38:Generated_Source\PSoC5/SCCT_Comp_1.c **** *
  39:Generated_Source\PSoC5/SCCT_Comp_1.c **** * Parameters:
  40:Generated_Source\PSoC5/SCCT_Comp_1.c **** *  None.
  41:Generated_Source\PSoC5/SCCT_Comp_1.c **** *
  42:Generated_Source\PSoC5/SCCT_Comp_1.c **** * Return:
  43:Generated_Source\PSoC5/SCCT_Comp_1.c **** *  None.
  44:Generated_Source\PSoC5/SCCT_Comp_1.c **** *
  45:Generated_Source\PSoC5/SCCT_Comp_1.c **** *******************************************************************************/
  46:Generated_Source\PSoC5/SCCT_Comp_1.c **** void SCCT_Comp_1_Init(void) 
  47:Generated_Source\PSoC5/SCCT_Comp_1.c **** {
  33              		.loc 1 47 0
  34              		.cfi_startproc
  35              		@ args = 0, pretend = 0, frame = 0
  36              		@ frame_needed = 1, uses_anonymous_args = 0
  37              		@ link register save eliminated.
  38 0000 80B4     		push	{r7}
  39              		.cfi_def_cfa_offset 4
  40              		.cfi_offset 7, -4
  41 0002 00AF     		add	r7, sp, #0
  42              		.cfi_def_cfa_register 7
  48:Generated_Source\PSoC5/SCCT_Comp_1.c ****     /* Set Naked Op-Amp - Comparator mode */
  49:Generated_Source\PSoC5/SCCT_Comp_1.c ****     SCCT_Comp_1_CR0_REG = SCCT_Comp_1_MODE_COMPARATOR;
  43              		.loc 1 49 0
  44 0004 064B     		ldr	r3, .L2
  45 0006 2022     		movs	r2, #32
  46 0008 1A70     		strb	r2, [r3]
  50:Generated_Source\PSoC5/SCCT_Comp_1.c **** 
  51:Generated_Source\PSoC5/SCCT_Comp_1.c ****     /* Reset SCCT_Comp_1 Control Register 1 to initial value */
  52:Generated_Source\PSoC5/SCCT_Comp_1.c ****     SCCT_Comp_1_CR1_REG = 0u;
  47              		.loc 1 52 0
  48 000a 064B     		ldr	r3, .L2+4
  49 000c 0022     		movs	r2, #0
  50 000e 1A70     		strb	r2, [r3]
  53:Generated_Source\PSoC5/SCCT_Comp_1.c **** 
  54:Generated_Source\PSoC5/SCCT_Comp_1.c ****     /* Set bias current to normal operation */
  55:Generated_Source\PSoC5/SCCT_Comp_1.c ****     SCCT_Comp_1_CR2_REG = SCCT_Comp_1_BIAS;
  51              		.loc 1 55 0
  52 0010 054B     		ldr	r3, .L2+8
  53 0012 0122     		movs	r2, #1
  54 0014 1A70     		strb	r2, [r3]
  56:Generated_Source\PSoC5/SCCT_Comp_1.c **** }
  55              		.loc 1 56 0
  56 0016 BD46     		mov	sp, r7
  57              		.cfi_def_cfa_register 13
  58              		@ sp needed
ARM GAS  C:\Users\ben\AppData\Local\Temp\ccWRtSUk.s 			page 3


  59 0018 5DF8047B 		ldr	r7, [sp], #4
  60              		.cfi_restore 7
  61              		.cfi_def_cfa_offset 0
  62 001c 7047     		bx	lr
  63              	.L3:
  64 001e 00BF     		.align	2
  65              	.L2:
  66 0020 04580040 		.word	1073764356
  67 0024 05580040 		.word	1073764357
  68 0028 06580040 		.word	1073764358
  69              		.cfi_endproc
  70              	.LFE0:
  71              		.size	SCCT_Comp_1_Init, .-SCCT_Comp_1_Init
  72              		.section	.text.SCCT_Comp_1_Enable,"ax",%progbits
  73              		.align	2
  74              		.global	SCCT_Comp_1_Enable
  75              		.thumb
  76              		.thumb_func
  77              		.type	SCCT_Comp_1_Enable, %function
  78              	SCCT_Comp_1_Enable:
  79              	.LFB1:
  57:Generated_Source\PSoC5/SCCT_Comp_1.c **** 
  58:Generated_Source\PSoC5/SCCT_Comp_1.c **** 
  59:Generated_Source\PSoC5/SCCT_Comp_1.c **** /*******************************************************************************
  60:Generated_Source\PSoC5/SCCT_Comp_1.c **** * Function Name: SCCT_Comp_1_Enable
  61:Generated_Source\PSoC5/SCCT_Comp_1.c **** ********************************************************************************
  62:Generated_Source\PSoC5/SCCT_Comp_1.c **** *
  63:Generated_Source\PSoC5/SCCT_Comp_1.c **** * Summary:
  64:Generated_Source\PSoC5/SCCT_Comp_1.c **** *  Activates the hardware and begins SCCT_Comp_1 operation. It is not
  65:Generated_Source\PSoC5/SCCT_Comp_1.c **** *  necessary to call SCCT_Comp_1_Enable() because the
  66:Generated_Source\PSoC5/SCCT_Comp_1.c **** *  SCCT_Comp_1_Start() API calls this function, which is the preferred
  67:Generated_Source\PSoC5/SCCT_Comp_1.c **** *  method to begin SCCT_Comp_1 operation.
  68:Generated_Source\PSoC5/SCCT_Comp_1.c **** *
  69:Generated_Source\PSoC5/SCCT_Comp_1.c **** * Parameters:
  70:Generated_Source\PSoC5/SCCT_Comp_1.c **** *  None.
  71:Generated_Source\PSoC5/SCCT_Comp_1.c **** *
  72:Generated_Source\PSoC5/SCCT_Comp_1.c **** * Return:
  73:Generated_Source\PSoC5/SCCT_Comp_1.c **** *  None.
  74:Generated_Source\PSoC5/SCCT_Comp_1.c **** *
  75:Generated_Source\PSoC5/SCCT_Comp_1.c **** *******************************************************************************/
  76:Generated_Source\PSoC5/SCCT_Comp_1.c **** void SCCT_Comp_1_Enable(void) 
  77:Generated_Source\PSoC5/SCCT_Comp_1.c **** {
  80              		.loc 1 77 0
  81              		.cfi_startproc
  82              		@ args = 0, pretend = 0, frame = 8
  83              		@ frame_needed = 1, uses_anonymous_args = 0
  84 0000 80B5     		push	{r7, lr}
  85              		.cfi_def_cfa_offset 8
  86              		.cfi_offset 7, -8
  87              		.cfi_offset 14, -4
  88 0002 82B0     		sub	sp, sp, #8
  89              		.cfi_def_cfa_offset 16
  90 0004 00AF     		add	r7, sp, #0
  91              		.cfi_def_cfa_register 7
  78:Generated_Source\PSoC5/SCCT_Comp_1.c ****     uint8 enableInterrupts;
  79:Generated_Source\PSoC5/SCCT_Comp_1.c **** 
  80:Generated_Source\PSoC5/SCCT_Comp_1.c ****     enableInterrupts = CyEnterCriticalSection();
ARM GAS  C:\Users\ben\AppData\Local\Temp\ccWRtSUk.s 			page 4


  92              		.loc 1 80 0
  93 0006 FFF7FEFF 		bl	CyEnterCriticalSection
  94 000a 0346     		mov	r3, r0
  95 000c FB71     		strb	r3, [r7, #7]
  81:Generated_Source\PSoC5/SCCT_Comp_1.c **** 
  82:Generated_Source\PSoC5/SCCT_Comp_1.c ****     /* Enable power to the SCCT_Comp_1 in Active mode */
  83:Generated_Source\PSoC5/SCCT_Comp_1.c ****     SCCT_Comp_1_PM_ACT_CFG_REG |= SCCT_Comp_1_ACT_PWR_EN;
  96              		.loc 1 83 0
  97 000e 114A     		ldr	r2, .L5
  98 0010 104B     		ldr	r3, .L5
  99 0012 1B78     		ldrb	r3, [r3]
 100 0014 DBB2     		uxtb	r3, r3
 101 0016 43F00203 		orr	r3, r3, #2
 102 001a DBB2     		uxtb	r3, r3
 103 001c 1370     		strb	r3, [r2]
  84:Generated_Source\PSoC5/SCCT_Comp_1.c **** 
  85:Generated_Source\PSoC5/SCCT_Comp_1.c ****     /* Enable the power to the SCCT_Comp_1 in Alternative active mode */
  86:Generated_Source\PSoC5/SCCT_Comp_1.c ****     SCCT_Comp_1_PM_STBY_CFG_REG |= SCCT_Comp_1_STBY_PWR_EN;
 104              		.loc 1 86 0
 105 001e 0E4A     		ldr	r2, .L5+4
 106 0020 0D4B     		ldr	r3, .L5+4
 107 0022 1B78     		ldrb	r3, [r3]
 108 0024 DBB2     		uxtb	r3, r3
 109 0026 43F00203 		orr	r3, r3, #2
 110 002a DBB2     		uxtb	r3, r3
 111 002c 1370     		strb	r3, [r2]
  87:Generated_Source\PSoC5/SCCT_Comp_1.c **** 
  88:Generated_Source\PSoC5/SCCT_Comp_1.c ****     /* SCCT_Comp_1 internal Pump Clock Selection */
  89:Generated_Source\PSoC5/SCCT_Comp_1.c ****     SCCT_Comp_1_PUMP_CR1_REG |= SCCT_Comp_1_PUMP_CR1_SC_CLKSEL;
 112              		.loc 1 89 0
 113 002e 0B4A     		ldr	r2, .L5+8
 114 0030 0A4B     		ldr	r3, .L5+8
 115 0032 1B78     		ldrb	r3, [r3]
 116 0034 DBB2     		uxtb	r3, r3
 117 0036 63F07F03 		orn	r3, r3, #127
 118 003a DBB2     		uxtb	r3, r3
 119 003c 1370     		strb	r3, [r2]
  90:Generated_Source\PSoC5/SCCT_Comp_1.c **** 
  91:Generated_Source\PSoC5/SCCT_Comp_1.c ****     #if (1u == CYDEV_VARIABLE_VDDA)
  92:Generated_Source\PSoC5/SCCT_Comp_1.c **** 
  93:Generated_Source\PSoC5/SCCT_Comp_1.c ****         if (1u == CyScPumpEnabled)
  94:Generated_Source\PSoC5/SCCT_Comp_1.c ****         {
  95:Generated_Source\PSoC5/SCCT_Comp_1.c ****             SCCT_Comp_1_BSTCLK_REG &= (uint8)(~SCCT_Comp_1_BST_CLK_INDEX_MASK);
  96:Generated_Source\PSoC5/SCCT_Comp_1.c ****             SCCT_Comp_1_BSTCLK_REG |= (SCCT_Comp_1_BST_CLK_EN | CyScBoostClk__INDEX);
  97:Generated_Source\PSoC5/SCCT_Comp_1.c ****             SCCT_Comp_1_SC_MISC_REG |= SCCT_Comp_1_PUMP_FORCE;
  98:Generated_Source\PSoC5/SCCT_Comp_1.c ****             CyScBoostClk_Start();
  99:Generated_Source\PSoC5/SCCT_Comp_1.c ****         }
 100:Generated_Source\PSoC5/SCCT_Comp_1.c ****         else
 101:Generated_Source\PSoC5/SCCT_Comp_1.c ****         {
 102:Generated_Source\PSoC5/SCCT_Comp_1.c ****             SCCT_Comp_1_BSTCLK_REG &= (uint8)(~SCCT_Comp_1_BST_CLK_EN);
 103:Generated_Source\PSoC5/SCCT_Comp_1.c ****             SCCT_Comp_1_SC_MISC_REG &= (uint8)(~SCCT_Comp_1_PUMP_FORCE);
 104:Generated_Source\PSoC5/SCCT_Comp_1.c ****         }
 105:Generated_Source\PSoC5/SCCT_Comp_1.c **** 
 106:Generated_Source\PSoC5/SCCT_Comp_1.c ****     #endif /* 1u == CYDEV_VARIABLE_VDDA */
 107:Generated_Source\PSoC5/SCCT_Comp_1.c **** 
 108:Generated_Source\PSoC5/SCCT_Comp_1.c ****     CyExitCriticalSection(enableInterrupts);
 120              		.loc 1 108 0
ARM GAS  C:\Users\ben\AppData\Local\Temp\ccWRtSUk.s 			page 5


 121 003e FB79     		ldrb	r3, [r7, #7]	@ zero_extendqisi2
 122 0040 1846     		mov	r0, r3
 123 0042 FFF7FEFF 		bl	CyExitCriticalSection
 109:Generated_Source\PSoC5/SCCT_Comp_1.c **** 
 110:Generated_Source\PSoC5/SCCT_Comp_1.c ****     /* Enable clock (aclk) to the SCCT_Comp_1 and disable dynamic control */
 111:Generated_Source\PSoC5/SCCT_Comp_1.c ****     SCCT_Comp_1_SC_CLK_REG = SCCT_Comp_1_CLK_EN;
 124              		.loc 1 111 0
 125 0046 064B     		ldr	r3, .L5+12
 126 0048 0822     		movs	r2, #8
 127 004a 1A70     		strb	r2, [r3]
 112:Generated_Source\PSoC5/SCCT_Comp_1.c **** }
 128              		.loc 1 112 0
 129 004c 0837     		adds	r7, r7, #8
 130              		.cfi_def_cfa_offset 8
 131 004e BD46     		mov	sp, r7
 132              		.cfi_def_cfa_register 13
 133              		@ sp needed
 134 0050 80BD     		pop	{r7, pc}
 135              	.L6:
 136 0052 00BF     		.align	2
 137              	.L5:
 138 0054 A9430040 		.word	1073759145
 139 0058 B9430040 		.word	1073759161
 140 005c 77580040 		.word	1073764471
 141 0060 1B5A0040 		.word	1073764891
 142              		.cfi_endproc
 143              	.LFE1:
 144              		.size	SCCT_Comp_1_Enable, .-SCCT_Comp_1_Enable
 145              		.section	.text.SCCT_Comp_1_Start,"ax",%progbits
 146              		.align	2
 147              		.global	SCCT_Comp_1_Start
 148              		.thumb
 149              		.thumb_func
 150              		.type	SCCT_Comp_1_Start, %function
 151              	SCCT_Comp_1_Start:
 152              	.LFB2:
 113:Generated_Source\PSoC5/SCCT_Comp_1.c **** 
 114:Generated_Source\PSoC5/SCCT_Comp_1.c **** 
 115:Generated_Source\PSoC5/SCCT_Comp_1.c **** /*******************************************************************************
 116:Generated_Source\PSoC5/SCCT_Comp_1.c **** * Function Name: SCCT_Comp_1_Start
 117:Generated_Source\PSoC5/SCCT_Comp_1.c **** ********************************************************************************
 118:Generated_Source\PSoC5/SCCT_Comp_1.c **** *
 119:Generated_Source\PSoC5/SCCT_Comp_1.c **** * Summary:
 120:Generated_Source\PSoC5/SCCT_Comp_1.c **** *  Performs all of the required initialization for the SCCT_Comp_1 and
 121:Generated_Source\PSoC5/SCCT_Comp_1.c **** *  enables power to the SCCT_Comp_1. The first time the routine is
 122:Generated_Source\PSoC5/SCCT_Comp_1.c **** *  executed, the SCCT_Comp_1 is initialized to the configuration from the
 123:Generated_Source\PSoC5/SCCT_Comp_1.c **** *  customizer. When called to restart the SCCT_Comp_1 following a
 124:Generated_Source\PSoC5/SCCT_Comp_1.c **** *  SCCT_Comp_1_Stop() call, the current SCCT_Comp_1 parameter
 125:Generated_Source\PSoC5/SCCT_Comp_1.c **** *  settings are retained.
 126:Generated_Source\PSoC5/SCCT_Comp_1.c **** *
 127:Generated_Source\PSoC5/SCCT_Comp_1.c **** * Parameters:
 128:Generated_Source\PSoC5/SCCT_Comp_1.c **** *  None.
 129:Generated_Source\PSoC5/SCCT_Comp_1.c **** *
 130:Generated_Source\PSoC5/SCCT_Comp_1.c **** * Return:
 131:Generated_Source\PSoC5/SCCT_Comp_1.c **** *  None.
 132:Generated_Source\PSoC5/SCCT_Comp_1.c **** *
 133:Generated_Source\PSoC5/SCCT_Comp_1.c **** * Global variables:
ARM GAS  C:\Users\ben\AppData\Local\Temp\ccWRtSUk.s 			page 6


 134:Generated_Source\PSoC5/SCCT_Comp_1.c **** *  SCCT_Comp_1_initVar - used to check initial configuration, modified on
 135:Generated_Source\PSoC5/SCCT_Comp_1.c **** *  first function call.
 136:Generated_Source\PSoC5/SCCT_Comp_1.c **** *
 137:Generated_Source\PSoC5/SCCT_Comp_1.c **** * Reentrant:
 138:Generated_Source\PSoC5/SCCT_Comp_1.c **** *  No.
 139:Generated_Source\PSoC5/SCCT_Comp_1.c **** *
 140:Generated_Source\PSoC5/SCCT_Comp_1.c **** * Side Effect:
 141:Generated_Source\PSoC5/SCCT_Comp_1.c **** *  If the initVar variable is already set, this function only calls the
 142:Generated_Source\PSoC5/SCCT_Comp_1.c **** *  SCCT_Comp_1_Enable() function.
 143:Generated_Source\PSoC5/SCCT_Comp_1.c **** *
 144:Generated_Source\PSoC5/SCCT_Comp_1.c **** *******************************************************************************/
 145:Generated_Source\PSoC5/SCCT_Comp_1.c **** void SCCT_Comp_1_Start(void) 
 146:Generated_Source\PSoC5/SCCT_Comp_1.c **** {
 153              		.loc 1 146 0
 154              		.cfi_startproc
 155              		@ args = 0, pretend = 0, frame = 0
 156              		@ frame_needed = 1, uses_anonymous_args = 0
 157 0000 80B5     		push	{r7, lr}
 158              		.cfi_def_cfa_offset 8
 159              		.cfi_offset 7, -8
 160              		.cfi_offset 14, -4
 161 0002 00AF     		add	r7, sp, #0
 162              		.cfi_def_cfa_register 7
 147:Generated_Source\PSoC5/SCCT_Comp_1.c ****     if (0u == SCCT_Comp_1_initVar)
 163              		.loc 1 147 0
 164 0004 054B     		ldr	r3, .L9
 165 0006 1B78     		ldrb	r3, [r3]	@ zero_extendqisi2
 166 0008 002B     		cmp	r3, #0
 167 000a 04D1     		bne	.L8
 148:Generated_Source\PSoC5/SCCT_Comp_1.c ****     {
 149:Generated_Source\PSoC5/SCCT_Comp_1.c ****         SCCT_Comp_1_Init();
 168              		.loc 1 149 0
 169 000c FFF7FEFF 		bl	SCCT_Comp_1_Init
 150:Generated_Source\PSoC5/SCCT_Comp_1.c ****         SCCT_Comp_1_initVar = 1u;
 170              		.loc 1 150 0
 171 0010 024B     		ldr	r3, .L9
 172 0012 0122     		movs	r2, #1
 173 0014 1A70     		strb	r2, [r3]
 174              	.L8:
 151:Generated_Source\PSoC5/SCCT_Comp_1.c ****     }
 152:Generated_Source\PSoC5/SCCT_Comp_1.c **** 
 153:Generated_Source\PSoC5/SCCT_Comp_1.c ****     SCCT_Comp_1_Enable();
 175              		.loc 1 153 0
 176 0016 FFF7FEFF 		bl	SCCT_Comp_1_Enable
 154:Generated_Source\PSoC5/SCCT_Comp_1.c **** }
 177              		.loc 1 154 0
 178 001a 80BD     		pop	{r7, pc}
 179              	.L10:
 180              		.align	2
 181              	.L9:
 182 001c 00000000 		.word	SCCT_Comp_1_initVar
 183              		.cfi_endproc
 184              	.LFE2:
 185              		.size	SCCT_Comp_1_Start, .-SCCT_Comp_1_Start
 186              		.section	.text.SCCT_Comp_1_Stop,"ax",%progbits
 187              		.align	2
 188              		.global	SCCT_Comp_1_Stop
ARM GAS  C:\Users\ben\AppData\Local\Temp\ccWRtSUk.s 			page 7


 189              		.thumb
 190              		.thumb_func
 191              		.type	SCCT_Comp_1_Stop, %function
 192              	SCCT_Comp_1_Stop:
 193              	.LFB3:
 155:Generated_Source\PSoC5/SCCT_Comp_1.c **** 
 156:Generated_Source\PSoC5/SCCT_Comp_1.c **** 
 157:Generated_Source\PSoC5/SCCT_Comp_1.c **** /*******************************************************************************
 158:Generated_Source\PSoC5/SCCT_Comp_1.c **** * Function Name: SCCT_Comp_1_Stop
 159:Generated_Source\PSoC5/SCCT_Comp_1.c **** ********************************************************************************
 160:Generated_Source\PSoC5/SCCT_Comp_1.c **** *
 161:Generated_Source\PSoC5/SCCT_Comp_1.c **** * Summary:
 162:Generated_Source\PSoC5/SCCT_Comp_1.c **** *  Turns off the SCCT_Comp_1. It will disable the related SC/CT block.
 163:Generated_Source\PSoC5/SCCT_Comp_1.c **** *
 164:Generated_Source\PSoC5/SCCT_Comp_1.c **** * Parameters:
 165:Generated_Source\PSoC5/SCCT_Comp_1.c **** *  None.
 166:Generated_Source\PSoC5/SCCT_Comp_1.c **** *
 167:Generated_Source\PSoC5/SCCT_Comp_1.c **** * Return:
 168:Generated_Source\PSoC5/SCCT_Comp_1.c **** *  None.
 169:Generated_Source\PSoC5/SCCT_Comp_1.c **** *
 170:Generated_Source\PSoC5/SCCT_Comp_1.c **** *******************************************************************************/
 171:Generated_Source\PSoC5/SCCT_Comp_1.c **** void SCCT_Comp_1_Stop(void) 
 172:Generated_Source\PSoC5/SCCT_Comp_1.c **** {
 194              		.loc 1 172 0
 195              		.cfi_startproc
 196              		@ args = 0, pretend = 0, frame = 8
 197              		@ frame_needed = 1, uses_anonymous_args = 0
 198 0000 80B5     		push	{r7, lr}
 199              		.cfi_def_cfa_offset 8
 200              		.cfi_offset 7, -8
 201              		.cfi_offset 14, -4
 202 0002 82B0     		sub	sp, sp, #8
 203              		.cfi_def_cfa_offset 16
 204 0004 00AF     		add	r7, sp, #0
 205              		.cfi_def_cfa_register 7
 173:Generated_Source\PSoC5/SCCT_Comp_1.c ****     uint8 enableInterrupts;    
 174:Generated_Source\PSoC5/SCCT_Comp_1.c **** 
 175:Generated_Source\PSoC5/SCCT_Comp_1.c ****     enableInterrupts = CyEnterCriticalSection();
 206              		.loc 1 175 0
 207 0006 FFF7FEFF 		bl	CyEnterCriticalSection
 208 000a 0346     		mov	r3, r0
 209 000c FB71     		strb	r3, [r7, #7]
 176:Generated_Source\PSoC5/SCCT_Comp_1.c **** 
 177:Generated_Source\PSoC5/SCCT_Comp_1.c ****     /* Disble power to the SCCT_Comp_1 in Active mode template */
 178:Generated_Source\PSoC5/SCCT_Comp_1.c ****     SCCT_Comp_1_PM_ACT_CFG_REG &= (uint8)(~SCCT_Comp_1_ACT_PWR_EN);
 210              		.loc 1 178 0
 211 000e 0F4A     		ldr	r2, .L12
 212 0010 0E4B     		ldr	r3, .L12
 213 0012 1B78     		ldrb	r3, [r3]
 214 0014 DBB2     		uxtb	r3, r3
 215 0016 23F00203 		bic	r3, r3, #2
 216 001a DBB2     		uxtb	r3, r3
 217 001c 1370     		strb	r3, [r2]
 179:Generated_Source\PSoC5/SCCT_Comp_1.c **** 
 180:Generated_Source\PSoC5/SCCT_Comp_1.c ****     /* Disble power to the SCCT_Comp_1 in Alternative Active mode template */
 181:Generated_Source\PSoC5/SCCT_Comp_1.c ****     SCCT_Comp_1_PM_STBY_CFG_REG &= (uint8)(~SCCT_Comp_1_STBY_PWR_EN);
 218              		.loc 1 181 0
ARM GAS  C:\Users\ben\AppData\Local\Temp\ccWRtSUk.s 			page 8


 219 001e 0C4A     		ldr	r2, .L12+4
 220 0020 0B4B     		ldr	r3, .L12+4
 221 0022 1B78     		ldrb	r3, [r3]
 222 0024 DBB2     		uxtb	r3, r3
 223 0026 23F00203 		bic	r3, r3, #2
 224 002a DBB2     		uxtb	r3, r3
 225 002c 1370     		strb	r3, [r2]
 182:Generated_Source\PSoC5/SCCT_Comp_1.c **** 
 183:Generated_Source\PSoC5/SCCT_Comp_1.c ****     #if (1u == CYDEV_VARIABLE_VDDA)
 184:Generated_Source\PSoC5/SCCT_Comp_1.c **** 
 185:Generated_Source\PSoC5/SCCT_Comp_1.c ****         SCCT_Comp_1_BSTCLK_REG &= (uint8)(~SCCT_Comp_1_BST_CLK_EN);
 186:Generated_Source\PSoC5/SCCT_Comp_1.c **** 
 187:Generated_Source\PSoC5/SCCT_Comp_1.c ****         /* Disable pumps only if there aren't any SC/CT block in use */
 188:Generated_Source\PSoC5/SCCT_Comp_1.c ****         if (0u == (SCCT_Comp_1_PM_ACT_CFG_REG & SCCT_Comp_1_PM_ACT_CFG_MASK))
 189:Generated_Source\PSoC5/SCCT_Comp_1.c ****         {
 190:Generated_Source\PSoC5/SCCT_Comp_1.c ****             SCCT_Comp_1_SC_MISC_REG &= (uint8)(~SCCT_Comp_1_PUMP_FORCE);
 191:Generated_Source\PSoC5/SCCT_Comp_1.c ****             SCCT_Comp_1_PUMP_CR1_REG &= (uint8)(~SCCT_Comp_1_PUMP_CR1_SC_CLKSEL);
 192:Generated_Source\PSoC5/SCCT_Comp_1.c ****             CyScBoostClk_Stop();
 193:Generated_Source\PSoC5/SCCT_Comp_1.c ****         }
 194:Generated_Source\PSoC5/SCCT_Comp_1.c **** 
 195:Generated_Source\PSoC5/SCCT_Comp_1.c ****     #endif /* 1u == CYDEV_VARIABLE_VDDA */
 196:Generated_Source\PSoC5/SCCT_Comp_1.c **** 
 197:Generated_Source\PSoC5/SCCT_Comp_1.c ****     CyExitCriticalSection(enableInterrupts);
 226              		.loc 1 197 0
 227 002e FB79     		ldrb	r3, [r7, #7]	@ zero_extendqisi2
 228 0030 1846     		mov	r0, r3
 229 0032 FFF7FEFF 		bl	CyExitCriticalSection
 198:Generated_Source\PSoC5/SCCT_Comp_1.c ****     
 199:Generated_Source\PSoC5/SCCT_Comp_1.c ****     /* Disable clock (aclk) to SCCT_Comp_1 */
 200:Generated_Source\PSoC5/SCCT_Comp_1.c ****     SCCT_Comp_1_SC_CLK_REG &= (uint8)(~SCCT_Comp_1_CLK_EN);
 230              		.loc 1 200 0
 231 0036 074A     		ldr	r2, .L12+8
 232 0038 064B     		ldr	r3, .L12+8
 233 003a 1B78     		ldrb	r3, [r3]
 234 003c DBB2     		uxtb	r3, r3
 235 003e 23F00803 		bic	r3, r3, #8
 236 0042 DBB2     		uxtb	r3, r3
 237 0044 1370     		strb	r3, [r2]
 201:Generated_Source\PSoC5/SCCT_Comp_1.c **** }
 238              		.loc 1 201 0
 239 0046 0837     		adds	r7, r7, #8
 240              		.cfi_def_cfa_offset 8
 241 0048 BD46     		mov	sp, r7
 242              		.cfi_def_cfa_register 13
 243              		@ sp needed
 244 004a 80BD     		pop	{r7, pc}
 245              	.L13:
 246              		.align	2
 247              	.L12:
 248 004c A9430040 		.word	1073759145
 249 0050 B9430040 		.word	1073759161
 250 0054 1B5A0040 		.word	1073764891
 251              		.cfi_endproc
 252              	.LFE3:
 253              		.size	SCCT_Comp_1_Stop, .-SCCT_Comp_1_Stop
 254              		.text
 255              	.Letext0:
ARM GAS  C:\Users\ben\AppData\Local\Temp\ccWRtSUk.s 			page 9


 256              		.file 2 "Generated_Source\\PSoC5\\cytypes.h"