ARM GAS  C:\Users\ben\AppData\Local\Temp\cc0FCuts.s 			page 1


   1              		.syntax unified
   2              		.cpu cortex-m3
   3              		.fpu softvfp
   4              		.eabi_attribute 20, 1
   5              		.eabi_attribute 21, 1
   6              		.eabi_attribute 23, 3
   7              		.eabi_attribute 24, 1
   8              		.eabi_attribute 25, 1
   9              		.eabi_attribute 26, 1
  10              		.eabi_attribute 30, 6
  11              		.eabi_attribute 34, 1
  12              		.eabi_attribute 18, 4
  13              		.thumb
  14              		.file	"SCCT_Comp_1_PM.c"
  15              		.text
  16              	.Ltext0:
  17              		.cfi_sections	.debug_frame
  18              		.bss
  19              		.align	2
  20              	SCCT_Comp_1_backup:
  21 0000 00       		.space	1
  22 0001 000000   		.section	.text.SCCT_Comp_1_Sleep,"ax",%progbits
  23              		.align	2
  24              		.global	SCCT_Comp_1_Sleep
  25              		.thumb
  26              		.thumb_func
  27              		.type	SCCT_Comp_1_Sleep, %function
  28              	SCCT_Comp_1_Sleep:
  29              	.LFB0:
  30              		.file 1 "Generated_Source\\PSoC5\\SCCT_Comp_1_PM.c"
   1:Generated_Source\PSoC5/SCCT_Comp_1_PM.c **** /*******************************************************************************
   2:Generated_Source\PSoC5/SCCT_Comp_1_PM.c **** * File Name: SCCT_Comp_1_PM.c
   3:Generated_Source\PSoC5/SCCT_Comp_1_PM.c **** * Version 1.0
   4:Generated_Source\PSoC5/SCCT_Comp_1_PM.c **** *
   5:Generated_Source\PSoC5/SCCT_Comp_1_PM.c **** * Description:
   6:Generated_Source\PSoC5/SCCT_Comp_1_PM.c **** *  This file provides the power manager source code to the API for SCCT
   7:Generated_Source\PSoC5/SCCT_Comp_1_PM.c **** *  Comparator Component.
   8:Generated_Source\PSoC5/SCCT_Comp_1_PM.c **** *
   9:Generated_Source\PSoC5/SCCT_Comp_1_PM.c **** * Note:
  10:Generated_Source\PSoC5/SCCT_Comp_1_PM.c **** *  None.
  11:Generated_Source\PSoC5/SCCT_Comp_1_PM.c **** *
  12:Generated_Source\PSoC5/SCCT_Comp_1_PM.c **** ********************************************************************************
  13:Generated_Source\PSoC5/SCCT_Comp_1_PM.c **** * Copyright 2013, Cypress Semiconductor Corporation. All rights reserved.
  14:Generated_Source\PSoC5/SCCT_Comp_1_PM.c **** * You may use this file only in accordance with the license, terms, conditions,
  15:Generated_Source\PSoC5/SCCT_Comp_1_PM.c **** * disclaimers, and limitations in the end user license agreement accompanying
  16:Generated_Source\PSoC5/SCCT_Comp_1_PM.c **** * the software package with which this file was provided.
  17:Generated_Source\PSoC5/SCCT_Comp_1_PM.c **** *******************************************************************************/
  18:Generated_Source\PSoC5/SCCT_Comp_1_PM.c **** 
  19:Generated_Source\PSoC5/SCCT_Comp_1_PM.c **** #include "SCCT_Comp_1.h"
  20:Generated_Source\PSoC5/SCCT_Comp_1_PM.c **** 
  21:Generated_Source\PSoC5/SCCT_Comp_1_PM.c **** static SCCT_Comp_1_BACKUP_STRUCT  SCCT_Comp_1_backup;
  22:Generated_Source\PSoC5/SCCT_Comp_1_PM.c **** 
  23:Generated_Source\PSoC5/SCCT_Comp_1_PM.c **** 
  24:Generated_Source\PSoC5/SCCT_Comp_1_PM.c **** /*******************************************************************************
  25:Generated_Source\PSoC5/SCCT_Comp_1_PM.c **** * Function Name: SCCT_Comp_1_Sleep
  26:Generated_Source\PSoC5/SCCT_Comp_1_PM.c **** ********************************************************************************
  27:Generated_Source\PSoC5/SCCT_Comp_1_PM.c **** *
ARM GAS  C:\Users\ben\AppData\Local\Temp\cc0FCuts.s 			page 2


  28:Generated_Source\PSoC5/SCCT_Comp_1_PM.c **** * Summary:
  29:Generated_Source\PSoC5/SCCT_Comp_1_PM.c **** *  This is the preferred API to prepare the SCCT_Comp_1 for low power mode
  30:Generated_Source\PSoC5/SCCT_Comp_1_PM.c **** *  operation (disable for this case). If the SCCT_Comp_1 is enabled, it
  31:Generated_Source\PSoC5/SCCT_Comp_1_PM.c **** *  configures the SCCT_Comp_1 for low power operation.
  32:Generated_Source\PSoC5/SCCT_Comp_1_PM.c **** *
  33:Generated_Source\PSoC5/SCCT_Comp_1_PM.c **** * Parameters:
  34:Generated_Source\PSoC5/SCCT_Comp_1_PM.c **** *  None
  35:Generated_Source\PSoC5/SCCT_Comp_1_PM.c **** *
  36:Generated_Source\PSoC5/SCCT_Comp_1_PM.c **** * Return:
  37:Generated_Source\PSoC5/SCCT_Comp_1_PM.c **** *  None
  38:Generated_Source\PSoC5/SCCT_Comp_1_PM.c **** *
  39:Generated_Source\PSoC5/SCCT_Comp_1_PM.c **** * Global variables:
  40:Generated_Source\PSoC5/SCCT_Comp_1_PM.c **** *  SCCT_Comp_1_backup: The structure field 'enableState' is modified
  41:Generated_Source\PSoC5/SCCT_Comp_1_PM.c **** *  depending on the enable state of the SCCT_Comp_1 before entering to
  42:Generated_Source\PSoC5/SCCT_Comp_1_PM.c **** *  sleep mode.
  43:Generated_Source\PSoC5/SCCT_Comp_1_PM.c **** *
  44:Generated_Source\PSoC5/SCCT_Comp_1_PM.c **** * Reentrant:
  45:Generated_Source\PSoC5/SCCT_Comp_1_PM.c **** *  No.
  46:Generated_Source\PSoC5/SCCT_Comp_1_PM.c **** *
  47:Generated_Source\PSoC5/SCCT_Comp_1_PM.c **** * Side Effect:
  48:Generated_Source\PSoC5/SCCT_Comp_1_PM.c **** *  In the inverting mode of SCCT_Comp_1, the output is implemented using
  49:Generated_Source\PSoC5/SCCT_Comp_1_PM.c **** *  UDB. Hence, the SCCT_Comp_1 output level is high when this sleep API is
  50:Generated_Source\PSoC5/SCCT_Comp_1_PM.c **** *  called and it does not go to sleep.
  51:Generated_Source\PSoC5/SCCT_Comp_1_PM.c **** *
  52:Generated_Source\PSoC5/SCCT_Comp_1_PM.c **** *******************************************************************************/
  53:Generated_Source\PSoC5/SCCT_Comp_1_PM.c **** void SCCT_Comp_1_Sleep(void) 
  54:Generated_Source\PSoC5/SCCT_Comp_1_PM.c **** {
  31              		.loc 1 54 0
  32              		.cfi_startproc
  33              		@ args = 0, pretend = 0, frame = 0
  34              		@ frame_needed = 1, uses_anonymous_args = 0
  35 0000 80B5     		push	{r7, lr}
  36              		.cfi_def_cfa_offset 8
  37              		.cfi_offset 7, -8
  38              		.cfi_offset 14, -4
  39 0002 00AF     		add	r7, sp, #0
  40              		.cfi_def_cfa_register 7
  55:Generated_Source\PSoC5/SCCT_Comp_1_PM.c ****     /* Save SCCT_Comp_1 enable state */
  56:Generated_Source\PSoC5/SCCT_Comp_1_PM.c ****     if (0u != (SCCT_Comp_1_PM_ACT_CFG_REG & SCCT_Comp_1_ACT_PWR_EN))
  41              		.loc 1 56 0
  42 0004 084B     		ldr	r3, .L4
  43 0006 1B78     		ldrb	r3, [r3]
  44 0008 DBB2     		uxtb	r3, r3
  45 000a 03F00203 		and	r3, r3, #2
  46 000e 002B     		cmp	r3, #0
  47 0010 05D0     		beq	.L2
  57:Generated_Source\PSoC5/SCCT_Comp_1_PM.c ****     {
  58:Generated_Source\PSoC5/SCCT_Comp_1_PM.c ****         /* SCCT_Comp_1 is enabled */
  59:Generated_Source\PSoC5/SCCT_Comp_1_PM.c ****         SCCT_Comp_1_backup.enableState = 1u;
  48              		.loc 1 59 0
  49 0012 064B     		ldr	r3, .L4+4
  50 0014 0122     		movs	r2, #1
  51 0016 1A70     		strb	r2, [r3]
  60:Generated_Source\PSoC5/SCCT_Comp_1_PM.c **** 
  61:Generated_Source\PSoC5/SCCT_Comp_1_PM.c ****         /* Stop the configuration */
  62:Generated_Source\PSoC5/SCCT_Comp_1_PM.c ****         SCCT_Comp_1_Stop();
  52              		.loc 1 62 0
ARM GAS  C:\Users\ben\AppData\Local\Temp\cc0FCuts.s 			page 3


  53 0018 FFF7FEFF 		bl	SCCT_Comp_1_Stop
  54 001c 02E0     		b	.L1
  55              	.L2:
  63:Generated_Source\PSoC5/SCCT_Comp_1_PM.c ****     }
  64:Generated_Source\PSoC5/SCCT_Comp_1_PM.c ****     else
  65:Generated_Source\PSoC5/SCCT_Comp_1_PM.c ****     {
  66:Generated_Source\PSoC5/SCCT_Comp_1_PM.c ****         /* SCCT_Comp_1 is disabled */
  67:Generated_Source\PSoC5/SCCT_Comp_1_PM.c ****         SCCT_Comp_1_backup.enableState = 0u;
  56              		.loc 1 67 0
  57 001e 034B     		ldr	r3, .L4+4
  58 0020 0022     		movs	r2, #0
  59 0022 1A70     		strb	r2, [r3]
  60              	.L1:
  68:Generated_Source\PSoC5/SCCT_Comp_1_PM.c ****     }
  69:Generated_Source\PSoC5/SCCT_Comp_1_PM.c **** }
  61              		.loc 1 69 0
  62 0024 80BD     		pop	{r7, pc}
  63              	.L5:
  64 0026 00BF     		.align	2
  65              	.L4:
  66 0028 A9430040 		.word	1073759145
  67 002c 00000000 		.word	SCCT_Comp_1_backup
  68              		.cfi_endproc
  69              	.LFE0:
  70              		.size	SCCT_Comp_1_Sleep, .-SCCT_Comp_1_Sleep
  71              		.section	.text.SCCT_Comp_1_Wakeup,"ax",%progbits
  72              		.align	2
  73              		.global	SCCT_Comp_1_Wakeup
  74              		.thumb
  75              		.thumb_func
  76              		.type	SCCT_Comp_1_Wakeup, %function
  77              	SCCT_Comp_1_Wakeup:
  78              	.LFB1:
  70:Generated_Source\PSoC5/SCCT_Comp_1_PM.c **** 
  71:Generated_Source\PSoC5/SCCT_Comp_1_PM.c **** 
  72:Generated_Source\PSoC5/SCCT_Comp_1_PM.c **** /*******************************************************************************
  73:Generated_Source\PSoC5/SCCT_Comp_1_PM.c **** * Function Name: SCCT_Comp_1_Wakeup
  74:Generated_Source\PSoC5/SCCT_Comp_1_PM.c **** ********************************************************************************
  75:Generated_Source\PSoC5/SCCT_Comp_1_PM.c **** *
  76:Generated_Source\PSoC5/SCCT_Comp_1_PM.c **** * Summary:
  77:Generated_Source\PSoC5/SCCT_Comp_1_PM.c **** *  This is the preferred API to restore the SCCT_Comp_1 to the state when
  78:Generated_Source\PSoC5/SCCT_Comp_1_PM.c **** *  SCCT_Comp_1_Sleep() was called.
  79:Generated_Source\PSoC5/SCCT_Comp_1_PM.c **** *
  80:Generated_Source\PSoC5/SCCT_Comp_1_PM.c **** * Parameters:
  81:Generated_Source\PSoC5/SCCT_Comp_1_PM.c **** *  None
  82:Generated_Source\PSoC5/SCCT_Comp_1_PM.c **** *
  83:Generated_Source\PSoC5/SCCT_Comp_1_PM.c **** * Return:
  84:Generated_Source\PSoC5/SCCT_Comp_1_PM.c **** *  void
  85:Generated_Source\PSoC5/SCCT_Comp_1_PM.c **** *
  86:Generated_Source\PSoC5/SCCT_Comp_1_PM.c **** * Global variables:
  87:Generated_Source\PSoC5/SCCT_Comp_1_PM.c **** *  SCCT_Comp_1_backup: The structure field 'enableState' is used to
  88:Generated_Source\PSoC5/SCCT_Comp_1_PM.c **** *  restore the enable state of SCCT_Comp_1 after wakeup from sleep mode.
  89:Generated_Source\PSoC5/SCCT_Comp_1_PM.c **** *
  90:Generated_Source\PSoC5/SCCT_Comp_1_PM.c **** * Side Effect:
  91:Generated_Source\PSoC5/SCCT_Comp_1_PM.c **** *  Calling the SCCT_Comp_1_Wakeup() function without first calling the
  92:Generated_Source\PSoC5/SCCT_Comp_1_PM.c **** *  SCCT_Comp_1_Sleep() function may produce unexpected behavior.
  93:Generated_Source\PSoC5/SCCT_Comp_1_PM.c **** *
ARM GAS  C:\Users\ben\AppData\Local\Temp\cc0FCuts.s 			page 4


  94:Generated_Source\PSoC5/SCCT_Comp_1_PM.c **** *******************************************************************************/
  95:Generated_Source\PSoC5/SCCT_Comp_1_PM.c **** void SCCT_Comp_1_Wakeup(void) 
  96:Generated_Source\PSoC5/SCCT_Comp_1_PM.c **** {
  79              		.loc 1 96 0
  80              		.cfi_startproc
  81              		@ args = 0, pretend = 0, frame = 0
  82              		@ frame_needed = 1, uses_anonymous_args = 0
  83 0000 80B5     		push	{r7, lr}
  84              		.cfi_def_cfa_offset 8
  85              		.cfi_offset 7, -8
  86              		.cfi_offset 14, -4
  87 0002 00AF     		add	r7, sp, #0
  88              		.cfi_def_cfa_register 7
  97:Generated_Source\PSoC5/SCCT_Comp_1_PM.c ****     /* Enables the SCCT_Comp_1 operation */
  98:Generated_Source\PSoC5/SCCT_Comp_1_PM.c ****     if (1u == SCCT_Comp_1_backup.enableState)
  89              		.loc 1 98 0
  90 0004 034B     		ldr	r3, .L8
  91 0006 1B78     		ldrb	r3, [r3]	@ zero_extendqisi2
  92 0008 012B     		cmp	r3, #1
  93 000a 01D1     		bne	.L6
  99:Generated_Source\PSoC5/SCCT_Comp_1_PM.c ****     {
 100:Generated_Source\PSoC5/SCCT_Comp_1_PM.c ****         SCCT_Comp_1_Enable();
  94              		.loc 1 100 0
  95 000c FFF7FEFF 		bl	SCCT_Comp_1_Enable
  96              	.L6:
 101:Generated_Source\PSoC5/SCCT_Comp_1_PM.c ****     } /* Do nothing if SCCT_Comp_1 was disable before */
 102:Generated_Source\PSoC5/SCCT_Comp_1_PM.c **** }
  97              		.loc 1 102 0
  98 0010 80BD     		pop	{r7, pc}
  99              	.L9:
 100 0012 00BF     		.align	2
 101              	.L8:
 102 0014 00000000 		.word	SCCT_Comp_1_backup
 103              		.cfi_endproc
 104              	.LFE1:
 105              		.size	SCCT_Comp_1_Wakeup, .-SCCT_Comp_1_Wakeup
 106              		.text
 107              	.Letext0:
 108              		.file 2 "Generated_Source\\PSoC5\\cytypes.h"
 109              		.file 3 "Generated_Source\\PSoC5\\SCCT_Comp_1.h"