ARM GAS  C:\Users\ben\AppData\Local\Temp\ccPXmHMV.s 			page 1


   1              		.syntax unified
   2              		.cpu cortex-m3
   3              		.fpu softvfp
   4              		.eabi_attribute 20, 1
   5              		.eabi_attribute 21, 1
   6              		.eabi_attribute 23, 3
   7              		.eabi_attribute 24, 1
   8              		.eabi_attribute 25, 1
   9              		.eabi_attribute 26, 1
  10              		.eabi_attribute 30, 6
  11              		.eabi_attribute 34, 1
  12              		.eabi_attribute 18, 4
  13              		.thumb
  14              		.file	"main.c"
  15              		.text
  16              	.Ltext0:
  17              		.cfi_sections	.debug_frame
  18              		.global	BIT_MASK_CTRL
  19              		.bss
  20              		.align	1
  21              		.type	BIT_MASK_CTRL, %object
  22              		.size	BIT_MASK_CTRL, 2
  23              	BIT_MASK_CTRL:
  24 0000 0000     		.space	2
  25              		.global	DIV_MASK_CTRL
  26              		.align	1
  27              		.type	DIV_MASK_CTRL, %object
  28              		.size	DIV_MASK_CTRL, 2
  29              	DIV_MASK_CTRL:
  30 0002 0000     		.space	2
  31              		.global	OLD_BIT_MASK_DEPTH
  32              		.align	1
  33              		.type	OLD_BIT_MASK_DEPTH, %object
  34              		.size	OLD_BIT_MASK_DEPTH, 2
  35              	OLD_BIT_MASK_DEPTH:
  36 0004 0000     		.space	2
  37              		.global	OLD_DIV_MASK_DEPTH
  38              		.align	1
  39              		.type	OLD_DIV_MASK_DEPTH, %object
  40              		.size	OLD_DIV_MASK_DEPTH, 2
  41              	OLD_DIV_MASK_DEPTH:
  42 0006 0000     		.space	2
  43              		.global	FINAL_OUT
  44              		.align	1
  45              		.type	FINAL_OUT, %object
  46              		.size	FINAL_OUT, 2
  47              	FINAL_OUT:
  48 0008 0000     		.space	2
  49              		.global	MASK_CTRL
  50              		.align	1
  51              		.type	MASK_CTRL, %object
  52              		.size	MASK_CTRL, 2
  53              	MASK_CTRL:
  54 000a 0000     		.space	2
  55              		.global	OLD_MASK_DEPTH
  56              		.align	1
  57              		.type	OLD_MASK_DEPTH, %object
ARM GAS  C:\Users\ben\AppData\Local\Temp\ccPXmHMV.s 			page 2


  58              		.size	OLD_MASK_DEPTH, 2
  59              	OLD_MASK_DEPTH:
  60 000c 0000     		.space	2
  61              		.global	MASK_EFFECT
  62              		.type	MASK_EFFECT, %object
  63              		.size	MASK_EFFECT, 1
  64              	MASK_EFFECT:
  65 000e 00       		.space	1
  66              		.comm	SAR_ADCResultArray,8,4
  67              		.comm	seq_sar_dataReady,1,1
  68              		.comm	audio_result,4,4
  69              		.comm	audio_dataReady,1,1
  70              		.comm	audio_lsb,1,1
  71              		.comm	audio_msb,1,1
  72              		.global	FRQ_CTRL
  73 000f 00       		.align	1
  74              		.type	FRQ_CTRL, %object
  75              		.size	FRQ_CTRL, 2
  76              	FRQ_CTRL:
  77 0010 0000     		.space	2
  78              		.section	.rodata
  79              		.align	2
  80              	.LC0:
  81 0000 41444331 		.ascii	"ADC1 \000"
  81      2000
  82 0006 0000     		.align	2
  83              	.LC1:
  84 0008 41444332 		.ascii	"ADC2 \000"
  84      2000
  85 000e 0000     		.section	.text.main,"ax",%progbits
  86              		.align	2
  87              		.global	main
  88              		.thumb
  89              		.thumb_func
  90              		.type	main, %function
  91              	main:
  92              	.LFB63:
  93              		.file 1 "main.c"
   1:main.c        ****  /*******************************************************************************
   2:main.c        **** * File Name: main.c
   3:main.c        **** 
   4:main.c        **** * Note that this file contains the DMA_Config function as well.
   5:main.c        **** *
   6:main.c        **** ********************************************************************************
   7:main.c        **** * Copyright 2012, Cypress Semiconductor Corporation. All rights reserved.
   8:main.c        **** * This software is owned by Cypress Semiconductor Corporation and is protected
   9:main.c        **** * by and subject to worldwide patent and copyright laws and treaties.
  10:main.c        **** * Therefore, you may use this software only as provided in the license agreement
  11:main.c        **** * accompanying the software package from which you obtained this software.
  12:main.c        **** * CYPRESS AND ITS SUPPLIERS MAKE NO WARRANTY OF ANY KIND, EXPRESS OR IMPLIED,
  13:main.c        **** * WITH REGARD TO THIS SOFTWARE, INCLUDING, BUT NOT LIMITED TO, NONINFRINGEMENT,
  14:main.c        **** * IMPLIED WARRANTIES OF MERCHANTABILITY AND FITNESS FOR A PARTICULAR PURPOSE.
  15:main.c        **** *******************************************************************************/
  16:main.c        **** 
  17:main.c        **** #include <project.h>
  18:main.c        **** 
  19:main.c        **** 
ARM GAS  C:\Users\ben\AppData\Local\Temp\ccPXmHMV.s 			page 3


  20:main.c        **** void PWM_Start(void);
  21:main.c        **** void PWM_Set(uint8 PWMin);
  22:main.c        **** 
  23:main.c        **** 
  24:main.c        **** uint16  BIT_MASK_CTRL = 0;
  25:main.c        **** uint16  DIV_MASK_CTRL = 0;
  26:main.c        **** uint16  OLD_BIT_MASK_DEPTH = 0;
  27:main.c        **** uint16  OLD_DIV_MASK_DEPTH = 0;
  28:main.c        **** uint16  FINAL_OUT = 0;        
  29:main.c        **** uint16  MASK_CTRL = 0;
  30:main.c        **** uint16  OLD_MASK_DEPTH = 0;
  31:main.c        **** uint8   MASK_EFFECT = 0;
  32:main.c        **** uint16  Effect(uint16 depth);
  33:main.c        **** uint16  SAR_ADCResultArray[ADC_SAR_Seq_NUMBER_OF_CHANNELS];
  34:main.c        **** uint8   seq_sar_dataReady; 
  35:main.c        **** int32   audio_result;
  36:main.c        **** uint8   audio_dataReady;   
  37:main.c        **** uint8   audio_lsb;
  38:main.c        **** uint8   audio_msb;
  39:main.c        **** uint16  FRQ_CTRL = 0;
  40:main.c        **** 
  41:main.c        **** 
  42:main.c        **** int main(void)
  43:main.c        **** {
  94              		.loc 1 43 0
  95              		.cfi_startproc
  96              		@ args = 0, pretend = 0, frame = 0
  97              		@ frame_needed = 1, uses_anonymous_args = 0
  98 0000 98B5     		push	{r3, r4, r7, lr}
  99              		.cfi_def_cfa_offset 16
 100              		.cfi_offset 3, -16
 101              		.cfi_offset 4, -12
 102              		.cfi_offset 7, -8
 103              		.cfi_offset 14, -4
 104 0002 00AF     		add	r7, sp, #0
 105              		.cfi_def_cfa_register 7
  44:main.c        ****     int32   Filt_ADC;
  45:main.c        ****     
  46:main.c        ****     /* Start the components */
  47:main.c        ****     Opamp_1_Start();
 106              		.loc 1 47 0
 107 0004 FFF7FEFF 		bl	Opamp_1_Start
  48:main.c        ****     Opamp_2_Start();
 108              		.loc 1 48 0
 109 0008 FFF7FEFF 		bl	Opamp_2_Start
  49:main.c        ****     PWM_Start();
 110              		.loc 1 49 0
 111 000c FFF7FEFF 		bl	PWM_Start
  50:main.c        ****     PWM_ADC_CK_Enable();
 112              		.loc 1 50 0
 113 0010 FFF7FEFF 		bl	PWM_ADC_CK_Enable
  51:main.c        ****     PWM_ADC_CK_Start();
 114              		.loc 1 51 0
 115 0014 FFF7FEFF 		bl	PWM_ADC_CK_Start
  52:main.c        ****     LCD_Char_1_Start();
 116              		.loc 1 52 0
 117 0018 FFF7FEFF 		bl	LCD_Char_1_Start
ARM GAS  C:\Users\ben\AppData\Local\Temp\ccPXmHMV.s 			page 4


  53:main.c        **** //   ADC_DelSig_1_Start();
  54:main.c        ****     Filter_Start();
 118              		.loc 1 54 0
 119 001c FFF7FEFF 		bl	Filter_Start
  55:main.c        ****     ADC_SAR_1_Start();
 120              		.loc 1 55 0
 121 0020 FFF7FEFF 		bl	ADC_SAR_1_Start
  56:main.c        ****     ADC_SAR_1_IRQ_Enable();
 122              		.loc 1 56 0
 123 0024 FFF7FEFF 		bl	ADC_SAR_1_IRQ_Enable
  57:main.c        ****     ADC_SAR_Seq_Start();
 124              		.loc 1 57 0
 125 0028 FFF7FEFF 		bl	ADC_SAR_Seq_Start
  58:main.c        ****     ADC_SAR_Seq_IRQ_Enable();
 126              		.loc 1 58 0
 127 002c FFF7FEFF 		bl	ADC_SAR_Seq_IRQ_Enable
  59:main.c        ****     ADC_SAR_Seq_StartConvert();
 128              		.loc 1 59 0
 129 0030 FFF7FEFF 		bl	ADC_SAR_Seq_StartConvert
  60:main.c        ****     
  61:main.c        ****  //  CapSense_1_Start();
  62:main.c        ****     SPI_DAC_Start();
 130              		.loc 1 62 0
 131 0034 FFF7FEFF 		bl	SPI_DAC_Start
  63:main.c        ****     
  64:main.c        ****     /* Start ISRs */
  65:main.c        ****     /* Enable global interrupts */
  66:main.c        ****     CyGlobalIntEnable;
 132              		.loc 1 66 0
 133              	@ 66 "main.c" 1
 134 0038 62B6     		CPSIE   i
 135              	@ 0 "" 2
  67:main.c        ****     ADC_SAR_Seq_StartConvert();
 136              		.loc 1 67 0
 137              		.thumb
 138 003a FFF7FEFF 		bl	ADC_SAR_Seq_StartConvert
  68:main.c        ****     LCD_Char_1_Position(0u, 0u);
 139              		.loc 1 68 0
 140 003e 0020     		movs	r0, #0
 141 0040 0021     		movs	r1, #0
 142 0042 FFF7FEFF 		bl	LCD_Char_1_Position
  69:main.c        ****     LCD_Char_1_PrintString("ADC1 ");
 143              		.loc 1 69 0
 144 0046 2C48     		ldr	r0, .L6
 145 0048 FFF7FEFF 		bl	LCD_Char_1_PrintString
  70:main.c        ****     LCD_Char_1_Position(1u, 0u);
 146              		.loc 1 70 0
 147 004c 0120     		movs	r0, #1
 148 004e 0021     		movs	r1, #0
 149 0050 FFF7FEFF 		bl	LCD_Char_1_Position
  71:main.c        ****     LCD_Char_1_PrintString("ADC2 ");
 150              		.loc 1 71 0
 151 0054 2948     		ldr	r0, .L6+4
 152 0056 FFF7FEFF 		bl	LCD_Char_1_PrintString
 153              	.L4:
  72:main.c        ****     
  73:main.c        ****     
ARM GAS  C:\Users\ben\AppData\Local\Temp\ccPXmHMV.s 			page 5


  74:main.c        ****     for(;;)
  75:main.c        ****     {
  76:main.c        ****     
  77:main.c        ****     
  78:main.c        ****     if (audio_dataReady !=0)
 154              		.loc 1 78 0
 155 005a 294B     		ldr	r3, .L6+8
 156 005c 1B78     		ldrb	r3, [r3]	@ zero_extendqisi2
 157 005e 002B     		cmp	r3, #0
 158 0060 25D0     		beq	.L2
  79:main.c        ****     {   
  80:main.c        ****     ADC_1_OUT_LSB_Write(audio_lsb);
 159              		.loc 1 80 0
 160 0062 284B     		ldr	r3, .L6+12
 161 0064 1B78     		ldrb	r3, [r3]	@ zero_extendqisi2
 162 0066 1846     		mov	r0, r3
 163 0068 FFF7FEFF 		bl	ADC_1_OUT_LSB_Write
  81:main.c        ****     ADC_1_OUT_MSB_Write((audio_msb));
 164              		.loc 1 81 0
 165 006c 264B     		ldr	r3, .L6+16
 166 006e 1B78     		ldrb	r3, [r3]	@ zero_extendqisi2
 167 0070 1846     		mov	r0, r3
 168 0072 FFF7FEFF 		bl	ADC_1_OUT_MSB_Write
  82:main.c        ****     FINAL_OUT = (((DAC_IN_MSB_Read()<<8) | DAC_IN_LSB_Read()));
 169              		.loc 1 82 0
 170 0076 FFF7FEFF 		bl	DAC_IN_MSB_Read
 171 007a 0346     		mov	r3, r0
 172 007c 1B02     		lsls	r3, r3, #8
 173 007e 9CB2     		uxth	r4, r3
 174 0080 FFF7FEFF 		bl	DAC_IN_LSB_Read
 175 0084 0346     		mov	r3, r0
 176 0086 9BB2     		uxth	r3, r3
 177 0088 2246     		mov	r2, r4	@ movhi
 178 008a 1343     		orrs	r3, r3, r2
 179 008c 9BB2     		uxth	r3, r3
 180 008e 9AB2     		uxth	r2, r3
 181 0090 1E4B     		ldr	r3, .L6+20
 182 0092 1A80     		strh	r2, [r3]	@ movhi
  83:main.c        ****     SPI_DAC_WriteTxData((FINAL_OUT)| 0b1111000000000000);
 183              		.loc 1 83 0
 184 0094 1D4B     		ldr	r3, .L6+20
 185 0096 1B88     		ldrh	r3, [r3]
 186 0098 6FEA0353 		mvn	r3, r3, lsl #20
 187 009c 6FEA1353 		mvn	r3, r3, lsr #20
 188 00a0 9BB2     		uxth	r3, r3
 189 00a2 1846     		mov	r0, r3
 190 00a4 FFF7FEFF 		bl	SPI_DAC_WriteTxData
  84:main.c        ****         audio_dataReady = 0;
 191              		.loc 1 84 0
 192 00a8 154B     		ldr	r3, .L6+8
 193 00aa 0022     		movs	r2, #0
 194 00ac 1A70     		strb	r2, [r3]
 195              	.L2:
  85:main.c        ****     }
  86:main.c        ****       if (seq_sar_dataReady !=0)
 196              		.loc 1 86 0
 197 00ae 184B     		ldr	r3, .L6+24
ARM GAS  C:\Users\ben\AppData\Local\Temp\ccPXmHMV.s 			page 6


 198 00b0 1B78     		ldrb	r3, [r3]	@ zero_extendqisi2
 199 00b2 002B     		cmp	r3, #0
 200 00b4 1ED0     		beq	.L5
  87:main.c        ****         {   
  88:main.c        **** 
  89:main.c        ****     PWM_ADC_CK_WritePeriod((SAR_ADCResultArray[0]>>3)+1);//sample rate control
 201              		.loc 1 89 0
 202 00b6 174B     		ldr	r3, .L6+28
 203 00b8 1B88     		ldrh	r3, [r3]
 204 00ba DB08     		lsrs	r3, r3, #3
 205 00bc 9BB2     		uxth	r3, r3
 206 00be 0133     		adds	r3, r3, #1
 207 00c0 9BB2     		uxth	r3, r3
 208 00c2 1846     		mov	r0, r3
 209 00c4 FFF7FEFF 		bl	PWM_ADC_CK_WritePeriod
  90:main.c        ****     PWM_ADC_CK_WriteCompare((SAR_ADCResultArray[0]>>4));//SAR_ADCResultArray[0]>>1);//compare for 5
 210              		.loc 1 90 0
 211 00c8 124B     		ldr	r3, .L6+28
 212 00ca 1B88     		ldrh	r3, [r3]
 213 00cc 1B09     		lsrs	r3, r3, #4
 214 00ce 9BB2     		uxth	r3, r3
 215 00d0 1846     		mov	r0, r3
 216 00d2 FFF7FEFF 		bl	PWM_ADC_CK_WriteCompare
  91:main.c        ****     DIV_MASK_LSB_Write(0);//SAR_ADCResultArray[1] & 0xFF);//frequency div depth LSB;
 217              		.loc 1 91 0
 218 00d6 0020     		movs	r0, #0
 219 00d8 FFF7FEFF 		bl	DIV_MASK_LSB_Write
  92:main.c        ****     DIV_MASK_MSB_Write(0);//SAR_ADCResultArray[1]>>8u);//frequency div depth MSB;
 220              		.loc 1 92 0
 221 00dc 0020     		movs	r0, #0
 222 00de FFF7FEFF 		bl	DIV_MASK_MSB_Write
  93:main.c        ****     PWM_Set(1);//SAR_ADCResultArray[2]>>7)+1);//div value
 223              		.loc 1 93 0
 224 00e2 0120     		movs	r0, #1
 225 00e4 FFF7FEFF 		bl	PWM_Set
  94:main.c        ****     BIT_MASK_CTRL = 0;//Effect(SAR_ADCResultArray[3]>>7);
 226              		.loc 1 94 0
 227 00e8 0B4B     		ldr	r3, .L6+32
 228 00ea 0022     		movs	r2, #0
 229 00ec 1A80     		strh	r2, [r3]	@ movhi
  95:main.c        ****     seq_sar_dataReady=0;
 230              		.loc 1 95 0
 231 00ee 084B     		ldr	r3, .L6+24
 232 00f0 0022     		movs	r2, #0
 233 00f2 1A70     		strb	r2, [r3]
 234              	.L5:
  96:main.c        ****         }  
  97:main.c        **** 
  98:main.c        ****     
  99:main.c        ****     if (1 == 0)
 100:main.c        ****     {
 101:main.c        ****         
 102:main.c        ****     LCD_Char_1_Position(0u, strlen("ADC1 "));
 103:main.c        ****     LCD_Char_1_PrintInt16(FRQ_CTRL); 
 104:main.c        ****     LCD_Char_1_Position(1u, strlen("ADC2 "));
 105:main.c        ****     LCD_Char_1_PrintInt16(MASK_CTRL); 
 106:main.c        ****     
ARM GAS  C:\Users\ben\AppData\Local\Temp\ccPXmHMV.s 			page 7


 107:main.c        ****     }
 108:main.c        ****     
 109:main.c        ****     
 110:main.c        ****     }
 235              		.loc 1 110 0
 236 00f4 B1E7     		b	.L4
 237              	.L7:
 238 00f6 00BF     		.align	2
 239              	.L6:
 240 00f8 00000000 		.word	.LC0
 241 00fc 08000000 		.word	.LC1
 242 0100 00000000 		.word	audio_dataReady
 243 0104 00000000 		.word	audio_lsb
 244 0108 00000000 		.word	audio_msb
 245 010c 00000000 		.word	FINAL_OUT
 246 0110 00000000 		.word	seq_sar_dataReady
 247 0114 00000000 		.word	SAR_ADCResultArray
 248 0118 00000000 		.word	BIT_MASK_CTRL
 249              		.cfi_endproc
 250              	.LFE63:
 251              		.size	main, .-main
 252              		.section	.text.Effect,"ax",%progbits
 253              		.align	2
 254              		.global	Effect
 255              		.thumb
 256              		.thumb_func
 257              		.type	Effect, %function
 258              	Effect:
 259              	.LFB64:
 111:main.c        **** }
 112:main.c        **** 
 113:main.c        **** 
 114:main.c        **** uint16 Effect(uint16 depth)
 115:main.c        **** {
 260              		.loc 1 115 0
 261              		.cfi_startproc
 262              		@ args = 0, pretend = 0, frame = 16
 263              		@ frame_needed = 1, uses_anonymous_args = 0
 264              		@ link register save eliminated.
 265 0000 80B4     		push	{r7}
 266              		.cfi_def_cfa_offset 4
 267              		.cfi_offset 7, -4
 268 0002 85B0     		sub	sp, sp, #20
 269              		.cfi_def_cfa_offset 24
 270 0004 00AF     		add	r7, sp, #0
 271              		.cfi_def_cfa_register 7
 272 0006 0346     		mov	r3, r0
 273 0008 FB80     		strh	r3, [r7, #6]	@ movhi
 116:main.c        ****             uint16 mask;
 117:main.c        ****             switch (depth) 
 274              		.loc 1 117 0
 275 000a FB88     		ldrh	r3, [r7, #6]
 276 000c 1F2B     		cmp	r3, #31
 277 000e 00F29880 		bhi	.L9
 278 0012 01A2     		adr	r2, .L11
 279 0014 52F823F0 		ldr	pc, [r2, r3, lsl #2]
 280              		.p2align 2
ARM GAS  C:\Users\ben\AppData\Local\Temp\ccPXmHMV.s 			page 8


 281              	.L11:
 282 0018 99000000 		.word	.L10+1
 283 001c A1000000 		.word	.L12+1
 284 0020 A9000000 		.word	.L13+1
 285 0024 B1000000 		.word	.L14+1
 286 0028 B9000000 		.word	.L15+1
 287 002c C1000000 		.word	.L16+1
 288 0030 C9000000 		.word	.L17+1
 289 0034 D1000000 		.word	.L18+1
 290 0038 D9000000 		.word	.L19+1
 291 003c E1000000 		.word	.L20+1
 292 0040 E9000000 		.word	.L21+1
 293 0044 F1000000 		.word	.L22+1
 294 0048 F9000000 		.word	.L23+1
 295 004c 01010000 		.word	.L24+1
 296 0050 09010000 		.word	.L25+1
 297 0054 11010000 		.word	.L26+1
 298 0058 17010000 		.word	.L27+1
 299 005c 1D010000 		.word	.L28+1
 300 0060 43010000 		.word	.L9+1
 301 0064 43010000 		.word	.L9+1
 302 0068 43010000 		.word	.L9+1
 303 006c 43010000 		.word	.L9+1
 304 0070 43010000 		.word	.L9+1
 305 0074 43010000 		.word	.L9+1
 306 0078 43010000 		.word	.L9+1
 307 007c 43010000 		.word	.L9+1
 308 0080 43010000 		.word	.L9+1
 309 0084 23010000 		.word	.L29+1
 310 0088 29010000 		.word	.L30+1
 311 008c 2F010000 		.word	.L31+1
 312 0090 35010000 		.word	.L32+1
 313 0094 3B010000 		.word	.L33+1
 314              		.p2align 1
 315              	.L10:
 118:main.c        ****         {
 119:main.c        ****         case 0:
 120:main.c        ****             mask = 0xFFFFu;//b1111 1111 1111;
 316              		.loc 1 120 0
 317 0098 4FF6FF73 		movw	r3, #65535
 318 009c FB81     		strh	r3, [r7, #14]	@ movhi
 121:main.c        ****             break;
 319              		.loc 1 121 0
 320 009e 53E0     		b	.L34
 321              	.L12:
 122:main.c        ****         case 1:
 123:main.c        ****             mask = 0xFFFEu;//b1111 1111 1110;
 322              		.loc 1 123 0
 323 00a0 4FF6FE73 		movw	r3, #65534
 324 00a4 FB81     		strh	r3, [r7, #14]	@ movhi
 124:main.c        ****             break;  
 325              		.loc 1 124 0
 326 00a6 4FE0     		b	.L34
 327              	.L13:
 125:main.c        ****         case 2:
 126:main.c        ****             mask = 0xFFFCu;//b1111 1111 1100;
 328              		.loc 1 126 0
ARM GAS  C:\Users\ben\AppData\Local\Temp\ccPXmHMV.s 			page 9


 329 00a8 4FF6FC73 		movw	r3, #65532
 330 00ac FB81     		strh	r3, [r7, #14]	@ movhi
 127:main.c        ****             break; 
 331              		.loc 1 127 0
 332 00ae 4BE0     		b	.L34
 333              	.L14:
 128:main.c        ****         case 3:
 129:main.c        ****             mask = 0xFFF8u;//b1111 1111 1000;
 334              		.loc 1 129 0
 335 00b0 4FF6F873 		movw	r3, #65528
 336 00b4 FB81     		strh	r3, [r7, #14]	@ movhi
 130:main.c        ****             break;
 337              		.loc 1 130 0
 338 00b6 47E0     		b	.L34
 339              	.L15:
 131:main.c        ****         case 4:
 132:main.c        ****             mask = 0xFFF0u;//b1111 1111 0000;
 340              		.loc 1 132 0
 341 00b8 4FF6F073 		movw	r3, #65520
 342 00bc FB81     		strh	r3, [r7, #14]	@ movhi
 133:main.c        ****             break;  
 343              		.loc 1 133 0
 344 00be 43E0     		b	.L34
 345              	.L16:
 134:main.c        ****         case 5:
 135:main.c        ****             mask = 0xFFE0u;//b1111 1110 0000;
 346              		.loc 1 135 0
 347 00c0 4FF6E073 		movw	r3, #65504
 348 00c4 FB81     		strh	r3, [r7, #14]	@ movhi
 136:main.c        ****             break; 
 349              		.loc 1 136 0
 350 00c6 3FE0     		b	.L34
 351              	.L17:
 137:main.c        ****          case 6:
 138:main.c        ****             mask = 0b111111010000;
 352              		.loc 1 138 0
 353 00c8 4FF47D63 		mov	r3, #4048
 354 00cc FB81     		strh	r3, [r7, #14]	@ movhi
 139:main.c        ****             break; 
 355              		.loc 1 139 0
 356 00ce 3BE0     		b	.L34
 357              	.L18:
 140:main.c        ****         case 7:
 141:main.c        ****             mask = 0b111111000000;
 358              		.loc 1 141 0
 359 00d0 4FF47C63 		mov	r3, #4032
 360 00d4 FB81     		strh	r3, [r7, #14]	@ movhi
 142:main.c        ****             break;  
 361              		.loc 1 142 0
 362 00d6 37E0     		b	.L34
 363              	.L19:
 143:main.c        ****         case 8:
 144:main.c        ****             mask = 0b111110110000;
 364              		.loc 1 144 0
 365 00d8 4FF47B63 		mov	r3, #4016
 366 00dc FB81     		strh	r3, [r7, #14]	@ movhi
 145:main.c        ****             break;  
ARM GAS  C:\Users\ben\AppData\Local\Temp\ccPXmHMV.s 			page 10


 367              		.loc 1 145 0
 368 00de 33E0     		b	.L34
 369              	.L20:
 146:main.c        ****         case 9:
 147:main.c        ****             mask = 0b111110100000;
 370              		.loc 1 147 0
 371 00e0 4FF47A63 		mov	r3, #4000
 372 00e4 FB81     		strh	r3, [r7, #14]	@ movhi
 148:main.c        ****             break;  
 373              		.loc 1 148 0
 374 00e6 2FE0     		b	.L34
 375              	.L21:
 149:main.c        ****         case 10:
 150:main.c        ****             mask = 0b111110010000;
 376              		.loc 1 150 0
 377 00e8 4FF47963 		mov	r3, #3984
 378 00ec FB81     		strh	r3, [r7, #14]	@ movhi
 151:main.c        ****             break;  
 379              		.loc 1 151 0
 380 00ee 2BE0     		b	.L34
 381              	.L22:
 152:main.c        ****         case 11:
 153:main.c        ****             mask = 0b111110000000;
 382              		.loc 1 153 0
 383 00f0 4FF47863 		mov	r3, #3968
 384 00f4 FB81     		strh	r3, [r7, #14]	@ movhi
 154:main.c        ****             break;  
 385              		.loc 1 154 0
 386 00f6 27E0     		b	.L34
 387              	.L23:
 155:main.c        ****         case 12:
 156:main.c        ****             mask = 0b111101110000;
 388              		.loc 1 156 0
 389 00f8 4FF47763 		mov	r3, #3952
 390 00fc FB81     		strh	r3, [r7, #14]	@ movhi
 157:main.c        ****             break;  
 391              		.loc 1 157 0
 392 00fe 23E0     		b	.L34
 393              	.L24:
 158:main.c        ****         case 13:
 159:main.c        ****             mask = 0b111101100000;
 394              		.loc 1 159 0
 395 0100 4FF47663 		mov	r3, #3936
 396 0104 FB81     		strh	r3, [r7, #14]	@ movhi
 160:main.c        ****             break;  
 397              		.loc 1 160 0
 398 0106 1FE0     		b	.L34
 399              	.L25:
 161:main.c        ****         case 14:
 162:main.c        ****             mask = 0b111101000000;
 400              		.loc 1 162 0
 401 0108 4FF47463 		mov	r3, #3904
 402 010c FB81     		strh	r3, [r7, #14]	@ movhi
 163:main.c        ****             break;  
 403              		.loc 1 163 0
 404 010e 1BE0     		b	.L34
 405              	.L26:
ARM GAS  C:\Users\ben\AppData\Local\Temp\ccPXmHMV.s 			page 11


 164:main.c        ****         case 15:
 165:main.c        ****             mask = 0b111100000000;
 406              		.loc 1 165 0
 407 0110 4FF47063 		mov	r3, #3840
 408 0114 FB81     		strh	r3, [r7, #14]	@ movhi
 409              	.L27:
 166:main.c        ****         case 16:
 167:main.c        ****             mask = 0b111100000000;
 410              		.loc 1 167 0
 411 0116 4FF47063 		mov	r3, #3840
 412 011a FB81     		strh	r3, [r7, #14]	@ movhi
 413              	.L28:
 168:main.c        ****         case 17:
 169:main.c        ****             mask = 0b111000000000;
 414              		.loc 1 169 0
 415 011c 4FF46063 		mov	r3, #3584
 416 0120 FB81     		strh	r3, [r7, #14]	@ movhi
 417              	.L29:
 170:main.c        ****         case 27:
 171:main.c        ****             mask = 0b110100000000;
 418              		.loc 1 171 0
 419 0122 4FF45063 		mov	r3, #3328
 420 0126 FB81     		strh	r3, [r7, #14]	@ movhi
 421              	.L30:
 172:main.c        ****         case 28:
 173:main.c        ****             mask = 0b110000000000;
 422              		.loc 1 173 0
 423 0128 4FF44063 		mov	r3, #3072
 424 012c FB81     		strh	r3, [r7, #14]	@ movhi
 425              	.L31:
 174:main.c        ****         case 29:
 175:main.c        ****             mask = 0b101100000000;
 426              		.loc 1 175 0
 427 012e 4FF43063 		mov	r3, #2816
 428 0132 FB81     		strh	r3, [r7, #14]	@ movhi
 429              	.L32:
 176:main.c        ****         case 30:
 177:main.c        ****             mask = 0b101000000000;
 430              		.loc 1 177 0
 431 0134 4FF42063 		mov	r3, #2560
 432 0138 FB81     		strh	r3, [r7, #14]	@ movhi
 433              	.L33:
 178:main.c        ****         case 31:
 179:main.c        ****             mask = 0b100000000000;
 434              		.loc 1 179 0
 435 013a 4FF40063 		mov	r3, #2048
 436 013e FB81     		strh	r3, [r7, #14]	@ movhi
 180:main.c        ****             break;  
 437              		.loc 1 180 0
 438 0140 02E0     		b	.L34
 439              	.L9:
 181:main.c        ****         default:
 182:main.c        ****             mask= 0xFFFFu;
 440              		.loc 1 182 0
 441 0142 4FF6FF73 		movw	r3, #65535
 442 0146 FB81     		strh	r3, [r7, #14]	@ movhi
 443              	.L34:
ARM GAS  C:\Users\ben\AppData\Local\Temp\ccPXmHMV.s 			page 12


 183:main.c        ****         }
 184:main.c        ****     return mask | 0xF000u;
 444              		.loc 1 184 0
 445 0148 FB89     		ldrh	r3, [r7, #14]	@ movhi
 446 014a 6FEA0353 		mvn	r3, r3, lsl #20
 447 014e 6FEA1353 		mvn	r3, r3, lsr #20
 448 0152 9BB2     		uxth	r3, r3
 185:main.c        **** }
 449              		.loc 1 185 0
 450 0154 1846     		mov	r0, r3
 451 0156 1437     		adds	r7, r7, #20
 452              		.cfi_def_cfa_offset 4
 453 0158 BD46     		mov	sp, r7
 454              		.cfi_def_cfa_register 13
 455              		@ sp needed
 456 015a 5DF8047B 		ldr	r7, [sp], #4
 457              		.cfi_restore 7
 458              		.cfi_def_cfa_offset 0
 459 015e 7047     		bx	lr
 460              		.cfi_endproc
 461              	.LFE64:
 462              		.size	Effect, .-Effect
 463              		.section	.text.PWM_Start,"ax",%progbits
 464              		.align	2
 465              		.global	PWM_Start
 466              		.thumb
 467              		.thumb_func
 468              		.type	PWM_Start, %function
 469              	PWM_Start:
 470              	.LFB65:
 186:main.c        **** void PWM_Start(void)
 187:main.c        **** {
 471              		.loc 1 187 0
 472              		.cfi_startproc
 473              		@ args = 0, pretend = 0, frame = 0
 474              		@ frame_needed = 1, uses_anonymous_args = 0
 475 0000 80B5     		push	{r7, lr}
 476              		.cfi_def_cfa_offset 8
 477              		.cfi_offset 7, -8
 478              		.cfi_offset 14, -4
 479 0002 00AF     		add	r7, sp, #0
 480              		.cfi_def_cfa_register 7
 188:main.c        ****     
 189:main.c        **** //  PWM_1_Enable();
 190:main.c        **** //  PWM_2_Enable();
 191:main.c        **** //  PWM_3_Enable();
 192:main.c        ****     PWM_4_Enable();
 481              		.loc 1 192 0
 482 0004 FFF7FEFF 		bl	PWM_4_Enable
 193:main.c        ****     PWM_5_Enable();
 483              		.loc 1 193 0
 484 0008 FFF7FEFF 		bl	PWM_5_Enable
 194:main.c        ****     PWM_6_Enable();
 485              		.loc 1 194 0
 486 000c FFF7FEFF 		bl	PWM_6_Enable
 195:main.c        ****     PWM_7_Enable();
 487              		.loc 1 195 0
ARM GAS  C:\Users\ben\AppData\Local\Temp\ccPXmHMV.s 			page 13


 488 0010 FFF7FEFF 		bl	PWM_7_Enable
 196:main.c        ****     PWM_8_Enable();
 489              		.loc 1 196 0
 490 0014 FFF7FEFF 		bl	PWM_8_Enable
 197:main.c        ****     PWM_9_Enable();
 491              		.loc 1 197 0
 492 0018 FFF7FEFF 		bl	PWM_9_Enable
 198:main.c        ****     PWM_10_Enable();
 493              		.loc 1 198 0
 494 001c FFF7FEFF 		bl	PWM_10_Enable
 199:main.c        ****     PWM_11_Enable();
 495              		.loc 1 199 0
 496 0020 FFF7FEFF 		bl	PWM_11_Enable
 200:main.c        ****     
 201:main.c        **** //  PWM_1_Start();
 202:main.c        **** //  PWM_2_Start();
 203:main.c        **** //  PWM_3_Start();
 204:main.c        ****     PWM_4_Start();
 497              		.loc 1 204 0
 498 0024 FFF7FEFF 		bl	PWM_4_Start
 205:main.c        ****     PWM_5_Start();
 499              		.loc 1 205 0
 500 0028 FFF7FEFF 		bl	PWM_5_Start
 206:main.c        ****     PWM_6_Start();
 501              		.loc 1 206 0
 502 002c FFF7FEFF 		bl	PWM_6_Start
 207:main.c        ****     PWM_7_Start();
 503              		.loc 1 207 0
 504 0030 FFF7FEFF 		bl	PWM_7_Start
 208:main.c        ****     PWM_8_Start();
 505              		.loc 1 208 0
 506 0034 FFF7FEFF 		bl	PWM_8_Start
 209:main.c        ****     PWM_9_Start();
 507              		.loc 1 209 0
 508 0038 FFF7FEFF 		bl	PWM_9_Start
 210:main.c        ****     PWM_10_Start();
 509              		.loc 1 210 0
 510 003c FFF7FEFF 		bl	PWM_10_Start
 211:main.c        ****     PWM_11_Start();
 511              		.loc 1 211 0
 512 0040 FFF7FEFF 		bl	PWM_11_Start
 212:main.c        ****     return;
 513              		.loc 1 212 0
 514 0044 00BF     		nop
 213:main.c        **** }
 515              		.loc 1 213 0
 516 0046 80BD     		pop	{r7, pc}
 517              		.cfi_endproc
 518              	.LFE65:
 519              		.size	PWM_Start, .-PWM_Start
 520              		.section	.text.PWM_Set,"ax",%progbits
 521              		.align	2
 522              		.global	PWM_Set
 523              		.thumb
 524              		.thumb_func
 525              		.type	PWM_Set, %function
 526              	PWM_Set:
ARM GAS  C:\Users\ben\AppData\Local\Temp\ccPXmHMV.s 			page 14


 527              	.LFB66:
 214:main.c        **** void PWM_Set(uint8 PWMin){
 528              		.loc 1 214 0
 529              		.cfi_startproc
 530              		@ args = 0, pretend = 0, frame = 16
 531              		@ frame_needed = 1, uses_anonymous_args = 0
 532 0000 80B5     		push	{r7, lr}
 533              		.cfi_def_cfa_offset 8
 534              		.cfi_offset 7, -8
 535              		.cfi_offset 14, -4
 536 0002 84B0     		sub	sp, sp, #16
 537              		.cfi_def_cfa_offset 24
 538 0004 00AF     		add	r7, sp, #0
 539              		.cfi_def_cfa_register 7
 540 0006 0346     		mov	r3, r0
 541 0008 FB71     		strb	r3, [r7, #7]
 215:main.c        ****    uint8 PWMdiv = PWMin>>1;
 542              		.loc 1 215 0
 543 000a FB79     		ldrb	r3, [r7, #7]	@ zero_extendqisi2
 544 000c 5B08     		lsrs	r3, r3, #1
 545 000e FB73     		strb	r3, [r7, #15]
 216:main.c        **** //  division
 217:main.c        ****     PWM_4_WritePeriod(PWMin);
 546              		.loc 1 217 0
 547 0010 FB79     		ldrb	r3, [r7, #7]	@ zero_extendqisi2
 548 0012 1846     		mov	r0, r3
 549 0014 FFF7FEFF 		bl	PWM_4_WritePeriod
 218:main.c        ****     PWM_5_WritePeriod(PWMin);
 550              		.loc 1 218 0
 551 0018 FB79     		ldrb	r3, [r7, #7]	@ zero_extendqisi2
 552 001a 1846     		mov	r0, r3
 553 001c FFF7FEFF 		bl	PWM_5_WritePeriod
 219:main.c        ****     PWM_6_WritePeriod(PWMin);
 554              		.loc 1 219 0
 555 0020 FB79     		ldrb	r3, [r7, #7]	@ zero_extendqisi2
 556 0022 1846     		mov	r0, r3
 557 0024 FFF7FEFF 		bl	PWM_6_WritePeriod
 220:main.c        ****     PWM_7_WritePeriod(PWMin);
 558              		.loc 1 220 0
 559 0028 FB79     		ldrb	r3, [r7, #7]	@ zero_extendqisi2
 560 002a 1846     		mov	r0, r3
 561 002c FFF7FEFF 		bl	PWM_7_WritePeriod
 221:main.c        ****     PWM_8_WritePeriod(PWMin);
 562              		.loc 1 221 0
 563 0030 FB79     		ldrb	r3, [r7, #7]	@ zero_extendqisi2
 564 0032 1846     		mov	r0, r3
 565 0034 FFF7FEFF 		bl	PWM_8_WritePeriod
 222:main.c        ****     PWM_9_WritePeriod(PWMin);
 566              		.loc 1 222 0
 567 0038 FB79     		ldrb	r3, [r7, #7]	@ zero_extendqisi2
 568 003a 1846     		mov	r0, r3
 569 003c FFF7FEFF 		bl	PWM_9_WritePeriod
 223:main.c        ****     PWM_10_WritePeriod(PWMin);
 570              		.loc 1 223 0
 571 0040 FB79     		ldrb	r3, [r7, #7]	@ zero_extendqisi2
 572 0042 1846     		mov	r0, r3
 573 0044 FFF7FEFF 		bl	PWM_10_WritePeriod
ARM GAS  C:\Users\ben\AppData\Local\Temp\ccPXmHMV.s 			page 15


 224:main.c        ****     PWM_11_WritePeriod(PWMin);
 574              		.loc 1 224 0
 575 0048 FB79     		ldrb	r3, [r7, #7]	@ zero_extendqisi2
 576 004a 1846     		mov	r0, r3
 577 004c FFF7FEFF 		bl	PWM_11_WritePeriod
 225:main.c        **** //  compare    
 226:main.c        ****     PWM_4_WriteCompare(PWMdiv);
 578              		.loc 1 226 0
 579 0050 FB7B     		ldrb	r3, [r7, #15]	@ zero_extendqisi2
 580 0052 1846     		mov	r0, r3
 581 0054 FFF7FEFF 		bl	PWM_4_WriteCompare
 227:main.c        ****     PWM_5_WriteCompare(PWMdiv);
 582              		.loc 1 227 0
 583 0058 FB7B     		ldrb	r3, [r7, #15]	@ zero_extendqisi2
 584 005a 1846     		mov	r0, r3
 585 005c FFF7FEFF 		bl	PWM_5_WriteCompare
 228:main.c        ****     PWM_6_WriteCompare(PWMdiv);
 586              		.loc 1 228 0
 587 0060 FB7B     		ldrb	r3, [r7, #15]	@ zero_extendqisi2
 588 0062 1846     		mov	r0, r3
 589 0064 FFF7FEFF 		bl	PWM_6_WriteCompare
 229:main.c        ****     PWM_7_WriteCompare(PWMdiv);
 590              		.loc 1 229 0
 591 0068 FB7B     		ldrb	r3, [r7, #15]	@ zero_extendqisi2
 592 006a 1846     		mov	r0, r3
 593 006c FFF7FEFF 		bl	PWM_7_WriteCompare
 230:main.c        ****     PWM_8_WriteCompare(PWMdiv);
 594              		.loc 1 230 0
 595 0070 FB7B     		ldrb	r3, [r7, #15]	@ zero_extendqisi2
 596 0072 1846     		mov	r0, r3
 597 0074 FFF7FEFF 		bl	PWM_8_WriteCompare
 231:main.c        ****     PWM_9_WriteCompare(PWMdiv);
 598              		.loc 1 231 0
 599 0078 FB7B     		ldrb	r3, [r7, #15]	@ zero_extendqisi2
 600 007a 1846     		mov	r0, r3
 601 007c FFF7FEFF 		bl	PWM_9_WriteCompare
 232:main.c        ****     PWM_10_WriteCompare(PWMdiv);
 602              		.loc 1 232 0
 603 0080 FB7B     		ldrb	r3, [r7, #15]	@ zero_extendqisi2
 604 0082 1846     		mov	r0, r3
 605 0084 FFF7FEFF 		bl	PWM_10_WriteCompare
 233:main.c        ****     PWM_11_WriteCompare(PWMdiv);
 606              		.loc 1 233 0
 607 0088 FB7B     		ldrb	r3, [r7, #15]	@ zero_extendqisi2
 608 008a 1846     		mov	r0, r3
 609 008c FFF7FEFF 		bl	PWM_11_WriteCompare
 234:main.c        ****     return;
 610              		.loc 1 234 0
 611 0090 00BF     		nop
 235:main.c        **** }
 612              		.loc 1 235 0
 613 0092 1037     		adds	r7, r7, #16
 614              		.cfi_def_cfa_offset 8
 615 0094 BD46     		mov	sp, r7
 616              		.cfi_def_cfa_register 13
 617              		@ sp needed
 618 0096 80BD     		pop	{r7, pc}
ARM GAS  C:\Users\ben\AppData\Local\Temp\ccPXmHMV.s 			page 16


 619              		.cfi_endproc
 620              	.LFE66:
 621              		.size	PWM_Set, .-PWM_Set
 622              		.text
 623              	.Letext0:
 624              		.file 2 "c:\\program files (x86)\\cypress\\psoc creator\\4.0\\psoc creator\\import\\gnu\\arm\\4.9.
 625              		.file 3 "c:\\program files (x86)\\cypress\\psoc creator\\4.0\\psoc creator\\import\\gnu\\arm\\4.9.
 626              		.file 4 "Generated_Source\\PSoC5/cytypes.h"
 627              		.file 5 "Generated_Source\\PSoC5/core_cm3.h"